
TK80.elf:     file format elf32-littleriscv
TK80.elf
architecture: riscv:rv32, flags 0x00000112:
EXEC_P, HAS_SYMS, D_PAGED
start address 0x00000000

Program Header:
    LOAD off    0x00001000 vaddr 0x00000000 paddr 0x00000000 align 2**12
         filesz 0x0000e000 memsz 0x0000e000 flags r-x
    LOAD off    0x0000f000 vaddr 0x20000000 paddr 0x0000e000 align 2**12
         filesz 0x000000f8 memsz 0x00004af4 flags rw-
    LOAD off    0x0000fe00 vaddr 0x20004e00 paddr 0x20004e00 align 2**12
         filesz 0x00000000 memsz 0x00000200 flags rw-

Sections:
Idx Name          Size      VMA       LMA       File off  Algn
  0 .init         00000038  00000000  00000000  00001000  2**1
                  CONTENTS, ALLOC, LOAD, READONLY, CODE
  1 .vector       00000108  00000038  00000038  00001038  2**1
                  CONTENTS, ALLOC, LOAD, READONLY, CODE
  2 .text         0000dec0  00000140  00000140  00001140  2**2
                  CONTENTS, ALLOC, LOAD, READONLY, CODE
  3 .fini         00000000  0000e000  0000e000  0000f0f8  2**0
                  CONTENTS, ALLOC, LOAD, CODE
  4 .dalign       00000000  20000000  20000000  0000f0f8  2**0
                  CONTENTS
  5 .dlalign      00000000  0000e000  0000e000  0000f0f8  2**0
                  CONTENTS
  6 .data         000000f8  20000000  0000e000  0000f000  2**2
                  CONTENTS, ALLOC, LOAD, DATA
  7 .bss          000049fc  200000f8  0000e0f8  0000f0f8  2**2
                  ALLOC
  8 .stack        00000200  20004e00  20004e00  0000fe00  2**0
                  ALLOC
  9 .debug_info   0001ef87  00000000  00000000  0000f0f8  2**0
                  CONTENTS, READONLY, DEBUGGING
 10 .debug_abbrev 00003761  00000000  00000000  0002e07f  2**0
                  CONTENTS, READONLY, DEBUGGING
 11 .debug_loc    0000ff1a  00000000  00000000  000317e0  2**0
                  CONTENTS, READONLY, DEBUGGING
 12 .debug_aranges 00000a50  00000000  00000000  00041700  2**3
                  CONTENTS, READONLY, DEBUGGING
 13 .debug_ranges 000047b8  00000000  00000000  00042150  2**3
                  CONTENTS, READONLY, DEBUGGING
 14 .debug_line   0001d201  00000000  00000000  00046908  2**0
                  CONTENTS, READONLY, DEBUGGING
 15 .debug_str    00003bd5  00000000  00000000  00063b09  2**0
                  CONTENTS, READONLY, DEBUGGING
 16 .comment      00000033  00000000  00000000  000676de  2**0
                  CONTENTS, READONLY
 17 .debug_frame  00002278  00000000  00000000  00067714  2**2
                  CONTENTS, READONLY, DEBUGGING
 18 .stab         00000084  00000000  00000000  0006998c  2**2
                  CONTENTS, READONLY, DEBUGGING
 19 .stabstr      00000117  00000000  00000000  00069a10  2**0
                  CONTENTS, READONLY, DEBUGGING
SYMBOL TABLE:
00000000 l    d  .init	00000000 .init
00000038 l    d  .vector	00000000 .vector
00000140 l    d  .text	00000000 .text
0000e000 l    d  .fini	00000000 .fini
20000000 l    d  .dalign	00000000 .dalign
0000e000 l    d  .dlalign	00000000 .dlalign
20000000 l    d  .data	00000000 .data
200000f8 l    d  .bss	00000000 .bss
20004e00 l    d  .stack	00000000 .stack
00000000 l    d  .debug_info	00000000 .debug_info
00000000 l    d  .debug_abbrev	00000000 .debug_abbrev
00000000 l    d  .debug_loc	00000000 .debug_loc
00000000 l    d  .debug_aranges	00000000 .debug_aranges
00000000 l    d  .debug_ranges	00000000 .debug_ranges
00000000 l    d  .debug_line	00000000 .debug_line
00000000 l    d  .debug_str	00000000 .debug_str
00000000 l    d  .comment	00000000 .comment
00000000 l    d  .debug_frame	00000000 .debug_frame
00000000 l    d  .stab	00000000 .stab
00000000 l    d  .stabstr	00000000 .stabstr
00000000 l    df *ABS*	00000000 ./Startup/startup_ch32v20x_D6.o
00000038 l       .vector	00000000 _vector_base
00000000 l    df *ABS*	00000000 app_km.c
00000248 l     F .text	0000006c HUB_Port_PreEnum1.part.2
00000000 l    df *ABS*	00000000 ch32v20x_usbfs_host.c
00000e34 l     F .text	00000026 USBFSH_SetSelfSpeed.part.0
20000084 l     O .data	00000008 SetupClearEndpStall
2000008c l     O .data	00000008 SetupGetCfgDesc
20000094 l     O .data	00000008 SetupGetDevDesc
2000009c l     O .data	00000008 SetupGetStrDesc
200000a4 l     O .data	00000008 SetupSetAddr
200000ac l     O .data	00000008 SetupSetConfig
00000000 l    df *ABS*	00000000 usb_host_hid.c
200000b4 l     O .data	00000008 SetupGetHidDes
200000bc l     O .data	00000008 SetupSetReport
200000c4 l     O .data	00000008 SetupSetidle
00000000 l    df *ABS*	00000000 usb_host_hub.c
200000cc l     O .data	00000008 ClearPortFeature
200000d4 l     O .data	00000008 GetHubDescr
200000dc l     O .data	00000008 GetPortStatus
200000e4 l     O .data	00000008 SetPortFeature
00000000 l    df *ABS*	00000000 ch32v20x_it.c
00000000 l    df *ABS*	00000000 i8080.c
00001614 l     F .text	00003db8 i8080_execute
00008468 l     O .text	00000100 OPCODES_CYCLES
00000000 l    df *ABS*	00000000 main.c
00000000 l    df *ABS*	00000000 system_ch32v20x.c
00000000 l    df *ABS*	00000000 ch32v20x_dma.c
00000000 l    df *ABS*	00000000 ch32v20x_gpio.c
00000000 l    df *ABS*	00000000 ch32v20x_misc.c
00000000 l    df *ABS*	00000000 ch32v20x_rcc.c
20000000 l     O .data	00000010 APBAHBPrescTable
20000078 l     O .data	00000004 ADCPrescTable
00000000 l    df *ABS*	00000000 ch32v20x_spi.c
00000000 l    df *ABS*	00000000 ch32v20x_tim.c
00000000 l    df *ABS*	00000000 ch32v20x_usart.c
00000000 l    df *ABS*	00000000 debug.c
20000128 l     O .bss	00000002 p_ms
2000012a l     O .bss	00000001 p_us
2000007c l     O .data	00000004 curbrk.4579
00000000 l    df *ABS*	00000000 malloc.c
00000000 l    df *ABS*	00000000 memchr.c
00000000 l    df *ABS*	00000000 memcpy.c
00000000 l    df *ABS*	00000000 nano-mallocr.c
00000000 l    df *ABS*	00000000 nano-mallocr.c
00000000 l    df *ABS*	00000000 putchar.c
00000000 l    df *ABS*	00000000 sbrkr.c
00000000 l    df *ABS*	00000000 findfp.c
0000774a l     F .text	00000066 std
00000000 l    df *ABS*	00000000 fwalk.c
00000000 l    df *ABS*	00000000 mlock.c
00000000 l    df *ABS*	00000000 putc.c
00000000 l    df *ABS*	00000000 stdio.c
00000000 l    df *ABS*	00000000 wbuf.c
00000000 l    df *ABS*	00000000 writer.c
00000000 l    df *ABS*	00000000 wsetup.c
00000000 l    df *ABS*	00000000 closer.c
00000000 l    df *ABS*	00000000 fflush.c
00000000 l    df *ABS*	00000000 lseekr.c
00000000 l    df *ABS*	00000000 makebuf.c
00000000 l    df *ABS*	00000000 readr.c
00000000 l    df *ABS*	00000000 fstatr.c
00000000 l    df *ABS*	00000000 isattyr.c
00000000 l    df *ABS*	00000000 close.c
00000000 l    df *ABS*	00000000 fstat.c
00000000 l    df *ABS*	00000000 isatty.c
00000000 l    df *ABS*	00000000 lseek.c
00000000 l    df *ABS*	00000000 read.c
00000000 l    df *ABS*	00000000 impure.c
20000010 l     O .data	00000060 impure_data
00000000 l    df *ABS*	00000000 reent.c
00006a7e  w      .text	00000000 EXTI2_IRQHandler
000076f0 g     F .text	00000028 putchar
00007fe8 g     F .text	00000030 _isatty_r
200000ec g     O .data	00000008 tk80funckey
00007e66 g     F .text	00000034 _lseek_r
00006c46 g     F .text	00000016 DMA_Cmd
20000870 g       .data	00000000 __global_pointer$
00000148 g     F .text	00000028 .hidden __riscv_save_8
0000590e g     F .text	00000598 TIM1_CC_IRQHandler
00007a72 g     F .text	00000030 __sseek
00007802 g     F .text	0000006c __sinit
00007aa8 g     F .text	000000be __swbuf_r
00001612 g     F .text	00000002 HardFault_Handler
000077ba g     F .text	00000048 __sfmoreglue
0000797a g     F .text	00000002 __malloc_unlock
00001438 g     F .text	00000020 USBFSH_ClearEndpStall
00000bce g     F .text	0000002a HUB_CheckPortSpeed
00000194 g     F .text	0000000c .hidden __riscv_restore_3
00006a6a  w      .text	00000000 SysTick_Handler
00006d8e g     F .text	000000d4 NVIC_Init
0000149c g     F .text	00000036 USBFSH_SendEndpData
00006a70  w      .text	00000000 PVD_IRQHandler
000013d8 g     F .text	00000040 USBFSH_SetUsbAddress
000053f6 g     F .text	00000052 i8080_step
00000180 g     F .text	00000020 .hidden __riscv_restore_10
0000160e g     F .text	00000004 NMI_Handler
00006a80  w      .text	00000000 EXTI3_IRQHandler
00000148 g     F .text	00000028 .hidden __riscv_save_11
00000e5a g     F .text	00000072 USBFS_RCC_Init
00007398 g     F .text	0000000a USART_GetFlagStatus
00007fb6 g     F .text	00000032 _fstat_r
00001320 g     F .text	00000062 USBFSH_GetConfigDescr
20000808 g     O .bss	00000040 USBFS_RX_Buf
20004af0 g     O .bss	00000004 errno
200000f8 g       .bss	00000000 _sbss
00000200 g       *ABS*	00000000 __stack_size
00006c06 g     F .text	00000040 DMA_Init
20000548 g     O .bss	0000029e HostCtl
000003ca g     F .text	0000004a USBH_AnalyseType
00001418 g     F .text	00000020 USBFSH_SetUsbConfig
00006856 g     F .text	00000032 beep_init
00006c5c g     F .text	00000008 DMA_GetCurrDataCounter
0000623e g     F .text	0000052a usb_keyboard
00000194 g     F .text	0000000c .hidden __riscv_restore_2
000071de g     F .text	0000001a TIM_CtrlPWMOutputs
000074cc g     F .text	000000b2 memcpy
20000a88 g     O .bss	00000028 cpu
20000105 g     O .bss	00000001 kbmodify
000077b0 g     F .text	0000000a _cleanup_r
000014d2 g     F .text	0000002c HID_GetHidDesr
00006a7a  w      .text	00000000 EXTI0_IRQHandler
00006ab0  w      .text	00000000 I2C2_EV_IRQHandler
000071c4 g     F .text	0000001a TIM_Cmd
000014fe g     F .text	0000002a HID_SetReport
00007236 g     F .text	00000016 TIM_OC4PreloadConfig
20000074 g     O .data	00000004 SystemCoreClock
000074aa g     F .text	0000000a malloc
00007252 g     F .text	0000000c TIM_ClearFlag
00008028 g     F .text	00000010 _fstat
00000038 g       .init	00000000 _einit
00007276 g     F .text	0000000c TIM_ClearITPendingBit
00009360 g     O .text	00001000 bsfont_rom
00006f62 g     F .text	0000001e RCC_APB2PeriphClockCmd
00000140 g     F .text	00000030 .hidden __riscv_save_12
00006a92  w      .text	00000000 ADC1_2_IRQHandler
00006c64 g     F .text	00000108 GPIO_Init
00006a68  w      .text	00000000 Break_Point_Handler
00000180 g     F .text	00000020 .hidden __riscv_restore_11
20000124 g     O .bss	00000004 NVIC_Priority_Group
00006ab4  w      .text	00000000 SPI1_IRQHandler
00007364 g     F .text	00000018 USART_Cmd
00007718 g     F .text	00000032 _sbrk_r
00006a72  w      .text	00000000 TAMPER_IRQHandler
00000170 g     F .text	0000000c .hidden __riscv_save_1
00000bf8 g     F .text	000000d8 USBH_EnumHubPortDevice
00000194 g     F .text	0000000c .hidden __riscv_restore_0
00007094 g     F .text	000000ae TIM_OC3Init
00007f82 g     F .text	00000034 _read_r
00000156 g     F .text	0000001a .hidden __riscv_save_7
200000f8 g     O .bss	00000001 basicmode
00006f80 g     F .text	0000001e RCC_APB1PeriphClockCmd
00006a64  w      .text	00000000 Ecall_M_Mode_Handler
20004e00 g       .stack	00000000 _heap_end
20000534 g     O .bss	00000012 DevDesc_Buf
00008038 g     F .text	00000010 _isatty
000073cc g     F .text	0000003a Delay_Us
200000f4 g     O .data	00000004 _global_impure_ptr
0000018a g     F .text	00000016 .hidden __riscv_restore_5
00006f44 g     F .text	0000001e RCC_AHBPeriphClockCmd
00006a8a  w      .text	00000000 DMA1_Channel4_IRQHandler
00005ea6 g     F .text	00000398 usb_getkey
0000747e g     F .text	0000002c _sbrk
2000011c g     O .bss	00000004 tk80ppi
0000018a g     F .text	00000016 .hidden __riscv_restore_6
00006abc  w      .text	00000000 USART3_IRQHandler
00006a74  w      .text	00000000 RTC_IRQHandler
20004af4 g       .bss	00000000 _ebss
00001556 g     F .text	00000030 HUB_GetPortStatus
00006a90  w      .text	00000000 DMA1_Channel7_IRQHandler
00007228 g     F .text	0000000e TIM_OC3PreloadConfig
000008c8 g     F .text	00000098 KM_DealHidReportDesc
00006a98  w      .text	00000000 CAN1_RX1_IRQHandler
000073a2 g     F .text	0000002a Delay_Init
20000100 g     O .bss	00000004 cycle_count
000015ae g     F .text	00000028 HUB_SetPortFeature
0000de60 g     O .text	00000140 usbhidcode
0000797c g     F .text	00000082 _putc_r
00006aaa  w      .text	00000000 TIM4_IRQHandler
0000720c g     F .text	0000001c TIM_ARRPreloadConfig
00000148 g     F .text	00000028 .hidden __riscv_save_9
00006d6c g     F .text	0000001c GPIO_WriteBit
20000070 g     O .data	00000004 lastptr
2000010a g     O .bss	00000001 rxptr
0000dfa0 g     O .text	00000020 __sf_fake_stderr
00000156 g     F .text	0000001a .hidden __riscv_save_4
00006aac  w      .text	00000000 I2C1_EV_IRQHandler
0000725e g     F .text	00000018 TIM_GetITStatus
00006ac4  w      .text	00000000 USBHD_IRQHandler
200007e8 g     O .bss	0000001f RootHubDev
00000414 g     F .text	00000110 USBH_EnumRootDevice
00006e7c g     F .text	000000c8 RCC_GetClocksFreq
00006a8e  w      .text	00000000 DMA1_Channel6_IRQHandler
00006ac8  w      .text	00000000 UART4_IRQHandler
000074b4 g     F .text	00000018 memchr
00007282 g     F .text	000000e2 USART_Init
0000757e g     F .text	000000a4 _free_r
20000108 g     O .bss	00000002 ntsc_line
000002b4 g     F .text	00000116 TIM3_IRQHandler
00006a78  w      .text	00000000 RCC_IRQHandler
00000170 g     F .text	0000000c .hidden __riscv_save_3
00006aa2  w      .text	00000000 TIM1_TRG_COM_IRQHandler
0000075a g     F .text	0000016e KM_AnalyzeHidReportDesc
00006a84  w      .text	00000000 DMA1_Channel1_IRQHandler
00000000 g       .init	00000000 _start
00008048 g     F .text	00000010 _lseek
20000134 g     O .bss	00000400 Com_Buf
00006abe  w      .text	00000000 EXTI15_10_IRQHandler
000071f8 g     F .text	00000014 TIM_ITConfig
00000b0c g     F .text	0000001c HUB_Port_PreEnum1
00006768 g     F .text	0000008e USART_CFG
0000b360 g     O .text	00002000 l2basic_rom
00000d6c g     F .text	000000c8 USBH_EnumHidDevice
00006aca  w      .text	00000000 DMA1_Channel8_IRQHandler
20000107 g     O .bss	00000001 ntsc_blank
00007c9c g     F .text	00000030 _close_r
20000000 g       .dalign	00000000 _data_vma
00007142 g     F .text	00000082 TIM_OC4Init
20000888 g     O .bss	00000200 bsvram
20000120 g     O .bss	00000001 MCU_Version
00000f5a g     F .text	0000002e USBFSH_SetSelfSpeed
00007b9c g     F .text	00000100 __swsetup_r
00006a9c  w      .text	00000000 EXTI9_5_IRQHandler
0000786e g     F .text	000000a0 __sfp
00000148 g     F .text	00000028 .hidden __riscv_save_10
000079fe g     F .text	0000002c __sread
20000114 g     O .bss	00000001 stepflag
00007978 g     F .text	00000002 __malloc_lock
0000018a g     F .text	00000016 .hidden __riscv_restore_4
00000180 g     F .text	00000020 .hidden __riscv_restore_8
00007dfe g     F .text	00000068 _fflush_r
00000156 g     F .text	0000001a .hidden __riscv_save_6
00006ab6  w      .text	00000000 SPI2_IRQHandler
0000dfc0 g     O .text	00000020 __sf_fake_stdin
000001a0 g     F .text	000000a8 memset
000058b0 g     F .text	0000005e DMA_Tx_Init
00005612 g     F .text	000000ae memwrite
00000180 g     F .text	00000020 .hidden __riscv_restore_9
0000018a g     F .text	00000016 .hidden __riscv_restore_7
00006888 g     F .text	000000de main
200000f9 g     O .bss	00000001 breakflag
00007aa2 g     F .text	00000006 __sclose
00000fde g     F .text	00000050 USBFSH_EnableRootHubPort
2000010c g     O .bss	00000008 scandata
00007000 g     F .text	00000014 SPI_I2S_DMACmd
00007622 g     F .text	000000ce _malloc_r
00006a8c  w      .text	00000000 DMA1_Channel5_IRQHandler
00006e62 g     F .text	0000001a RCC_USBCLKConfig
00006a82  w      .text	00000000 EXTI4_IRQHandler
00007406 g     F .text	0000003a Delay_Ms
00006a96  w      .text	00000000 USB_LP_CAN1_RX0_IRQHandler
0000724c g     F .text	00000006 TIM_SetCompare4
200000fc g     O .bss	00000004 bsppi
20000118 g     O .bss	00000004 tk80keypad
00006fe4 g     F .text	0000001c SPI_Cmd
00001382 g     F .text	00000056 USBFSH_GetStrDescr
20000ab0 g     O .bss	00000040 rxbuff
00006966 g     F .text	000000fa SystemInit
000067f6 g     F .text	00000060 DMA_Rx_Init
00006a94  w      .text	00000000 USB_HP_CAN1_TX_IRQHandler
00000000 g       .init	00000000 _sinit
20000848 g     O .bss	00000040 USBFS_TX_Buf
00000524 g     F .text	00000236 KM_AnalyzeConfigDesc
00006ac6  w      .text	00000000 USBHDWakeUp_IRQHandler
00007b66 g     F .text	00000036 _write_r
00006a88  w      .text	00000000 DMA1_Channel3_IRQHandler
0000db60 g     O .text	00000300 tk80rom
20000080 g     O .data	00000004 _impure_ptr
20000115 g     O .bss	00000001 stepmode
00006aa0  w      .text	00000000 TIM1_UP_IRQHandler
00007ccc g     F .text	00000132 __sflush_r
000012dc g     F .text	00000044 USBFSH_GetDeviceDescr
20000104 g     O .bss	00000001 kbmode
00001458 g     F .text	00000044 USBFSH_GetEndpData
00006a6e  w      .text	00000000 WWDG_IRQHandler
00001586 g     F .text	00000028 HUB_ClearPortFeature
000053cc g     F .text	0000002a i8080_init
00006a66  w      .text	00000000 Ecall_U_Mode_Handler
00006aa6  w      .text	00000000 TIM2_IRQHandler
20005000 g       .stack	00000000 _eusrstack
00000170 g     F .text	0000000c .hidden __riscv_save_2
00006a6c  w      .text	00000000 SW_Handler
000015d6 g     F .text	00000038 HUB_GetClassDevDescr
0000549c g     F .text	00000176 memread
0000d360 g     O .text	00000800 tk80font
00000960 g     F .text	000000b8 HUB_AnalyzeConfigDesc
00006a9e  w      .text	00000000 TIM1_BRK_IRQHandler
00007e9a g     F .text	00000056 __swhatbuf_r
00007390 g     F .text	00000008 USART_SendData
00000f16 g     F .text	00000030 USBFSH_CheckRootHubPortStatus
00006a7c  w      .text	00000000 EXTI1_IRQHandler
00000156 g     F .text	0000001a .hidden __riscv_save_5
0000545a g     F .text	00000042 ioread
00007440 g     F .text	0000003e _write
00005448 g     F .text	00000012 i8080_interrupt
200000f8 g       .data	00000000 _edata
20004af4 g       .bss	00000000 _end
00007014 g     F .text	00000080 TIM_TimeBaseInit
00006ac0  w      .text	00000000 RTCAlarm_IRQHandler
00000b28 g     F .text	000000a6 HUB_Port_PreEnum2
0000e000 g       .dlalign	00000000 _data_lma
00000ecc g     F .text	0000004a USBFS_Host_Init
00001528 g     F .text	0000002e HID_SetIdle
00006aba  w      .text	00000000 USART2_IRQHandler
00007a2a g     F .text	00000048 __swrite
00000f88 g     F .text	00000056 USBFSH_ResetRootHubPort
0000790e g     F .text	0000006a _fwalk_reent
20000106 g     O .bss	00000001 lastkeycode
00006ab2  w      .text	00000000 I2C2_ER_IRQHandler
00000cd0 g     F .text	0000009c KB_SetReport
00006a86  w      .text	00000000 DMA1_Channel2_IRQHandler
0000dfe0 g     O .text	00000020 __sf_fake_stdout
0000017c g     F .text	00000024 .hidden __riscv_restore_12
20000af0 g     O .bss	00004000 tk80ram
00008058 g     F .text	00000010 _read
00006acc  w      .text	00000000 handle_reset
00006a9a  w      .text	00000000 CAN1_SCE_IRQHandler
00006a76  w      .text	00000000 FLASH_IRQHandler
00000170 g     F .text	0000000c .hidden __riscv_save_0
00000a18 g     F .text	000000f4 USBH_EnumHubDevice
00006ab8  w      .text	00000000 USART1_IRQHandler
00007ef0 g     F .text	00000092 __smakebuf_r
20000130 g     O .bss	00000004 __malloc_sbrk_start
00000f46 g     F .text	00000014 USBFSH_SetSelfAddr
00006aae  w      .text	00000000 I2C1_ER_IRQHandler
00006f9e g     F .text	00000046 SPI_Init
00006d88 g     F .text	00000006 NVIC_PriorityGroupConfig
0000102e g     F .text	00000100 USBFSH_Transact
00006b56 g     F .text	000000b0 DMA_DeInit
2000012c g     O .bss	00000004 __malloc_free_list
00000194 g     F .text	0000000c .hidden __riscv_restore_1
00005740 g     F .text	00000170 video_init
000056c0 g     F .text	00000080 iowrite
0000737c g     F .text	00000014 USART_DMACmd
00008568 g     O .text	00000df8 bsext_rom
0000a360 g     O .text	00001000 bsmonitor_rom
00006ac2  w      .text	00000000 USBWakeUp_IRQHandler
00008018 g     F .text	00000010 _close
0000112e g     F .text	000001ae USBFSH_CtrlTransfer



Disassembly of section .init:

00000000 <_sinit>:
   0:	2cd0606f          	j	6acc <handle_reset>
   4:	00000013          	nop
   8:	00000013          	nop
   c:	00000013          	nop
  10:	00000013          	nop
  14:	00000013          	nop
  18:	00000013          	nop
  1c:	00000013          	nop
  20:	00000013          	nop
  24:	00000013          	nop
  28:	00000013          	nop
  2c:	00000013          	nop
  30:	00000013          	nop
  34:	00100073          	ebreak

Disassembly of section .vector:

00000038 <_vector_base>:
	...
  40:	160e                	slli	a2,a2,0x23
  42:	0000                	unimp
  44:	1612                	slli	a2,a2,0x24
  46:	0000                	unimp
  48:	0000                	unimp
  4a:	0000                	unimp
  4c:	6a64                	flw	fs1,84(a2)
	...
  56:	0000                	unimp
  58:	6a66                	flw	fs4,88(sp)
  5a:	0000                	unimp
  5c:	6a68                	flw	fa0,84(a2)
	...
  66:	0000                	unimp
  68:	6a6a                	flw	fs4,152(sp)
  6a:	0000                	unimp
  6c:	0000                	unimp
  6e:	0000                	unimp
  70:	6a6c                	flw	fa1,84(a2)
  72:	0000                	unimp
  74:	0000                	unimp
  76:	0000                	unimp
  78:	6a6e                	flw	fs4,216(sp)
  7a:	0000                	unimp
  7c:	6a70                	flw	fa2,84(a2)
  7e:	0000                	unimp
  80:	6a72                	flw	fs4,28(sp)
  82:	0000                	unimp
  84:	6a74                	flw	fa3,84(a2)
  86:	0000                	unimp
  88:	6a76                	flw	fs4,92(sp)
  8a:	0000                	unimp
  8c:	6a78                	flw	fa4,84(a2)
  8e:	0000                	unimp
  90:	6a7a                	flw	fs4,156(sp)
  92:	0000                	unimp
  94:	6a7c                	flw	fa5,84(a2)
  96:	0000                	unimp
  98:	6a7e                	flw	fs4,220(sp)
  9a:	0000                	unimp
  9c:	6a80                	flw	fs0,16(a3)
  9e:	0000                	unimp
  a0:	6a82                	flw	fs5,0(sp)
  a2:	0000                	unimp
  a4:	6a84                	flw	fs1,16(a3)
  a6:	0000                	unimp
  a8:	6a86                	flw	fs5,64(sp)
  aa:	0000                	unimp
  ac:	6a88                	flw	fa0,16(a3)
  ae:	0000                	unimp
  b0:	6a8a                	flw	fs5,128(sp)
  b2:	0000                	unimp
  b4:	6a8c                	flw	fa1,16(a3)
  b6:	0000                	unimp
  b8:	6a8e                	flw	fs5,192(sp)
  ba:	0000                	unimp
  bc:	6a90                	flw	fa2,16(a3)
  be:	0000                	unimp
  c0:	6a92                	flw	fs5,4(sp)
  c2:	0000                	unimp
  c4:	6a94                	flw	fa3,16(a3)
  c6:	0000                	unimp
  c8:	6a96                	flw	fs5,68(sp)
  ca:	0000                	unimp
  cc:	6a98                	flw	fa4,16(a3)
  ce:	0000                	unimp
  d0:	6a9a                	flw	fs5,132(sp)
  d2:	0000                	unimp
  d4:	6a9c                	flw	fa5,16(a3)
  d6:	0000                	unimp
  d8:	6a9e                	flw	fs5,196(sp)
  da:	0000                	unimp
  dc:	6aa0                	flw	fs0,80(a3)
  de:	0000                	unimp
  e0:	6aa2                	flw	fs5,8(sp)
  e2:	0000                	unimp
  e4:	590e                	lw	s2,224(sp)
  e6:	0000                	unimp
  e8:	6aa6                	flw	fs5,72(sp)
  ea:	0000                	unimp
  ec:	02b4                	addi	a3,sp,328
  ee:	0000                	unimp
  f0:	6aaa                	flw	fs5,136(sp)
  f2:	0000                	unimp
  f4:	6aac                	flw	fa1,80(a3)
  f6:	0000                	unimp
  f8:	6aae                	flw	fs5,200(sp)
  fa:	0000                	unimp
  fc:	6ab0                	flw	fa2,80(a3)
  fe:	0000                	unimp
 100:	6ab2                	flw	fs5,12(sp)
 102:	0000                	unimp
 104:	6ab4                	flw	fa3,80(a3)
 106:	0000                	unimp
 108:	6ab6                	flw	fs5,76(sp)
 10a:	0000                	unimp
 10c:	6ab8                	flw	fa4,80(a3)
 10e:	0000                	unimp
 110:	6aba                	flw	fs5,140(sp)
 112:	0000                	unimp
 114:	6abc                	flw	fa5,80(a3)
 116:	0000                	unimp
 118:	6abe                	flw	fs5,204(sp)
 11a:	0000                	unimp
 11c:	6ac0                	flw	fs0,20(a3)
 11e:	0000                	unimp
 120:	6ac2                	flw	fs5,16(sp)
 122:	0000                	unimp
 124:	6ac4                	flw	fs1,20(a3)
 126:	0000                	unimp
 128:	6ac6                	flw	fs5,80(sp)
 12a:	0000                	unimp
 12c:	6ac8                	flw	fa0,20(a3)
 12e:	0000                	unimp
 130:	6aca                	flw	fs5,144(sp)
	...

Disassembly of section .text:

00000140 <__riscv_save_12>:
     140:	7139                	addi	sp,sp,-64
     142:	4301                	li	t1,0
     144:	c66e                	sw	s11,12(sp)
     146:	a019                	j	14c <__riscv_save_10+0x4>

00000148 <__riscv_save_10>:
     148:	7139                	addi	sp,sp,-64
     14a:	5341                	li	t1,-16
     14c:	c86a                	sw	s10,16(sp)
     14e:	ca66                	sw	s9,20(sp)
     150:	cc62                	sw	s8,24(sp)
     152:	ce5e                	sw	s7,28(sp)
     154:	a019                	j	15a <__riscv_save_4+0x4>

00000156 <__riscv_save_4>:
     156:	7139                	addi	sp,sp,-64
     158:	5301                	li	t1,-32
     15a:	d05a                	sw	s6,32(sp)
     15c:	d256                	sw	s5,36(sp)
     15e:	d452                	sw	s4,40(sp)
     160:	d64e                	sw	s3,44(sp)
     162:	d84a                	sw	s2,48(sp)
     164:	da26                	sw	s1,52(sp)
     166:	dc22                	sw	s0,56(sp)
     168:	de06                	sw	ra,60(sp)
     16a:	40610133          	sub	sp,sp,t1
     16e:	8282                	jr	t0

00000170 <__riscv_save_0>:
     170:	1141                	addi	sp,sp,-16
     172:	c04a                	sw	s2,0(sp)
     174:	c226                	sw	s1,4(sp)
     176:	c422                	sw	s0,8(sp)
     178:	c606                	sw	ra,12(sp)
     17a:	8282                	jr	t0

0000017c <__riscv_restore_12>:
     17c:	4db2                	lw	s11,12(sp)
     17e:	0141                	addi	sp,sp,16

00000180 <__riscv_restore_10>:
     180:	4d02                	lw	s10,0(sp)
     182:	4c92                	lw	s9,4(sp)
     184:	4c22                	lw	s8,8(sp)
     186:	4bb2                	lw	s7,12(sp)
     188:	0141                	addi	sp,sp,16

0000018a <__riscv_restore_4>:
     18a:	4b02                	lw	s6,0(sp)
     18c:	4a92                	lw	s5,4(sp)
     18e:	4a22                	lw	s4,8(sp)
     190:	49b2                	lw	s3,12(sp)
     192:	0141                	addi	sp,sp,16

00000194 <__riscv_restore_0>:
     194:	4902                	lw	s2,0(sp)
     196:	4492                	lw	s1,4(sp)
     198:	4422                	lw	s0,8(sp)
     19a:	40b2                	lw	ra,12(sp)
     19c:	0141                	addi	sp,sp,16
     19e:	8082                	ret

000001a0 <memset>:
     1a0:	433d                	li	t1,15
     1a2:	872a                	mv	a4,a0
     1a4:	02c37363          	bgeu	t1,a2,1ca <memset+0x2a>
     1a8:	00f77793          	andi	a5,a4,15
     1ac:	efbd                	bnez	a5,22a <__stack_size+0x2a>
     1ae:	e5ad                	bnez	a1,218 <__stack_size+0x18>
     1b0:	ff067693          	andi	a3,a2,-16
     1b4:	8a3d                	andi	a2,a2,15
     1b6:	96ba                	add	a3,a3,a4
     1b8:	c30c                	sw	a1,0(a4)
     1ba:	c34c                	sw	a1,4(a4)
     1bc:	c70c                	sw	a1,8(a4)
     1be:	c74c                	sw	a1,12(a4)
     1c0:	0741                	addi	a4,a4,16
     1c2:	fed76be3          	bltu	a4,a3,1b8 <memset+0x18>
     1c6:	e211                	bnez	a2,1ca <memset+0x2a>
     1c8:	8082                	ret
     1ca:	40c306b3          	sub	a3,t1,a2
     1ce:	068a                	slli	a3,a3,0x2
     1d0:	00000297          	auipc	t0,0x0
     1d4:	9696                	add	a3,a3,t0
     1d6:	00a68067          	jr	10(a3)
     1da:	00b70723          	sb	a1,14(a4)
     1de:	00b706a3          	sb	a1,13(a4)
     1e2:	00b70623          	sb	a1,12(a4)
     1e6:	00b705a3          	sb	a1,11(a4)
     1ea:	00b70523          	sb	a1,10(a4)
     1ee:	00b704a3          	sb	a1,9(a4)
     1f2:	00b70423          	sb	a1,8(a4)
     1f6:	00b703a3          	sb	a1,7(a4)
     1fa:	00b70323          	sb	a1,6(a4)
     1fe:	00b702a3          	sb	a1,5(a4)
     202:	00b70223          	sb	a1,4(a4)
     206:	00b701a3          	sb	a1,3(a4)
     20a:	00b70123          	sb	a1,2(a4)
     20e:	00b700a3          	sb	a1,1(a4)
     212:	00b70023          	sb	a1,0(a4)
     216:	8082                	ret
     218:	0ff5f593          	andi	a1,a1,255
     21c:	00859693          	slli	a3,a1,0x8
     220:	8dd5                	or	a1,a1,a3
     222:	01059693          	slli	a3,a1,0x10
     226:	8dd5                	or	a1,a1,a3
     228:	b761                	j	1b0 <memset+0x10>
     22a:	00279693          	slli	a3,a5,0x2
     22e:	00000297          	auipc	t0,0x0
     232:	9696                	add	a3,a3,t0
     234:	8286                	mv	t0,ra
     236:	fa8680e7          	jalr	-88(a3)
     23a:	8096                	mv	ra,t0
     23c:	17c1                	addi	a5,a5,-16
     23e:	8f1d                	sub	a4,a4,a5
     240:	963e                	add	a2,a2,a5
     242:	f8c374e3          	bgeu	t1,a2,1ca <memset+0x2a>
     246:	b7a5                	j	1ae <memset+0xe>

00000248 <HUB_Port_PreEnum1.part.2>:
     248:	f0fff2ef          	jal	t0,156 <__riscv_save_4>
     24c:	f7818493          	addi	s1,gp,-136 # 200007e8 <RootHubDev>
     250:	892a                	mv	s2,a0
     252:	20c8                	lbu	a0,4(s1)
     254:	1141                	addi	sp,sp,-16
     256:	0070                	addi	a2,sp,12
     258:	85ca                	mv	a1,s2
     25a:	2fc010ef          	jal	ra,1556 <HUB_GetPortStatus>
     25e:	842a                	mv	s0,a0
     260:	e511                	bnez	a0,26c <HUB_Port_PreEnum1.part.2+0x24>
     262:	871c                	lbu	a5,14(sp)
     264:	8b85                	andi	a5,a5,1
     266:	e791                	bnez	a5,272 <HUB_Port_PreEnum1.part.2+0x2a>
     268:	0fe00413          	li	s0,254
     26c:	8522                	mv	a0,s0
     26e:	0141                	addi	sp,sp,16
     270:	bf29                	j	18a <__riscv_restore_4>
     272:	20c8                	lbu	a0,4(s1)
     274:	4641                	li	a2,16
     276:	85ca                	mv	a1,s2
     278:	30e010ef          	jal	ra,1586 <HUB_ClearPortFeature>
     27c:	842a                	mv	s0,a0
     27e:	f57d                	bnez	a0,26c <HUB_Port_PreEnum1.part.2+0x24>
     280:	49a9                	li	s3,10
     282:	20c8                	lbu	a0,4(s1)
     284:	0070                	addi	a2,sp,12
     286:	85ca                	mv	a1,s2
     288:	2ce010ef          	jal	ra,1556 <HUB_GetPortStatus>
     28c:	0405                	addi	s0,s0,1
     28e:	e10d                	bnez	a0,2b0 <HUB_Port_PreEnum1.part.2+0x68>
     290:	871c                	lbu	a5,14(sp)
     292:	0ff47413          	andi	s0,s0,255
     296:	8b85                	andi	a5,a5,1
     298:	c781                	beqz	a5,2a0 <HUB_Port_PreEnum1.part.2+0x58>
     29a:	ff3414e3          	bne	s0,s3,282 <HUB_Port_PreEnum1.part.2+0x3a>
     29e:	b7e9                	j	268 <HUB_Port_PreEnum1.part.2+0x20>
     2a0:	47a9                	li	a5,10
     2a2:	fcf403e3          	beq	s0,a5,268 <HUB_Port_PreEnum1.part.2+0x20>
     2a6:	861c                	lbu	a5,12(sp)
     2a8:	4459                	li	s0,22
     2aa:	8b85                	andi	a5,a5,1
     2ac:	ffd5                	bnez	a5,268 <HUB_Port_PreEnum1.part.2+0x20>
     2ae:	bf7d                	j	26c <HUB_Port_PreEnum1.part.2+0x24>
     2b0:	842a                	mv	s0,a0
     2b2:	bf6d                	j	26c <HUB_Port_PreEnum1.part.2+0x24>

000002b4 <TIM3_IRQHandler>:
     2b4:	1141                	addi	sp,sp,-16
     2b6:	c622                	sw	s0,12(sp)
     2b8:	40000437          	lui	s0,0x40000
     2bc:	4585                	li	a1,1
     2be:	40040513          	addi	a0,s0,1024 # 40000400 <_eusrstack+0x1fffb400>
     2c2:	79d060ef          	jal	ra,725e <TIM_GetITStatus>
     2c6:	e509                	bnez	a0,2d0 <TIM3_IRQHandler+0x1c>
     2c8:	4432                	lw	s0,12(sp)
     2ca:	0141                	addi	sp,sp,16
     2cc:	30200073          	mret
     2d0:	4585                	li	a1,1
     2d2:	40040513          	addi	a0,s0,1024
     2d6:	7a1060ef          	jal	ra,7276 <TIM_ClearITPendingBit>
     2da:	f7818793          	addi	a5,gp,-136 # 200007e8 <RootHubDev>
     2de:	2394                	lbu	a3,0(a5)
     2e0:	4709                	li	a4,2
     2e2:	fed773e3          	bgeu	a4,a3,2c8 <TIM3_IRQHandler+0x14>
     2e6:	3394                	lbu	a3,1(a5)
     2e8:	460d                	li	a2,3
     2ea:	33d8                	lbu	a4,5(a5)
     2ec:	08c68c63          	beq	a3,a2,384 <TIM3_IRQHandler+0xd0>
     2f0:	4625                	li	a2,9
     2f2:	fcc69be3          	bne	a3,a2,2c8 <TIM3_IRQHandler+0x14>
     2f6:	08600693          	li	a3,134
     2fa:	02d70733          	mul	a4,a4,a3
     2fe:	cd818f93          	addi	t6,gp,-808 # 20000548 <HostCtl>
     302:	0067c303          	lbu	t1,6(a5)
     306:	00ef87b3          	add	a5,t6,a4
     30a:	0227c703          	lbu	a4,34(a5)
     30e:	0705                	addi	a4,a4,1
     310:	02e78123          	sb	a4,34(a5)
     314:	fa030ae3          	beqz	t1,2c8 <TIM3_IRQHandler+0x14>
     318:	f7818593          	addi	a1,gp,-136 # 200007e8 <RootHubDev>
     31c:	4501                	li	a0,0
     31e:	4e09                	li	t3,2
     320:	4f0d                	li	t5,3
     322:	08600293          	li	t0,134
     326:	a039                	j	334 <TIM3_IRQHandler+0x80>
     328:	0505                	addi	a0,a0,1
     32a:	0ff57513          	andi	a0,a0,255
     32e:	0599                	addi	a1,a1,6
     330:	f8650ce3          	beq	a0,t1,2c8 <TIM3_IRQHandler+0x14>
     334:	31fc                	lbu	a5,7(a1)
     336:	fefe79e3          	bgeu	t3,a5,328 <TIM3_IRQHandler+0x74>
     33a:	259c                	lbu	a5,8(a1)
     33c:	ffe796e3          	bne	a5,t5,328 <TIM3_IRQHandler+0x74>
     340:	00c5c883          	lbu	a7,12(a1)
     344:	025888b3          	mul	a7,a7,t0
     348:	98fe                	add	a7,a7,t6
     34a:	0008ce83          	lbu	t4,0(a7)
     34e:	fc0e8de3          	beqz	t4,328 <TIM3_IRQHandler+0x74>
     352:	4801                	li	a6,0
     354:	0088c603          	lbu	a2,8(a7)
     358:	8746                	mv	a4,a7
     35a:	4781                	li	a5,0
     35c:	ce01                	beqz	a2,374 <TIM3_IRQHandler+0xc0>
     35e:	02274683          	lbu	a3,34(a4)
     362:	0785                	addi	a5,a5,1
     364:	0ff7f793          	andi	a5,a5,255
     368:	0685                	addi	a3,a3,1
     36a:	02d70123          	sb	a3,34(a4)
     36e:	0705                	addi	a4,a4,1
     370:	fec797e3          	bne	a5,a2,35e <TIM3_IRQHandler+0xaa>
     374:	0805                	addi	a6,a6,1
     376:	0ff87813          	andi	a6,a6,255
     37a:	04288893          	addi	a7,a7,66
     37e:	fdd81be3          	bne	a6,t4,354 <TIM3_IRQHandler+0xa0>
     382:	b75d                	j	328 <TIM3_IRQHandler+0x74>
     384:	08600513          	li	a0,134
     388:	02a70733          	mul	a4,a4,a0
     38c:	cd818513          	addi	a0,gp,-808 # 20000548 <HostCtl>
     390:	953a                	add	a0,a0,a4
     392:	00054803          	lbu	a6,0(a0)
     396:	f20809e3          	beqz	a6,2c8 <TIM3_IRQHandler+0x14>
     39a:	4581                	li	a1,0
     39c:	2510                	lbu	a2,8(a0)
     39e:	872a                	mv	a4,a0
     3a0:	4781                	li	a5,0
     3a2:	ce01                	beqz	a2,3ba <TIM3_IRQHandler+0x106>
     3a4:	02274683          	lbu	a3,34(a4)
     3a8:	0785                	addi	a5,a5,1
     3aa:	0ff7f793          	andi	a5,a5,255
     3ae:	0685                	addi	a3,a3,1
     3b0:	02d70123          	sb	a3,34(a4)
     3b4:	0705                	addi	a4,a4,1
     3b6:	fec797e3          	bne	a5,a2,3a4 <TIM3_IRQHandler+0xf0>
     3ba:	0585                	addi	a1,a1,1
     3bc:	0ff5f593          	andi	a1,a1,255
     3c0:	04250513          	addi	a0,a0,66
     3c4:	fd059ce3          	bne	a1,a6,39c <TIM3_IRQHandler+0xe8>
     3c8:	b701                	j	2c8 <TIM3_IRQHandler+0x14>

000003ca <USBH_AnalyseType>:
     3ca:	215c                	lbu	a5,4(a0)
     3cc:	4721                	li	a4,8
     3ce:	02e78763          	beq	a5,a4,3fc <USBH_AnalyseType+0x32>
     3d2:	25f4                	lbu	a3,14(a1)
     3d4:	02e68463          	beq	a3,a4,3fc <USBH_AnalyseType+0x32>
     3d8:	471d                	li	a4,7
     3da:	02e78463          	beq	a5,a4,402 <USBH_AnalyseType+0x38>
     3de:	02e68263          	beq	a3,a4,402 <USBH_AnalyseType+0x38>
     3e2:	470d                	li	a4,3
     3e4:	02e78263          	beq	a5,a4,408 <USBH_AnalyseType+0x3e>
     3e8:	02e68063          	beq	a3,a4,408 <USBH_AnalyseType+0x3e>
     3ec:	4725                	li	a4,9
     3ee:	02e78063          	beq	a5,a4,40e <USBH_AnalyseType+0x44>
     3f2:	00e68e63          	beq	a3,a4,40e <USBH_AnalyseType+0x44>
     3f6:	57fd                	li	a5,-1
     3f8:	a21c                	sb	a5,0(a2)
     3fa:	8082                	ret
     3fc:	47a1                	li	a5,8
     3fe:	a21c                	sb	a5,0(a2)
     400:	8082                	ret
     402:	479d                	li	a5,7
     404:	a21c                	sb	a5,0(a2)
     406:	8082                	ret
     408:	478d                	li	a5,3
     40a:	a21c                	sb	a5,0(a2)
     40c:	8082                	ret
     40e:	47a5                	li	a5,9
     410:	a21c                	sb	a5,0(a2)
     412:	8082                	ret

00000414 <USBH_EnumRootDevice>:
     414:	d35ff2ef          	jal	t0,148 <__riscv_save_10>
     418:	f7818b93          	addi	s7,gp,-136 # 200007e8 <RootHubDev>
     41c:	1141                	addi	sp,sp,-16
     41e:	4a01                	li	s4,0
     420:	f7b18913          	addi	s2,gp,-133 # 200007eb <RootHubDev+0x3>
     424:	4999                	li	s3,6
     426:	004b8c13          	addi	s8,s7,4
     42a:	8c418c93          	addi	s9,gp,-1852 # 20000134 <Com_Buf>
     42e:	001b8d13          	addi	s10,s7,1
     432:	06400513          	li	a0,100
     436:	7d1060ef          	jal	ra,7406 <Delay_Ms>
     43a:	0a05                	addi	s4,s4,1
     43c:	0ffa7a13          	andi	s4,s4,255
     440:	4521                	li	a0,8
     442:	01451533          	sll	a0,a0,s4
     446:	7c1060ef          	jal	ra,7406 <Delay_Ms>
     44a:	4501                	li	a0,0
     44c:	33d000ef          	jal	ra,f88 <USBFSH_ResetRootHubPort>
     450:	4481                	li	s1,0
     452:	4401                	li	s0,0
     454:	06400a93          	li	s5,100
     458:	854a                	mv	a0,s2
     45a:	385000ef          	jal	ra,fde <USBFSH_EnableRootHubPort>
     45e:	00140793          	addi	a5,s0,1
     462:	ed19                	bnez	a0,480 <USBH_EnumRootDevice+0x6c>
     464:	0ff7f413          	andi	s0,a5,255
     468:	4505                	li	a0,1
     46a:	0289e963          	bltu	s3,s0,49c <USBH_EnumRootDevice+0x88>
     46e:	799060ef          	jal	ra,7406 <Delay_Ms>
     472:	854a                	mv	a0,s2
     474:	36b000ef          	jal	ra,fde <USBFSH_EnableRootHubPort>
     478:	4485                	li	s1,1
     47a:	00140793          	addi	a5,s0,1
     47e:	d17d                	beqz	a0,464 <USBH_EnumRootDevice+0x50>
     480:	0485                	addi	s1,s1,1
     482:	04c2                	slli	s1,s1,0x10
     484:	4505                	li	a0,1
     486:	80c1                	srli	s1,s1,0x10
     488:	77f060ef          	jal	ra,7406 <Delay_Ms>
     48c:	fd5496e3          	bne	s1,s5,458 <USBH_EnumRootDevice+0x44>
     490:	4795                	li	a5,5
     492:	fb47f0e3          	bgeu	a5,s4,432 <USBH_EnumRootDevice+0x1e>
     496:	4559                	li	a0,22
     498:	0141                	addi	sp,sp,16
     49a:	b1dd                	j	180 <__riscv_restore_10>
     49c:	cc418593          	addi	a1,gp,-828 # 20000534 <DevDesc_Buf>
     4a0:	8562                	mv	a0,s8
     4a2:	63b000ef          	jal	ra,12dc <USBFSH_GetDeviceDescr>
     4a6:	c901                	beqz	a0,4b6 <USBH_EnumRootDevice+0xa2>
     4a8:	4795                	li	a5,5
     4aa:	f947f4e3          	bgeu	a5,s4,432 <USBH_EnumRootDevice+0x1e>
     4ae:	04500513          	li	a0,69
     4b2:	0141                	addi	sp,sp,16
     4b4:	b1f1                	j	180 <__riscv_restore_10>
     4b6:	004bc503          	lbu	a0,4(s7)
     4ba:	4409                	li	s0,2
     4bc:	4589                	li	a1,2
     4be:	008b8123          	sb	s0,2(s7)
     4c2:	717000ef          	jal	ra,13d8 <USBFSH_SetUsbAddress>
     4c6:	c519                	beqz	a0,4d4 <USBH_EnumRootDevice+0xc0>
     4c8:	4795                	li	a5,5
     4ca:	f747f4e3          	bgeu	a5,s4,432 <USBH_EnumRootDevice+0x1e>
     4ce:	04600513          	li	a0,70
     4d2:	b7d9                	j	498 <USBH_EnumRootDevice+0x84>
     4d4:	4515                	li	a0,5
     4d6:	008b8123          	sb	s0,2(s7)
     4da:	72d060ef          	jal	ra,7406 <Delay_Ms>
     4de:	004bc503          	lbu	a0,4(s7)
     4e2:	00e10693          	addi	a3,sp,14
     4e6:	40000613          	li	a2,1024
     4ea:	85e6                	mv	a1,s9
     4ec:	635000ef          	jal	ra,1320 <USBFSH_GetConfigDescr>
     4f0:	c519                	beqz	a0,4fe <USBH_EnumRootDevice+0xea>
     4f2:	4795                	li	a5,5
     4f4:	f347ffe3          	bgeu	a5,s4,432 <USBH_EnumRootDevice+0x1e>
     4f8:	04700513          	li	a0,71
     4fc:	bf71                	j	498 <USBH_EnumRootDevice+0x84>
     4fe:	cc418513          	addi	a0,gp,-828 # 20000534 <DevDesc_Buf>
     502:	85e6                	mv	a1,s9
     504:	866a                	mv	a2,s10
     506:	005cc403          	lbu	s0,5(s9)
     50a:	35c1                	jal	3ca <USBH_AnalyseType>
     50c:	004bc503          	lbu	a0,4(s7)
     510:	85a2                	mv	a1,s0
     512:	707000ef          	jal	ra,1418 <USBFSH_SetUsbConfig>
     516:	d149                	beqz	a0,498 <USBH_EnumRootDevice+0x84>
     518:	4795                	li	a5,5
     51a:	f147fce3          	bgeu	a5,s4,432 <USBH_EnumRootDevice+0x1e>
     51e:	0fb00513          	li	a0,251
     522:	bf9d                	j	498 <USBH_EnumRootDevice+0x84>

00000524 <KM_AnalyzeConfigDesc>:
     524:	c1dff2ef          	jal	t0,140 <__riscv_save_12>
     528:	08600993          	li	s3,134
     52c:	033509b3          	mul	s3,a0,s3
     530:	8c418413          	addi	s0,gp,-1852 # 20000134 <Com_Buf>
     534:	3038                	lbu	a4,3(s0)
     536:	00451613          	slli	a2,a0,0x4
     53a:	962a                	add	a2,a2,a0
     53c:	2034                	lbu	a3,2(s0)
     53e:	1141                	addi	sp,sp,-16
     540:	cd818913          	addi	s2,gp,-808 # 20000548 <HostCtl>
     544:	060a                	slli	a2,a2,0x2
     546:	8daa                	mv	s11,a0
     548:	c42e                	sw	a1,8(sp)
     54a:	4481                	li	s1,0
     54c:	4781                	li	a5,0
     54e:	0722                	slli	a4,a4,0x8
     550:	c232                	sw	a2,4(sp)
     552:	01390a33          	add	s4,s2,s3
     556:	00d70633          	add	a2,a4,a3
     55a:	02c7d363          	bge	a5,a2,580 <KM_AnalyzeConfigDesc+0x5c>
     55e:	00f40633          	add	a2,s0,a5
     562:	320c                	lbu	a1,1(a2)
     564:	4509                	li	a0,2
     566:	02a58063          	beq	a1,a0,586 <KM_AnalyzeConfigDesc+0x62>
     56a:	4811                	li	a6,4
     56c:	03058963          	beq	a1,a6,59e <KM_AnalyzeConfigDesc+0x7a>
     570:	2210                	lbu	a2,0(a2)
     572:	97b2                	add	a5,a5,a2
     574:	07c2                	slli	a5,a5,0x10
     576:	83c1                	srli	a5,a5,0x10
     578:	00d70633          	add	a2,a4,a3
     57c:	fec7c1e3          	blt	a5,a2,55e <KM_AnalyzeConfigDesc+0x3a>
     580:	4501                	li	a0,0
     582:	0141                	addi	sp,sp,16
     584:	bee5                	j	17c <__riscv_restore_12>
     586:	2250                	lbu	a2,4(a2)
     588:	04c5f963          	bgeu	a1,a2,5da <KM_AnalyzeConfigDesc+0xb6>
     58c:	00ba0023          	sb	a1,0(s4)
     590:	00f40633          	add	a2,s0,a5
     594:	2210                	lbu	a2,0(a2)
     596:	97b2                	add	a5,a5,a2
     598:	07c2                	slli	a5,a5,0x10
     59a:	83c1                	srli	a5,a5,0x10
     59c:	bf6d                	j	556 <KM_AnalyzeConfigDesc+0x32>
     59e:	fea481e3          	beq	s1,a0,580 <KM_AnalyzeConfigDesc+0x5c>
     5a2:	00564803          	lbu	a6,5(a2)
     5a6:	458d                	li	a1,3
     5a8:	18b81863          	bne	a6,a1,738 <KM_AnalyzeConfigDesc+0x214>
     5ac:	00664803          	lbu	a6,6(a2)
     5b0:	4585                	li	a1,1
     5b2:	0305f763          	bgeu	a1,a6,5e0 <KM_AnalyzeConfigDesc+0xbc>
     5b6:	00f405b3          	add	a1,s0,a5
     5ba:	218c                	lbu	a1,0(a1)
     5bc:	00549613          	slli	a2,s1,0x5
     5c0:	9626                	add	a2,a2,s1
     5c2:	0606                	slli	a2,a2,0x1
     5c4:	97ae                	add	a5,a5,a1
     5c6:	964e                	add	a2,a2,s3
     5c8:	964a                	add	a2,a2,s2
     5ca:	55fd                	li	a1,-1
     5cc:	07c2                	slli	a5,a5,0x10
     5ce:	a22c                	sb	a1,2(a2)
     5d0:	83c1                	srli	a5,a5,0x10
     5d2:	0485                	addi	s1,s1,1
     5d4:	0ff4f493          	andi	s1,s1,255
     5d8:	bfbd                	j	556 <KM_AnalyzeConfigDesc+0x32>
     5da:	00ca0023          	sb	a2,0(s4)
     5de:	bf4d                	j	590 <KM_AnalyzeConfigDesc+0x6c>
     5e0:	00764803          	lbu	a6,7(a2)
     5e4:	fd0569e3          	bltu	a0,a6,5b6 <KM_AnalyzeConfigDesc+0x92>
     5e8:	12b80463          	beq	a6,a1,710 <KM_AnalyzeConfigDesc+0x1ec>
     5ec:	12a80263          	beq	a6,a0,710 <KM_AnalyzeConfigDesc+0x1ec>
     5f0:	00f40633          	add	a2,s0,a5
     5f4:	220c                	lbu	a1,0(a2)
     5f6:	00549e93          	slli	t4,s1,0x5
     5fa:	009e8633          	add	a2,t4,s1
     5fe:	97ae                	add	a5,a5,a1
     600:	4592                	lw	a1,4(sp)
     602:	00161893          	slli	a7,a2,0x1
     606:	98ce                	add	a7,a7,s3
     608:	41b58eb3          	sub	t4,a1,s11
     60c:	07c2                	slli	a5,a5,0x10
     60e:	01069293          	slli	t0,a3,0x10
     612:	83c1                	srli	a5,a5,0x10
     614:	0102d293          	srli	t0,t0,0x10
     618:	4e01                	li	t3,0
     61a:	4f01                	li	t5,0
     61c:	4f91                	li	t6,4
     61e:	4395                	li	t2,5
     620:	02100d13          	li	s10,33
     624:	98ca                	add	a7,a7,s2
     626:	9eb2                	add	t4,t4,a2
     628:	c626                	sw	s1,12(sp)
     62a:	00f40633          	add	a2,s0,a5
     62e:	320c                	lbu	a1,1(a2)
     630:	03f58863          	beq	a1,t6,660 <KM_AnalyzeConfigDesc+0x13c>
     634:	0257f663          	bgeu	a5,t0,660 <KM_AnalyzeConfigDesc+0x13c>
     638:	2208                	lbu	a0,0(a2)
     63a:	97aa                	add	a5,a5,a0
     63c:	07c2                	slli	a5,a5,0x10
     63e:	83c1                	srli	a5,a5,0x10
     640:	04758163          	beq	a1,t2,682 <KM_AnalyzeConfigDesc+0x15e>
     644:	ffa593e3          	bne	a1,s10,62a <KM_AnalyzeConfigDesc+0x106>
     648:	260c                	lbu	a1,8(a2)
     64a:	3268                	lbu	a0,7(a2)
     64c:	00859613          	slli	a2,a1,0x8
     650:	8e49                	or	a2,a2,a0
     652:	00c89223          	sh	a2,4(a7)
     656:	00f40633          	add	a2,s0,a5
     65a:	320c                	lbu	a1,1(a2)
     65c:	fdf59ce3          	bne	a1,t6,634 <KM_AnalyzeConfigDesc+0x110>
     660:	4605                	li	a2,1
     662:	44b2                	lw	s1,12(sp)
     664:	f6ce17e3          	bne	t3,a2,5d2 <KM_AnalyzeConfigDesc+0xae>
     668:	00549613          	slli	a2,s1,0x5
     66c:	9626                	add	a2,a2,s1
     66e:	0606                	slli	a2,a2,0x1
     670:	964e                	add	a2,a2,s3
     672:	964a                	add	a2,a2,s2
     674:	222c                	lbu	a1,2(a2)
     676:	f5c59ee3          	bne	a1,t3,5d2 <KM_AnalyzeConfigDesc+0xae>
     67a:	55fd                	li	a1,-1
     67c:	04b60023          	sb	a1,64(a2)
     680:	bf89                	j	5d2 <KM_AnalyzeConfigDesc+0xae>
     682:	00564803          	lbu	a6,5(a2)
     686:	00264303          	lbu	t1,2(a2)
     68a:	2244                	lbu	s1,4(a2)
     68c:	01ce85b3          	add	a1,t4,t3
     690:	01ee8533          	add	a0,t4,t5
     694:	0822                	slli	a6,a6,0x8
     696:	9826                	add	a6,a6,s1
     698:	01831b13          	slli	s6,t1,0x18
     69c:	05c1                	addi	a1,a1,16
     69e:	0521                	addi	a0,a0,8
     6a0:	0586                	slli	a1,a1,0x1
     6a2:	0506                	slli	a0,a0,0x1
     6a4:	0842                	slli	a6,a6,0x10
     6a6:	418b5b13          	srai	s6,s6,0x18
     6aa:	01c88ab3          	add	s5,a7,t3
     6ae:	95ca                	add	a1,a1,s2
     6b0:	001e0c13          	addi	s8,t3,1
     6b4:	01e884b3          	add	s1,a7,t5
     6b8:	954a                	add	a0,a0,s2
     6ba:	001f0c93          	addi	s9,t5,1
     6be:	00f37313          	andi	t1,t1,15
     6c2:	00364b83          	lbu	s7,3(a2)
     6c6:	01085813          	srli	a6,a6,0x10
     6ca:	020b4063          	bltz	s6,6ea <KM_AnalyzeConfigDesc+0x1c6>
     6ce:	0268c603          	lbu	a2,38(a7)
     6d2:	026a83a3          	sb	t1,39(s5)
     6d6:	037a85a3          	sb	s7,43(s5)
     6da:	0605                	addi	a2,a2,1
     6dc:	01059823          	sh	a6,16(a1)
     6e0:	02c88323          	sb	a2,38(a7)
     6e4:	0ffc7e13          	andi	t3,s8,255
     6e8:	b789                	j	62a <KM_AnalyzeConfigDesc+0x106>
     6ea:	0088c583          	lbu	a1,8(a7)
     6ee:	00664f03          	lbu	t5,6(a2)
     6f2:	006484a3          	sb	t1,9(s1)
     6f6:	00158613          	addi	a2,a1,1
     6fa:	01e48f23          	sb	t5,30(s1)
     6fe:	017486a3          	sb	s7,13(s1)
     702:	01051123          	sh	a6,2(a0)
     706:	00c88423          	sb	a2,8(a7)
     70a:	0ffcff13          	andi	t5,s9,255
     70e:	bf31                	j	62a <KM_AnalyzeConfigDesc+0x106>
     710:	00549713          	slli	a4,s1,0x5
     714:	9726                	add	a4,a4,s1
     716:	0706                	slli	a4,a4,0x1
     718:	4522                	lw	a0,8(sp)
     71a:	974e                	add	a4,a4,s3
     71c:	c63e                	sw	a5,12(sp)
     71e:	974a                	add	a4,a4,s2
     720:	4681                	li	a3,0
     722:	01070123          	sb	a6,2(a4)
     726:	4601                	li	a2,0
     728:	85a6                	mv	a1,s1
     72a:	5ff000ef          	jal	ra,1528 <HID_SetIdle>
     72e:	3038                	lbu	a4,3(s0)
     730:	2034                	lbu	a3,2(s0)
     732:	47b2                	lw	a5,12(sp)
     734:	0722                	slli	a4,a4,0x8
     736:	bd6d                	j	5f0 <KM_AnalyzeConfigDesc+0xcc>
     738:	08600793          	li	a5,134
     73c:	02fd87b3          	mul	a5,s11,a5
     740:	00549713          	slli	a4,s1,0x5
     744:	9726                	add	a4,a4,s1
     746:	0706                	slli	a4,a4,0x1
     748:	4501                	li	a0,0
     74a:	97ba                	add	a5,a5,a4
     74c:	cd818713          	addi	a4,gp,-808 # 20000548 <HostCtl>
     750:	97ba                	add	a5,a5,a4
     752:	577d                	li	a4,-1
     754:	a3b8                	sb	a4,2(a5)
     756:	0141                	addi	sp,sp,16
     758:	b415                	j	17c <__riscv_restore_12>

0000075a <KM_AnalyzeHidReportDesc>:
     75a:	8c418793          	addi	a5,gp,-1852 # 20000134 <Com_Buf>
     75e:	2394                	lbu	a3,0(a5)
     760:	4715                	li	a4,5
     762:	00e68363          	beq	a3,a4,768 <KM_AnalyzeHidReportDesc+0xe>
     766:	8082                	ret
     768:	3394                	lbu	a3,1(a5)
     76a:	4705                	li	a4,1
     76c:	fee69de3          	bne	a3,a4,766 <KM_AnalyzeHidReportDesc+0xc>
     770:	23b4                	lbu	a3,2(a5)
     772:	4725                	li	a4,9
     774:	fee699e3          	bne	a3,a4,766 <KM_AnalyzeHidReportDesc+0xc>
     778:	33b4                	lbu	a3,3(a5)
     77a:	4719                	li	a4,6
     77c:	fee695e3          	bne	a3,a4,766 <KM_AnalyzeHidReportDesc+0xc>
     780:	9c9ff2ef          	jal	t0,148 <__riscv_save_10>
     784:	08600713          	li	a4,134
     788:	02e50733          	mul	a4,a0,a4
     78c:	00559313          	slli	t1,a1,0x5
     790:	00b30833          	add	a6,t1,a1
     794:	0806                	slli	a6,a6,0x1
     796:	cd818f13          	addi	t5,gp,-808 # 20000548 <HostCtl>
     79a:	4691                	li	a3,4
     79c:	983a                	add	a6,a6,a4
     79e:	987a                	add	a6,a6,t5
     7a0:	00485883          	lhu	a7,4(a6)
     7a4:	0d16f463          	bgeu	a3,a7,86c <KM_AnalyzeHidReportDesc+0x112>
     7a8:	4a01                	li	s4,0
     7aa:	4981                	li	s3,0
     7ac:	4b01                	li	s6,0
     7ae:	4a81                	li	s5,0
     7b0:	4381                	li	t2,0
     7b2:	4711                	li	a4,4
     7b4:	4e91                	li	t4,4
     7b6:	07000293          	li	t0,112
     7ba:	08000913          	li	s2,128
     7be:	09000f93          	li	t6,144
     7c2:	4e21                	li	t3,8
     7c4:	44c1                	li	s1,16
     7c6:	02000413          	li	s0,32
     7ca:	4b85                	li	s7,1
     7cc:	a039                	j	7da <KM_AnalyzeHidReportDesc+0x80>
     7ce:	ce39                	beqz	a2,82c <KM_AnalyzeHidReportDesc+0xd2>
     7d0:	9762                	add	a4,a4,s8
     7d2:	0742                	slli	a4,a4,0x10
     7d4:	8341                	srli	a4,a4,0x10
     7d6:	09177863          	bgeu	a4,a7,866 <KM_AnalyzeHidReportDesc+0x10c>
     7da:	00e786b3          	add	a3,a5,a4
     7de:	2294                	lbu	a3,0(a3)
     7e0:	0705                	addi	a4,a4,1
     7e2:	0742                	slli	a4,a4,0x10
     7e4:	00c6f613          	andi	a2,a3,12
     7e8:	0036fc13          	andi	s8,a3,3
     7ec:	8341                	srli	a4,a4,0x10
     7ee:	0f06f693          	andi	a3,a3,240
     7f2:	03d60063          	beq	a2,t4,812 <KM_AnalyzeHidReportDesc+0xb8>
     7f6:	fdc61ce3          	bne	a2,t3,7ce <KM_AnalyzeHidReportDesc+0x74>
     7fa:	08968563          	beq	a3,s1,884 <KM_AnalyzeHidReportDesc+0x12a>
     7fe:	fc8699e3          	bne	a3,s0,7d0 <KM_AnalyzeHidReportDesc+0x76>
     802:	fc0387e3          	beqz	t2,7d0 <KM_AnalyzeHidReportDesc+0x76>
     806:	00e786b3          	add	a3,a5,a4
     80a:	2294                	lbu	a3,0(a3)
     80c:	02d80fa3          	sb	a3,63(a6)
     810:	b7c1                	j	7d0 <KM_AnalyzeHidReportDesc+0x76>
     812:	08568163          	beq	a3,t0,894 <KM_AnalyzeHidReportDesc+0x13a>
     816:	02d2ff63          	bgeu	t0,a3,854 <KM_AnalyzeHidReportDesc+0xfa>
     81a:	09268263          	beq	a3,s2,89e <KM_AnalyzeHidReportDesc+0x144>
     81e:	fbf699e3          	bne	a3,t6,7d0 <KM_AnalyzeHidReportDesc+0x76>
     822:	00e786b3          	add	a3,a5,a4
     826:	0006ca83          	lbu	s5,0(a3)
     82a:	b75d                	j	7d0 <KM_AnalyzeHidReportDesc+0x76>
     82c:	fbf692e3          	bne	a3,t6,7d0 <KM_AnalyzeHidReportDesc+0x76>
     830:	fa0380e3          	beqz	t2,7d0 <KM_AnalyzeHidReportDesc+0x76>
     834:	036a86b3          	mul	a3,s5,s6
     838:	99b6                	add	s3,s3,a3
     83a:	09c2                	slli	s3,s3,0x10
     83c:	0109d993          	srli	s3,s3,0x10
     840:	f80a08e3          	beqz	s4,7d0 <KM_AnalyzeHidReportDesc+0x76>
     844:	03c84683          	lbu	a3,60(a6)
     848:	f6c1                	bnez	a3,7d0 <KM_AnalyzeHidReportDesc+0x76>
     84a:	03780e23          	sb	s7,60(a6)
     84e:	03480ea3          	sb	s4,61(a6)
     852:	bfbd                	j	7d0 <KM_AnalyzeHidReportDesc+0x76>
     854:	feb5                	bnez	a3,7d0 <KM_AnalyzeHidReportDesc+0x76>
     856:	00e786b3          	add	a3,a5,a4
     85a:	0006c383          	lbu	t2,0(a3)
     85e:	13e1                	addi	t2,t2,-8
     860:	0013b393          	seqz	t2,t2
     864:	b7b5                	j	7d0 <KM_AnalyzeHidReportDesc+0x76>
     866:	47a1                	li	a5,8
     868:	04f98063          	beq	s3,a5,8a8 <KM_AnalyzeHidReportDesc+0x14e>
     86c:	08600793          	li	a5,134
     870:	02f50533          	mul	a0,a0,a5
     874:	00b307b3          	add	a5,t1,a1
     878:	0786                	slli	a5,a5,0x1
     87a:	953e                	add	a0,a0,a5
     87c:	957a                	add	a0,a0,t5
     87e:	04050023          	sb	zero,64(a0)
     882:	b8fd                	j	180 <__riscv_restore_10>
     884:	f40386e3          	beqz	t2,7d0 <KM_AnalyzeHidReportDesc+0x76>
     888:	00e786b3          	add	a3,a5,a4
     88c:	2294                	lbu	a3,0(a3)
     88e:	02d80f23          	sb	a3,62(a6)
     892:	bf3d                	j	7d0 <KM_AnalyzeHidReportDesc+0x76>
     894:	00e786b3          	add	a3,a5,a4
     898:	0006cb03          	lbu	s6,0(a3)
     89c:	bf15                	j	7d0 <KM_AnalyzeHidReportDesc+0x76>
     89e:	00e786b3          	add	a3,a5,a4
     8a2:	0006ca03          	lbu	s4,0(a3)
     8a6:	b72d                	j	7d0 <KM_AnalyzeHidReportDesc+0x76>
     8a8:	08600793          	li	a5,134
     8ac:	02f50533          	mul	a0,a0,a5
     8b0:	00b307b3          	add	a5,t1,a1
     8b4:	0786                	slli	a5,a5,0x1
     8b6:	97aa                	add	a5,a5,a0
     8b8:	9f3e                	add	t5,t5,a5
     8ba:	040f4783          	lbu	a5,64(t5)
     8be:	f3f1                	bnez	a5,882 <KM_AnalyzeHidReportDesc+0x128>
     8c0:	4785                	li	a5,1
     8c2:	04ff0023          	sb	a5,64(t5)
     8c6:	bf75                	j	882 <KM_AnalyzeHidReportDesc+0x128>

000008c8 <KM_DealHidReportDesc>:
     8c8:	879ff2ef          	jal	t0,140 <__riscv_save_12>
     8cc:	08600b13          	li	s6,134
     8d0:	03650b33          	mul	s6,a0,s6
     8d4:	cd818b93          	addi	s7,gp,-808 # 20000548 <HostCtl>
     8d8:	016b8c33          	add	s8,s7,s6
     8dc:	000c4483          	lbu	s1,0(s8)
     8e0:	c8ad                	beqz	s1,952 <KM_DealHidReportDesc+0x8a>
     8e2:	89ae                	mv	s3,a1
     8e4:	8caa                	mv	s9,a0
     8e6:	8926                	mv	s2,s1
     8e8:	4401                	li	s0,0
     8ea:	004b0d13          	addi	s10,s6,4
     8ee:	4a95                	li	s5,5
     8f0:	a031                	j	8fc <KM_DealHidReportDesc+0x34>
     8f2:	0ff7f913          	andi	s2,a5,255
     8f6:	cf31                	beqz	a4,952 <KM_DealHidReportDesc+0x8a>
     8f8:	000c4483          	lbu	s1,0(s8)
     8fc:	412484b3          	sub	s1,s1,s2
     900:	0ff4f493          	andi	s1,s1,255
     904:	00549d93          	slli	s11,s1,0x5
     908:	9da6                	add	s11,s11,s1
     90a:	0d86                	slli	s11,s11,0x1
     90c:	016d87b3          	add	a5,s11,s6
     910:	97de                	add	a5,a5,s7
     912:	23d6                	lhu	a3,4(a5)
     914:	fff90793          	addi	a5,s2,-1
     918:	0ff7f713          	andi	a4,a5,255
     91c:	daf9                	beqz	a3,8f2 <KM_DealHidReportDesc+0x2a>
     91e:	9dea                	add	s11,s11,s10
     920:	9dde                	add	s11,s11,s7
     922:	a019                	j	928 <KM_DealHidReportDesc+0x60>
     924:	028aea63          	bltu	s5,s0,958 <KM_DealHidReportDesc+0x90>
     928:	0405                	addi	s0,s0,1
     92a:	86ee                	mv	a3,s11
     92c:	8c418613          	addi	a2,gp,-1852 # 20000134 <Com_Buf>
     930:	85a6                	mv	a1,s1
     932:	854e                	mv	a0,s3
     934:	0ff47413          	andi	s0,s0,255
     938:	39b000ef          	jal	ra,14d2 <HID_GetHidDesr>
     93c:	f565                	bnez	a0,924 <KM_DealHidReportDesc+0x5c>
     93e:	85a6                	mv	a1,s1
     940:	8566                	mv	a0,s9
     942:	3d21                	jal	75a <KM_AnalyzeHidReportDesc>
     944:	fff90793          	addi	a5,s2,-1
     948:	0ff7f713          	andi	a4,a5,255
     94c:	0ff7f913          	andi	s2,a5,255
     950:	f745                	bnez	a4,8f8 <KM_DealHidReportDesc+0x30>
     952:	4501                	li	a0,0
     954:	829ff06f          	j	17c <__riscv_restore_12>
     958:	04800513          	li	a0,72
     95c:	821ff06f          	j	17c <__riscv_restore_12>

00000960 <HUB_AnalyzeConfigDesc>:
     960:	811ff2ef          	jal	t0,170 <__riscv_save_0>
     964:	08600793          	li	a5,134
     968:	02f50533          	mul	a0,a0,a5
     96c:	8c418e13          	addi	t3,gp,-1852 # 20000134 <Com_Buf>
     970:	003e4603          	lbu	a2,3(t3)
     974:	002e4783          	lbu	a5,2(t3)
     978:	0622                	slli	a2,a2,0x8
     97a:	cd818713          	addi	a4,gp,-808 # 20000548 <HostCtl>
     97e:	963e                	add	a2,a2,a5
     980:	4889                	li	a7,2
     982:	4781                	li	a5,0
     984:	4311                	li	t1,4
     986:	4f25                	li	t5,9
     988:	4e95                	li	t4,5
     98a:	953a                	add	a0,a0,a4
     98c:	4805                	li	a6,1
     98e:	08c7d063          	bge	a5,a2,a0e <HUB_AnalyzeConfigDesc+0xae>
     992:	00fe0733          	add	a4,t3,a5
     996:	230c                	lbu	a1,0(a4)
     998:	3314                	lbu	a3,1(a4)
     99a:	97ae                	add	a5,a5,a1
     99c:	07c2                	slli	a5,a5,0x10
     99e:	83c1                	srli	a5,a5,0x10
     9a0:	07168063          	beq	a3,a7,a00 <HUB_AnalyzeConfigDesc+0xa0>
     9a4:	fe6695e3          	bne	a3,t1,98e <HUB_AnalyzeConfigDesc+0x2e>
     9a8:	3358                	lbu	a4,5(a4)
     9aa:	ffe712e3          	bne	a4,t5,98e <HUB_AnalyzeConfigDesc+0x2e>
     9ae:	00fe0733          	add	a4,t3,a5
     9b2:	3314                	lbu	a3,1(a4)
     9b4:	fc668de3          	beq	a3,t1,98e <HUB_AnalyzeConfigDesc+0x2e>
     9b8:	fcc7dbe3          	bge	a5,a2,98e <HUB_AnalyzeConfigDesc+0x2e>
     9bc:	230c                	lbu	a1,0(a4)
     9be:	97ae                	add	a5,a5,a1
     9c0:	07c2                	slli	a5,a5,0x10
     9c2:	83c1                	srli	a5,a5,0x10
     9c4:	ffd695e3          	bne	a3,t4,9ae <HUB_AnalyzeConfigDesc+0x4e>
     9c8:	2334                	lbu	a3,2(a4)
     9ca:	01869593          	slli	a1,a3,0x18
     9ce:	85e1                	srai	a1,a1,0x18
     9d0:	8abd                	andi	a3,a3,15
     9d2:	fc05dee3          	bgez	a1,9ae <HUB_AnalyzeConfigDesc+0x4e>
     9d6:	334c                	lbu	a1,5(a4)
     9d8:	00854f83          	lbu	t6,8(a0)
     9dc:	2340                	lbu	s0,4(a4)
     9de:	00374383          	lbu	t2,3(a4)
     9e2:	00674283          	lbu	t0,6(a4)
     9e6:	00859713          	slli	a4,a1,0x8
     9ea:	9722                	add	a4,a4,s0
     9ec:	001f8593          	addi	a1,t6,1
     9f0:	b514                	sb	a3,9(a0)
     9f2:	007506a3          	sb	t2,13(a0)
     9f6:	a93a                	sh	a4,18(a0)
     9f8:	00550f23          	sb	t0,30(a0)
     9fc:	a50c                	sb	a1,8(a0)
     9fe:	bf45                	j	9ae <HUB_AnalyzeConfigDesc+0x4e>
     a00:	2358                	lbu	a4,4(a4)
     a02:	00e87963          	bgeu	a6,a4,a14 <HUB_AnalyzeConfigDesc+0xb4>
     a06:	01050023          	sb	a6,0(a0)
     a0a:	f8c7c4e3          	blt	a5,a2,992 <HUB_AnalyzeConfigDesc+0x32>
     a0e:	4501                	li	a0,0
     a10:	f84ff06f          	j	194 <__riscv_restore_0>
     a14:	a118                	sb	a4,0(a0)
     a16:	bfa5                	j	98e <HUB_AnalyzeConfigDesc+0x2e>

00000a18 <USBH_EnumHubDevice>:
     a18:	f3eff2ef          	jal	t0,156 <__riscv_save_4>
     a1c:	f7818493          	addi	s1,gp,-136 # 200007e8 <RootHubDev>
     a20:	30c8                	lbu	a0,5(s1)
     a22:	1141                	addi	sp,sp,-16
     a24:	3f35                	jal	960 <HUB_AnalyzeConfigDesc>
     a26:	892a                	mv	s2,a0
     a28:	ed41                	bnez	a0,ac0 <USBH_EnumHubDevice+0xa8>
     a2a:	8c418a13          	addi	s4,gp,-1852 # 20000134 <Com_Buf>
     a2e:	006a4583          	lbu	a1,6(s4)
     a32:	20c8                	lbu	a0,4(s1)
     a34:	e1e1                	bnez	a1,af4 <USBH_EnumHubDevice+0xdc>
     a36:	cc418413          	addi	s0,gp,-828 # 20000534 <DevDesc_Buf>
     a3a:	246c                	lbu	a1,14(s0)
     a3c:	e5c5                	bnez	a1,ae4 <USBH_EnumHubDevice+0xcc>
     a3e:	346c                	lbu	a1,15(s0)
     a40:	e9d1                	bnez	a1,ad4 <USBH_EnumHubDevice+0xbc>
     a42:	280c                	lbu	a1,16(s0)
     a44:	e1d1                	bnez	a1,ac8 <USBH_EnumHubDevice+0xb0>
     a46:	4415                	li	s0,5
     a48:	00e10613          	addi	a2,sp,14
     a4c:	8c418593          	addi	a1,gp,-1852 # 20000134 <Com_Buf>
     a50:	387000ef          	jal	ra,15d6 <HUB_GetClassDevDescr>
     a54:	147d                	addi	s0,s0,-1
     a56:	892a                	mv	s2,a0
     a58:	0ff47413          	andi	s0,s0,255
     a5c:	cd11                	beqz	a0,a78 <USBH_EnumHubDevice+0x60>
     a5e:	cc39                	beqz	s0,abc <USBH_EnumHubDevice+0xa4>
     a60:	20c8                	lbu	a0,4(s1)
     a62:	00e10613          	addi	a2,sp,14
     a66:	8c418593          	addi	a1,gp,-1852 # 20000134 <Com_Buf>
     a6a:	36d000ef          	jal	ra,15d6 <HUB_GetClassDevDescr>
     a6e:	147d                	addi	s0,s0,-1
     a70:	892a                	mv	s2,a0
     a72:	0ff47413          	andi	s0,s0,255
     a76:	f565                	bnez	a0,a5e <USBH_EnumHubDevice+0x46>
     a78:	002a4783          	lbu	a5,2(s4)
     a7c:	4711                	li	a4,4
     a7e:	a0fc                	sb	a5,6(s1)
     a80:	08f77463          	bgeu	a4,a5,b08 <USBH_EnumHubDevice+0xf0>
     a84:	a0f8                	sb	a4,6(s1)
     a86:	4981                	li	s3,0
     a88:	4405                	li	s0,1
     a8a:	4a11                	li	s4,4
     a8c:	a039                	j	a9a <USBH_EnumHubDevice+0x82>
     a8e:	01079413          	slli	s0,a5,0x10
     a92:	8041                	srli	s0,s0,0x10
     a94:	20fc                	lbu	a5,6(s1)
     a96:	0287e563          	bltu	a5,s0,ac0 <USBH_EnumHubDevice+0xa8>
     a9a:	20c8                	lbu	a0,4(s1)
     a9c:	0ff47593          	andi	a1,s0,255
     aa0:	4621                	li	a2,8
     aa2:	30d000ef          	jal	ra,15ae <HUB_SetPortFeature>
     aa6:	00140793          	addi	a5,s0,1
     aaa:	d175                	beqz	a0,a8e <USBH_EnumHubDevice+0x76>
     aac:	0985                	addi	s3,s3,1
     aae:	4515                	li	a0,5
     ab0:	0ff9f993          	andi	s3,s3,255
     ab4:	153060ef          	jal	ra,7406 <Delay_Ms>
     ab8:	fd3a7ee3          	bgeu	s4,s3,a94 <USBH_EnumHubDevice+0x7c>
     abc:	0fe00913          	li	s2,254
     ac0:	854a                	mv	a0,s2
     ac2:	0141                	addi	sp,sp,16
     ac4:	ec6ff06f          	j	18a <__riscv_restore_4>
     ac8:	8c418613          	addi	a2,gp,-1852 # 20000134 <Com_Buf>
     acc:	0b7000ef          	jal	ra,1382 <USBFSH_GetStrDescr>
     ad0:	20c8                	lbu	a0,4(s1)
     ad2:	bf95                	j	a46 <USBH_EnumHubDevice+0x2e>
     ad4:	8c418613          	addi	a2,gp,-1852 # 20000134 <Com_Buf>
     ad8:	0ab000ef          	jal	ra,1382 <USBFSH_GetStrDescr>
     adc:	280c                	lbu	a1,16(s0)
     ade:	20c8                	lbu	a0,4(s1)
     ae0:	d1bd                	beqz	a1,a46 <USBH_EnumHubDevice+0x2e>
     ae2:	b7dd                	j	ac8 <USBH_EnumHubDevice+0xb0>
     ae4:	8c418613          	addi	a2,gp,-1852 # 20000134 <Com_Buf>
     ae8:	09b000ef          	jal	ra,1382 <USBFSH_GetStrDescr>
     aec:	346c                	lbu	a1,15(s0)
     aee:	20c8                	lbu	a0,4(s1)
     af0:	d9a9                	beqz	a1,a42 <USBH_EnumHubDevice+0x2a>
     af2:	b7cd                	j	ad4 <USBH_EnumHubDevice+0xbc>
     af4:	8c418613          	addi	a2,gp,-1852 # 20000134 <Com_Buf>
     af8:	08b000ef          	jal	ra,1382 <USBFSH_GetStrDescr>
     afc:	cc418413          	addi	s0,gp,-828 # 20000534 <DevDesc_Buf>
     b00:	246c                	lbu	a1,14(s0)
     b02:	20c8                	lbu	a0,4(s1)
     b04:	dd8d                	beqz	a1,a3e <USBH_EnumHubDevice+0x26>
     b06:	bff9                	j	ae4 <USBH_EnumHubDevice+0xcc>
     b08:	ffbd                	bnez	a5,a86 <USBH_EnumHubDevice+0x6e>
     b0a:	bf5d                	j	ac0 <USBH_EnumHubDevice+0xa8>

00000b0c <HUB_Port_PreEnum1>:
     b0c:	219c                	lbu	a5,0(a1)
     b0e:	40a7d7b3          	sra	a5,a5,a0
     b12:	8b85                	andi	a5,a5,1
     b14:	e781                	bnez	a5,b1c <HUB_Port_PreEnum1+0x10>
     b16:	0fe00513          	li	a0,254
     b1a:	8082                	ret
     b1c:	e54ff2ef          	jal	t0,170 <__riscv_save_0>
     b20:	f28ff0ef          	jal	ra,248 <HUB_Port_PreEnum1.part.2>
     b24:	e70ff06f          	j	194 <__riscv_restore_0>

00000b28 <HUB_Port_PreEnum2>:
     b28:	e2eff2ef          	jal	t0,156 <__riscv_save_4>
     b2c:	219c                	lbu	a5,0(a1)
     b2e:	1141                	addi	sp,sp,-16
     b30:	40a7d7b3          	sra	a5,a5,a0
     b34:	8b85                	andi	a5,a5,1
     b36:	e799                	bnez	a5,b44 <HUB_Port_PreEnum2+0x1c>
     b38:	0fe00413          	li	s0,254
     b3c:	8522                	mv	a0,s0
     b3e:	0141                	addi	sp,sp,16
     b40:	e4aff06f          	j	18a <__riscv_restore_4>
     b44:	f7818993          	addi	s3,gp,-136 # 200007e8 <RootHubDev>
     b48:	892a                	mv	s2,a0
     b4a:	0049c503          	lbu	a0,4(s3)
     b4e:	4611                	li	a2,4
     b50:	85ca                	mv	a1,s2
     b52:	25d000ef          	jal	ra,15ae <HUB_SetPortFeature>
     b56:	842a                	mv	s0,a0
     b58:	f175                	bnez	a0,b3c <HUB_Port_PreEnum2+0x14>
     b5a:	4529                	li	a0,10
     b5c:	0ab060ef          	jal	ra,7406 <Delay_Ms>
     b60:	4a2d                	li	s4,11
     b62:	0049c503          	lbu	a0,4(s3)
     b66:	0070                	addi	a2,sp,12
     b68:	85ca                	mv	a1,s2
     b6a:	1ed000ef          	jal	ra,1556 <HUB_GetPortStatus>
     b6e:	84aa                	mv	s1,a0
     b70:	0405                	addi	s0,s0,1
     b72:	e921                	bnez	a0,bc2 <HUB_Port_PreEnum2+0x9a>
     b74:	871c                	lbu	a5,14(sp)
     b76:	0ff47413          	andi	s0,s0,255
     b7a:	8bc1                	andi	a5,a5,16
     b7c:	ef9d                	bnez	a5,bba <HUB_Port_PreEnum2+0x92>
     b7e:	ff4412e3          	bne	s0,s4,b62 <HUB_Port_PreEnum2+0x3a>
     b82:	0049c503          	lbu	a0,4(s3)
     b86:	4651                	li	a2,20
     b88:	85ca                	mv	a1,s2
     b8a:	1fd000ef          	jal	ra,1586 <HUB_ClearPortFeature>
     b8e:	4a2d                	li	s4,11
     b90:	0049c503          	lbu	a0,4(s3)
     b94:	0070                	addi	a2,sp,12
     b96:	85ca                	mv	a1,s2
     b98:	1bf000ef          	jal	ra,1556 <HUB_GetPortStatus>
     b9c:	842a                	mv	s0,a0
     b9e:	0485                	addi	s1,s1,1
     ba0:	fd51                	bnez	a0,b3c <HUB_Port_PreEnum2+0x14>
     ba2:	871c                	lbu	a5,14(sp)
     ba4:	0ff4f493          	andi	s1,s1,255
     ba8:	8bc1                	andi	a5,a5,16
     baa:	cf91                	beqz	a5,bc6 <HUB_Port_PreEnum2+0x9e>
     bac:	ff4492e3          	bne	s1,s4,b90 <HUB_Port_PreEnum2+0x68>
     bb0:	861c                	lbu	a5,12(sp)
     bb2:	4455                	li	s0,21
     bb4:	8b85                	andi	a5,a5,1
     bb6:	d3c9                	beqz	a5,b38 <HUB_Port_PreEnum2+0x10>
     bb8:	b751                	j	b3c <HUB_Port_PreEnum2+0x14>
     bba:	47a9                	li	a5,10
     bbc:	f6f40ee3          	beq	s0,a5,b38 <HUB_Port_PreEnum2+0x10>
     bc0:	b7c9                	j	b82 <HUB_Port_PreEnum2+0x5a>
     bc2:	842a                	mv	s0,a0
     bc4:	bfa5                	j	b3c <HUB_Port_PreEnum2+0x14>
     bc6:	47a9                	li	a5,10
     bc8:	f6f488e3          	beq	s1,a5,b38 <HUB_Port_PreEnum2+0x10>
     bcc:	b7d5                	j	bb0 <HUB_Port_PreEnum2+0x88>

00000bce <HUB_CheckPortSpeed>:
     bce:	da2ff2ef          	jal	t0,170 <__riscv_save_0>
     bd2:	842e                	mv	s0,a1
     bd4:	85aa                	mv	a1,a0
     bd6:	f7c1c503          	lbu	a0,-132(gp) # 200007ec <RootHubDev+0x4>
     bda:	8622                	mv	a2,s0
     bdc:	17b000ef          	jal	ra,1556 <HUB_GetPortStatus>
     be0:	e911                	bnez	a0,bf4 <HUB_CheckPortSpeed+0x26>
     be2:	301c                	lbu	a5,1(s0)
     be4:	0027f713          	andi	a4,a5,2
     be8:	e711                	bnez	a4,bf4 <HUB_CheckPortSpeed+0x26>
     bea:	0047f513          	andi	a0,a5,4
     bee:	00a03533          	snez	a0,a0
     bf2:	0505                	addi	a0,a0,1
     bf4:	da0ff06f          	j	194 <__riscv_restore_0>

00000bf8 <USBH_EnumHubPortDevice>:
     bf8:	d50ff2ef          	jal	t0,148 <__riscv_save_10>
     bfc:	00151993          	slli	s3,a0,0x1
     c00:	00a984b3          	add	s1,s3,a0
     c04:	0486                	slli	s1,s1,0x1
     c06:	f7818913          	addi	s2,gp,-136 # 200007e8 <RootHubDev>
     c0a:	04ad                	addi	s1,s1,11
     c0c:	1141                	addi	sp,sp,-16
     c0e:	8a2a                	mv	s4,a0
     c10:	8b2e                	mv	s6,a1
     c12:	8bb2                	mv	s7,a2
     c14:	94ca                	add	s1,s1,s2
     c16:	4429                	li	s0,10
     c18:	cc418593          	addi	a1,gp,-828 # 20000534 <DevDesc_Buf>
     c1c:	8526                	mv	a0,s1
     c1e:	147d                	addi	s0,s0,-1
     c20:	6bc000ef          	jal	ra,12dc <USBFSH_GetDeviceDescr>
     c24:	0ff47413          	andi	s0,s0,255
     c28:	c519                	beqz	a0,c36 <USBH_EnumHubPortDevice+0x3e>
     c2a:	f47d                	bnez	s0,c18 <USBH_EnumHubPortDevice+0x20>
     c2c:	04500513          	li	a0,69
     c30:	0141                	addi	sp,sp,16
     c32:	d4eff06f          	j	180 <__riscv_restore_10>
     c36:	01498433          	add	s0,s3,s4
     c3a:	0406                	slli	s0,s0,0x1
     c3c:	44a9                	li	s1,10
     c3e:	944a                	add	s0,s0,s2
     c40:	244c                	lbu	a1,12(s0)
     c42:	3428                	lbu	a0,11(s0)
     c44:	14fd                	addi	s1,s1,-1
     c46:	0589                	addi	a1,a1,2
     c48:	0ff5f593          	andi	a1,a1,255
     c4c:	78c000ef          	jal	ra,13d8 <USBFSH_SetUsbAddress>
     c50:	0ff4f493          	andi	s1,s1,255
     c54:	ed15                	bnez	a0,c90 <USBH_EnumHubPortDevice+0x98>
     c56:	245c                	lbu	a5,12(s0)
     c58:	014984b3          	add	s1,s3,s4
     c5c:	4515                	li	a0,5
     c5e:	0789                	addi	a5,a5,2
     c60:	00fb0023          	sb	a5,0(s6)
     c64:	0486                	slli	s1,s1,0x1
     c66:	7a0060ef          	jal	ra,7406 <Delay_Ms>
     c6a:	4429                	li	s0,10
     c6c:	8c418b13          	addi	s6,gp,-1852 # 20000134 <Com_Buf>
     c70:	94ca                	add	s1,s1,s2
     c72:	34a8                	lbu	a0,11(s1)
     c74:	00e10693          	addi	a3,sp,14
     c78:	40000613          	li	a2,1024
     c7c:	8c418593          	addi	a1,gp,-1852 # 20000134 <Com_Buf>
     c80:	147d                	addi	s0,s0,-1
     c82:	69e000ef          	jal	ra,1320 <USBFSH_GetConfigDescr>
     c86:	0ff47413          	andi	s0,s0,255
     c8a:	c909                	beqz	a0,c9c <USBH_EnumHubPortDevice+0xa4>
     c8c:	f07d                	bnez	s0,c72 <USBH_EnumHubPortDevice+0x7a>
     c8e:	bf79                	j	c2c <USBH_EnumHubPortDevice+0x34>
     c90:	f8c5                	bnez	s1,c40 <USBH_EnumHubPortDevice+0x48>
     c92:	04600513          	li	a0,70
     c96:	0141                	addi	sp,sp,16
     c98:	ce8ff06f          	j	180 <__riscv_restore_10>
     c9c:	99d2                	add	s3,s3,s4
     c9e:	865e                	mv	a2,s7
     ca0:	8c418593          	addi	a1,gp,-1852 # 20000134 <Com_Buf>
     ca4:	cc418513          	addi	a0,gp,-828 # 20000534 <DevDesc_Buf>
     ca8:	0986                	slli	s3,s3,0x1
     caa:	005b4483          	lbu	s1,5(s6)
     cae:	4429                	li	s0,10
     cb0:	f1aff0ef          	jal	ra,3ca <USBH_AnalyseType>
     cb4:	99ca                	add	s3,s3,s2
     cb6:	00b9c503          	lbu	a0,11(s3)
     cba:	85a6                	mv	a1,s1
     cbc:	147d                	addi	s0,s0,-1
     cbe:	75a000ef          	jal	ra,1418 <USBFSH_SetUsbConfig>
     cc2:	0ff47413          	andi	s0,s0,255
     cc6:	d52d                	beqz	a0,c30 <USBH_EnumHubPortDevice+0x38>
     cc8:	f47d                	bnez	s0,cb6 <USBH_EnumHubPortDevice+0xbe>
     cca:	04900513          	li	a0,73
     cce:	b78d                	j	c30 <USBH_EnumHubPortDevice+0x38>

00000cd0 <KB_SetReport>:
     cd0:	ca0ff2ef          	jal	t0,170 <__riscv_save_0>
     cd4:	08600793          	li	a5,134
     cd8:	02f506b3          	mul	a3,a0,a5
     cdc:	00561713          	slli	a4,a2,0x5
     ce0:	00c707b3          	add	a5,a4,a2
     ce4:	0786                	slli	a5,a5,0x1
     ce6:	cd818813          	addi	a6,gp,-808 # 20000548 <HostCtl>
     cea:	88b2                	mv	a7,a2
     cec:	1141                	addi	sp,sp,-16
     cee:	832e                	mv	t1,a1
     cf0:	97b6                	add	a5,a5,a3
     cf2:	97c2                	add	a5,a5,a6
     cf4:	03c7c603          	lbu	a2,60(a5)
     cf8:	0417c683          	lbu	a3,65(a5)
     cfc:	ce0d                	beqz	a2,d36 <KB_SetReport+0x66>
     cfe:	03d7c783          	lbu	a5,61(a5)
     d02:	86d4                	sb	a3,13(sp)
     d04:	865c                	sb	a5,12(sp)
     d06:	4789                	li	a5,2
     d08:	877c                	sh	a5,14(sp)
     d0a:	08600593          	li	a1,134
     d0e:	02b505b3          	mul	a1,a0,a1
     d12:	9746                	add	a4,a4,a7
     d14:	0706                	slli	a4,a4,0x1
     d16:	4605                	li	a2,1
     d18:	00b707b3          	add	a5,a4,a1
     d1c:	97c2                	add	a5,a5,a6
     d1e:	0407c683          	lbu	a3,64(a5)
     d22:	00c68e63          	beq	a3,a2,d3e <KB_SetReport+0x6e>
     d26:	0ff00613          	li	a2,255
     d2a:	4501                	li	a0,0
     d2c:	02c68363          	beq	a3,a2,d52 <KB_SetReport+0x82>
     d30:	0141                	addi	sp,sp,16
     d32:	c62ff06f          	j	194 <__riscv_restore_0>
     d36:	4785                	li	a5,1
     d38:	8654                	sb	a3,12(sp)
     d3a:	877c                	sh	a5,14(sp)
     d3c:	b7f9                	j	d0a <KB_SetReport+0x3a>
     d3e:	00e10693          	addi	a3,sp,14
     d42:	0070                	addi	a2,sp,12
     d44:	85c6                	mv	a1,a7
     d46:	851a                	mv	a0,t1
     d48:	7b6000ef          	jal	ra,14fe <HID_SetReport>
     d4c:	0141                	addi	sp,sp,16
     d4e:	c46ff06f          	j	194 <__riscv_restore_0>
     d52:	03870713          	addi	a4,a4,56
     d56:	8734                	lhu	a3,14(sp)
     d58:	0277c503          	lbu	a0,39(a5)
     d5c:	95ba                	add	a1,a1,a4
     d5e:	0070                	addi	a2,sp,12
     d60:	95c2                	add	a1,a1,a6
     d62:	73a000ef          	jal	ra,149c <USBFSH_SendEndpData>
     d66:	0141                	addi	sp,sp,16
     d68:	c2cff06f          	j	194 <__riscv_restore_0>

00000d6c <USBH_EnumHidDevice>:
     d6c:	bdcff2ef          	jal	t0,148 <__riscv_save_10>
     d70:	892a                	mv	s2,a0
     d72:	84ae                	mv	s1,a1
     d74:	fb0ff0ef          	jal	ra,524 <KM_AnalyzeConfigDesc>
     d78:	89aa                	mv	s3,a0
     d7a:	e93d                	bnez	a0,df0 <USBH_EnumHidDevice+0x84>
     d7c:	8c418793          	addi	a5,gp,-1852 # 20000134 <Com_Buf>
     d80:	23ec                	lbu	a1,6(a5)
     d82:	edc9                	bnez	a1,e1c <USBH_EnumHidDevice+0xb0>
     d84:	85a6                	mv	a1,s1
     d86:	854a                	mv	a0,s2
     d88:	3681                	jal	8c8 <KM_DealHidReportDesc>
     d8a:	cc418413          	addi	s0,gp,-828 # 20000534 <DevDesc_Buf>
     d8e:	246c                	lbu	a1,14(s0)
     d90:	edbd                	bnez	a1,e0e <USBH_EnumHidDevice+0xa2>
     d92:	346c                	lbu	a1,15(s0)
     d94:	e5b5                	bnez	a1,e00 <USBH_EnumHidDevice+0x94>
     d96:	280c                	lbu	a1,16(s0)
     d98:	edb9                	bnez	a1,df6 <USBH_EnumHidDevice+0x8a>
     d9a:	08600a13          	li	s4,134
     d9e:	03490a33          	mul	s4,s2,s4
     da2:	cd818b13          	addi	s6,gp,-808 # 20000548 <HostCtl>
     da6:	4401                	li	s0,0
     da8:	4b85                	li	s7,1
     daa:	014b0ab3          	add	s5,s6,s4
     dae:	000ac783          	lbu	a5,0(s5)
     db2:	eb89                	bnez	a5,dc4 <USBH_EnumHidDevice+0x58>
     db4:	a835                	j	df0 <USBH_EnumHidDevice+0x84>
     db6:	000ac783          	lbu	a5,0(s5)
     dba:	0405                	addi	s0,s0,1
     dbc:	0ff47413          	andi	s0,s0,255
     dc0:	02f47863          	bgeu	s0,a5,df0 <USBH_EnumHidDevice+0x84>
     dc4:	00541793          	slli	a5,s0,0x5
     dc8:	97a2                	add	a5,a5,s0
     dca:	0786                	slli	a5,a5,0x1
     dcc:	97d2                	add	a5,a5,s4
     dce:	97da                	add	a5,a5,s6
     dd0:	23b8                	lbu	a4,2(a5)
     dd2:	ff7712e3          	bne	a4,s7,db6 <USBH_EnumHidDevice+0x4a>
     dd6:	8622                	mv	a2,s0
     dd8:	040780a3          	sb	zero,65(a5)
     ddc:	85a6                	mv	a1,s1
     dde:	854a                	mv	a0,s2
     de0:	3dc5                	jal	cd0 <KB_SetReport>
     de2:	000ac783          	lbu	a5,0(s5)
     de6:	0405                	addi	s0,s0,1
     de8:	0ff47413          	andi	s0,s0,255
     dec:	fcf46ce3          	bltu	s0,a5,dc4 <USBH_EnumHidDevice+0x58>
     df0:	854e                	mv	a0,s3
     df2:	b8eff06f          	j	180 <__riscv_restore_10>
     df6:	8c418613          	addi	a2,gp,-1852 # 20000134 <Com_Buf>
     dfa:	8526                	mv	a0,s1
     dfc:	2359                	jal	1382 <USBFSH_GetStrDescr>
     dfe:	bf71                	j	d9a <USBH_EnumHidDevice+0x2e>
     e00:	8c418613          	addi	a2,gp,-1852 # 20000134 <Com_Buf>
     e04:	8526                	mv	a0,s1
     e06:	2bb5                	jal	1382 <USBFSH_GetStrDescr>
     e08:	280c                	lbu	a1,16(s0)
     e0a:	d9c1                	beqz	a1,d9a <USBH_EnumHidDevice+0x2e>
     e0c:	b7ed                	j	df6 <USBH_EnumHidDevice+0x8a>
     e0e:	8c418613          	addi	a2,gp,-1852 # 20000134 <Com_Buf>
     e12:	8526                	mv	a0,s1
     e14:	23bd                	jal	1382 <USBFSH_GetStrDescr>
     e16:	346c                	lbu	a1,15(s0)
     e18:	ddbd                	beqz	a1,d96 <USBH_EnumHidDevice+0x2a>
     e1a:	b7dd                	j	e00 <USBH_EnumHidDevice+0x94>
     e1c:	8c418613          	addi	a2,gp,-1852 # 20000134 <Com_Buf>
     e20:	8526                	mv	a0,s1
     e22:	2385                	jal	1382 <USBFSH_GetStrDescr>
     e24:	85a6                	mv	a1,s1
     e26:	854a                	mv	a0,s2
     e28:	3445                	jal	8c8 <KM_DealHidReportDesc>
     e2a:	cc418413          	addi	s0,gp,-828 # 20000534 <DevDesc_Buf>
     e2e:	246c                	lbu	a1,14(s0)
     e30:	d1ad                	beqz	a1,d92 <USBH_EnumHidDevice+0x26>
     e32:	bff1                	j	e0e <USBH_EnumHidDevice+0xa2>

00000e34 <USBFSH_SetSelfSpeed.part.0>:
     e34:	50000737          	lui	a4,0x50000
     e38:	231c                	lbu	a5,0(a4)
     e3a:	0bf7f793          	andi	a5,a5,191
     e3e:	a31c                	sb	a5,0(a4)
     e40:	331c                	lbu	a5,1(a4)
     e42:	0fb7f793          	andi	a5,a5,251
     e46:	b31c                	sb	a5,1(a4)
     e48:	3b7e                	lhu	a5,54(a4)
     e4a:	07c2                	slli	a5,a5,0x10
     e4c:	83c1                	srli	a5,a5,0x10
     e4e:	bff7f793          	andi	a5,a5,-1025
     e52:	07c2                	slli	a5,a5,0x10
     e54:	83c1                	srli	a5,a5,0x10
     e56:	bb7e                	sh	a5,54(a4)
     e58:	8082                	ret

00000e5a <USBFS_RCC_Init>:
     e5a:	b16ff2ef          	jal	t0,170 <__riscv_save_0>
     e5e:	200007b7          	lui	a5,0x20000
     e62:	0747a703          	lw	a4,116(a5) # 20000074 <SystemCoreClock>
     e66:	089547b7          	lui	a5,0x8954
     e6a:	40078793          	addi	a5,a5,1024 # 8954400 <_data_lma+0x8946400>
     e6e:	02f70463          	beq	a4,a5,e96 <USBFS_RCC_Init+0x3c>
     e72:	05b8e7b7          	lui	a5,0x5b8e
     e76:	80078793          	addi	a5,a5,-2048 # 5b8d800 <_data_lma+0x5b7f800>
     e7a:	02f70763          	beq	a4,a5,ea8 <USBFS_RCC_Init+0x4e>
     e7e:	02dc77b7          	lui	a5,0x2dc7
     e82:	c0078793          	addi	a5,a5,-1024 # 2dc6c00 <_data_lma+0x2db8c00>
     e86:	02f70a63          	beq	a4,a5,eba <USBFS_RCC_Init+0x60>
     e8a:	4585                	li	a1,1
     e8c:	6505                	lui	a0,0x1
     e8e:	0b6060ef          	jal	ra,6f44 <RCC_AHBPeriphClockCmd>
     e92:	b02ff06f          	j	194 <__riscv_restore_0>
     e96:	4509                	li	a0,2
     e98:	7cb050ef          	jal	ra,6e62 <RCC_USBCLKConfig>
     e9c:	4585                	li	a1,1
     e9e:	6505                	lui	a0,0x1
     ea0:	0a4060ef          	jal	ra,6f44 <RCC_AHBPeriphClockCmd>
     ea4:	af0ff06f          	j	194 <__riscv_restore_0>
     ea8:	4505                	li	a0,1
     eaa:	7b9050ef          	jal	ra,6e62 <RCC_USBCLKConfig>
     eae:	4585                	li	a1,1
     eb0:	6505                	lui	a0,0x1
     eb2:	092060ef          	jal	ra,6f44 <RCC_AHBPeriphClockCmd>
     eb6:	adeff06f          	j	194 <__riscv_restore_0>
     eba:	4501                	li	a0,0
     ebc:	7a7050ef          	jal	ra,6e62 <RCC_USBCLKConfig>
     ec0:	4585                	li	a1,1
     ec2:	6505                	lui	a0,0x1
     ec4:	080060ef          	jal	ra,6f44 <RCC_AHBPeriphClockCmd>
     ec8:	accff06f          	j	194 <__riscv_restore_0>

00000ecc <USBFS_Host_Init>:
     ecc:	aa4ff2ef          	jal	t0,170 <__riscv_save_0>
     ed0:	4785                	li	a5,1
     ed2:	50000437          	lui	s0,0x50000
     ed6:	00f50b63          	beq	a0,a5,eec <USBFS_Host_Init+0x20>
     eda:	4799                	li	a5,6
     edc:	a01c                	sb	a5,0(s0)
     ede:	4529                	li	a0,10
     ee0:	4ec060ef          	jal	ra,73cc <Delay_Us>
     ee4:	00040023          	sb	zero,0(s0) # 50000000 <_eusrstack+0x2fffb000>
     ee8:	aacff06f          	j	194 <__riscv_restore_0>
     eec:	4799                	li	a5,6
     eee:	a01c                	sb	a5,0(s0)
     ef0:	4529                	li	a0,10
     ef2:	4da060ef          	jal	ra,73cc <Delay_Us>
     ef6:	f8900793          	li	a5,-119
     efa:	00040023          	sb	zero,0(s0)
     efe:	a01c                	sb	a5,0(s0)
     f00:	04800793          	li	a5,72
     f04:	b45c                	sb	a5,13(s0)
     f06:	f9818793          	addi	a5,gp,-104 # 20000808 <USBFS_RX_Buf>
     f0a:	cc1c                	sw	a5,24(s0)
     f0c:	fd818793          	addi	a5,gp,-40 # 20000848 <USBFS_TX_Buf>
     f10:	cc5c                	sw	a5,28(s0)
     f12:	a82ff06f          	j	194 <__riscv_restore_0>

00000f16 <USBFSH_CheckRootHubPortStatus>:
     f16:	50000737          	lui	a4,0x50000
     f1a:	237c                	lbu	a5,6(a4)
     f1c:	8b85                	andi	a5,a5,1
     f1e:	c38d                	beqz	a5,f40 <USBFSH_CheckRootHubPortStatus+0x2a>
     f20:	4785                	li	a5,1
     f22:	a37c                	sb	a5,6(a4)
     f24:	335c                	lbu	a5,5(a4)
     f26:	4681                	li	a3,0
     f28:	8b85                	andi	a5,a5,1
     f2a:	cb89                	beqz	a5,f3c <USBFSH_CheckRootHubPortStatus+0x26>
     f2c:	4685                	li	a3,1
     f2e:	c519                	beqz	a0,f3c <USBFSH_CheckRootHubPortStatus+0x26>
     f30:	4789                	li	a5,2
     f32:	00f50763          	beq	a0,a5,f40 <USBFSH_CheckRootHubPortStatus+0x2a>
     f36:	331c                	lbu	a5,1(a4)
     f38:	8b85                	andi	a5,a5,1
     f3a:	e399                	bnez	a5,f40 <USBFSH_CheckRootHubPortStatus+0x2a>
     f3c:	8536                	mv	a0,a3
     f3e:	8082                	ret
     f40:	4689                	li	a3,2
     f42:	8536                	mv	a0,a3
     f44:	8082                	ret

00000f46 <USBFSH_SetSelfAddr>:
     f46:	50000737          	lui	a4,0x50000
     f4a:	333c                	lbu	a5,3(a4)
     f4c:	07f57513          	andi	a0,a0,127
     f50:	0807f793          	andi	a5,a5,128
     f54:	8fc9                	or	a5,a5,a0
     f56:	b33c                	sb	a5,3(a4)
     f58:	8082                	ret

00000f5a <USBFSH_SetSelfSpeed>:
     f5a:	4785                	li	a5,1
     f5c:	02f50163          	beq	a0,a5,f7e <USBFSH_SetSelfSpeed+0x24>
     f60:	500007b7          	lui	a5,0x50000
     f64:	2398                	lbu	a4,0(a5)
     f66:	04076713          	ori	a4,a4,64
     f6a:	a398                	sb	a4,0(a5)
     f6c:	3398                	lbu	a4,1(a5)
     f6e:	00476713          	ori	a4,a4,4
     f72:	b398                	sb	a4,1(a5)
     f74:	3bfa                	lhu	a4,54(a5)
     f76:	40076713          	ori	a4,a4,1024
     f7a:	bbfa                	sh	a4,54(a5)
     f7c:	8082                	ret
     f7e:	9f2ff2ef          	jal	t0,170 <__riscv_save_0>
     f82:	3d4d                	jal	e34 <USBFSH_SetSelfSpeed.part.0>
     f84:	a10ff06f          	j	194 <__riscv_restore_0>

00000f88 <USBFSH_ResetRootHubPort>:
     f88:	9e8ff2ef          	jal	t0,170 <__riscv_save_0>
     f8c:	50000437          	lui	s0,0x50000
     f90:	303c                	lbu	a5,3(s0)
     f92:	84aa                	mv	s1,a0
     f94:	0807f793          	andi	a5,a5,128
     f98:	b03c                	sb	a5,3(s0)
     f9a:	3d69                	jal	e34 <USBFSH_SetSelfSpeed.part.0>
     f9c:	4785                	li	a5,1
     f9e:	0297f763          	bgeu	a5,s1,fcc <USBFSH_ResetRootHubPort+0x44>
     fa2:	50000737          	lui	a4,0x50000
     fa6:	331c                	lbu	a5,1(a4)
     fa8:	0fd7f793          	andi	a5,a5,253
     fac:	b31c                	sb	a5,1(a4)
     fae:	4509                	li	a0,2
     fb0:	456060ef          	jal	ra,7406 <Delay_Ms>
     fb4:	50000737          	lui	a4,0x50000
     fb8:	237c                	lbu	a5,6(a4)
     fba:	8b85                	andi	a5,a5,1
     fbc:	c791                	beqz	a5,fc8 <USBFSH_ResetRootHubPort+0x40>
     fbe:	335c                	lbu	a5,5(a4)
     fc0:	8b85                	andi	a5,a5,1
     fc2:	c399                	beqz	a5,fc8 <USBFSH_ResetRootHubPort+0x40>
     fc4:	4785                	li	a5,1
     fc6:	a37c                	sb	a5,6(a4)
     fc8:	9ccff06f          	j	194 <__riscv_restore_0>
     fcc:	301c                	lbu	a5,1(s0)
     fce:	0027e793          	ori	a5,a5,2
     fd2:	b01c                	sb	a5,1(s0)
     fd4:	fce9                	bnez	s1,fae <USBFSH_ResetRootHubPort+0x26>
     fd6:	452d                	li	a0,11
     fd8:	42e060ef          	jal	ra,7406 <Delay_Ms>
     fdc:	b7d9                	j	fa2 <USBFSH_ResetRootHubPort+0x1a>

00000fde <USBFSH_EnableRootHubPort>:
     fde:	50000737          	lui	a4,0x50000
     fe2:	335c                	lbu	a5,5(a4)
     fe4:	8b85                	andi	a5,a5,1
     fe6:	e399                	bnez	a5,fec <USBFSH_EnableRootHubPort+0xe>
     fe8:	4559                	li	a0,22
     fea:	8082                	ret
     fec:	331c                	lbu	a5,1(a4)
     fee:	8b85                	andi	a5,a5,1
     ff0:	e39d                	bnez	a5,1016 <USBFSH_EnableRootHubPort+0x38>
     ff2:	335c                	lbu	a5,5(a4)
     ff4:	8b89                	andi	a5,a5,2
     ff6:	0017b693          	seqz	a3,a5
     ffa:	a114                	sb	a3,0(a0)
     ffc:	cf89                	beqz	a5,1016 <USBFSH_EnableRootHubPort+0x38>
     ffe:	231c                	lbu	a5,0(a4)
    1000:	0407e793          	ori	a5,a5,64
    1004:	a31c                	sb	a5,0(a4)
    1006:	331c                	lbu	a5,1(a4)
    1008:	0047e793          	ori	a5,a5,4
    100c:	b31c                	sb	a5,1(a4)
    100e:	3b7e                	lhu	a5,54(a4)
    1010:	4007e793          	ori	a5,a5,1024
    1014:	bb7e                	sh	a5,54(a4)
    1016:	500007b7          	lui	a5,0x50000
    101a:	3398                	lbu	a4,1(a5)
    101c:	4501                	li	a0,0
    101e:	00176713          	ori	a4,a4,1
    1022:	b398                	sb	a4,1(a5)
    1024:	3bfa                	lhu	a4,54(a5)
    1026:	00476713          	ori	a4,a4,4
    102a:	bbfa                	sh	a4,54(a5)
    102c:	8082                	ret

0000102e <USBFSH_Transact>:
    102e:	91aff2ef          	jal	t0,148 <__riscv_save_10>
    1032:	500007b7          	lui	a5,0x50000
    1036:	02b78da3          	sb	a1,59(a5) # 5000003b <_eusrstack+0x2fffb03b>
    103a:	6cc1                	lui	s9,0x10
    103c:	8b2a                	mv	s6,a0
    103e:	8ab2                	mv	s5,a2
    1040:	02b78f23          	sb	a1,62(a5)
    1044:	00455993          	srli	s3,a0,0x4
    1048:	4901                	li	s2,0
    104a:	500004b7          	lui	s1,0x50000
    104e:	4b89                	li	s7,2
    1050:	4c39                	li	s8,14
    1052:	4a29                	li	s4,10
    1054:	4d05                	li	s10,1
    1056:	1cfd                	addi	s9,s9,-1
    1058:	03648c23          	sb	s6,56(s1) # 50000038 <_eusrstack+0x2fffb038>
    105c:	01748323          	sb	s7,6(s1)
    1060:	3e800413          	li	s0,1000
    1064:	a039                	j	1072 <USBFSH_Transact+0x44>
    1066:	147d                	addi	s0,s0,-1
    1068:	0442                	slli	s0,s0,0x10
    106a:	8041                	srli	s0,s0,0x10
    106c:	360060ef          	jal	ra,73cc <Delay_Us>
    1070:	c409                	beqz	s0,107a <USBFSH_Transact+0x4c>
    1072:	20fc                	lbu	a5,6(s1)
    1074:	4505                	li	a0,1
    1076:	8b89                	andi	a5,a5,2
    1078:	d7fd                	beqz	a5,1066 <USBFSH_Transact+0x38>
    107a:	02048c23          	sb	zero,56(s1)
    107e:	20fc                	lbu	a5,6(s1)
    1080:	8b89                	andi	a5,a5,2
    1082:	c79d                	beqz	a5,10b0 <USBFSH_Transact+0x82>
    1084:	30fc                	lbu	a5,7(s1)
    1086:	0407f793          	andi	a5,a5,64
    108a:	e7c9                	bnez	a5,1114 <USBFSH_Transact+0xe6>
    108c:	30fc                	lbu	a5,7(s1)
    108e:	0ff7f793          	andi	a5,a5,255
    1092:	00f7f513          	andi	a0,a5,15
    1096:	09850163          	beq	a0,s8,1118 <USBFSH_Transact+0xea>
    109a:	05450263          	beq	a0,s4,10de <USBFSH_Transact+0xb0>
    109e:	4725                	li	a4,9
    10a0:	00e98c63          	beq	s3,a4,10b8 <USBFSH_Transact+0x8a>
    10a4:	47b5                	li	a5,13
    10a6:	00f98d63          	beq	s3,a5,10c0 <USBFSH_Transact+0x92>
    10aa:	4785                	li	a5,1
    10ac:	00f98a63          	beq	s3,a5,10c0 <USBFSH_Transact+0x92>
    10b0:	0fe00513          	li	a0,254
    10b4:	8ccff06f          	j	180 <__riscv_restore_10>
    10b8:	8b9d                	andi	a5,a5,7
    10ba:	470d                	li	a4,3
    10bc:	00e78363          	beq	a5,a4,10c2 <USBFSH_Transact+0x94>
    10c0:	ed39                	bnez	a0,111e <USBFSH_Transact+0xf0>
    10c2:	4551                	li	a0,20
    10c4:	308060ef          	jal	ra,73cc <Delay_Us>
    10c8:	20fc                	lbu	a5,6(s1)
    10ca:	8b85                	andi	a5,a5,1
    10cc:	eb95                	bnez	a5,1100 <USBFSH_Transact+0xd2>
    10ce:	0905                	addi	s2,s2,1
    10d0:	0ff97913          	andi	s2,s2,255
    10d4:	f94912e3          	bne	s2,s4,1058 <USBFSH_Transact+0x2a>
    10d8:	02000513          	li	a0,32
    10dc:	bfe1                	j	10b4 <USBFSH_Transact+0x86>
    10de:	040a8363          	beqz	s5,1124 <USBFSH_Transact+0xf6>
    10e2:	019a8663          	beq	s5,s9,10ee <USBFSH_Transact+0xc0>
    10e6:	1afd                	addi	s5,s5,-1
    10e8:	0ac2                	slli	s5,s5,0x10
    10ea:	010ada93          	srli	s5,s5,0x10
    10ee:	4551                	li	a0,20
    10f0:	2dc060ef          	jal	ra,73cc <Delay_Us>
    10f4:	20fc                	lbu	a5,6(s1)
    10f6:	8b85                	andi	a5,a5,1
    10f8:	d3a5                	beqz	a5,1058 <USBFSH_Transact+0x2a>
    10fa:	197d                	addi	s2,s2,-1
    10fc:	0ff97913          	andi	s2,s2,255
    1100:	0c800513          	li	a0,200
    1104:	2c8060ef          	jal	ra,73cc <Delay_Us>
    1108:	309c                	lbu	a5,1(s1)
    110a:	8b85                	andi	a5,a5,1
    110c:	cf99                	beqz	a5,112a <USBFSH_Transact+0xfc>
    110e:	01a48323          	sb	s10,6(s1)
    1112:	bf75                	j	10ce <USBFSH_Transact+0xa0>
    1114:	4501                	li	a0,0
    1116:	bf79                	j	10b4 <USBFSH_Transact+0x86>
    1118:	02e00513          	li	a0,46
    111c:	bf61                	j	10b4 <USBFSH_Transact+0x86>
    111e:	02056513          	ori	a0,a0,32
    1122:	bf49                	j	10b4 <USBFSH_Transact+0x86>
    1124:	02a00513          	li	a0,42
    1128:	b771                	j	10b4 <USBFSH_Transact+0x86>
    112a:	4559                	li	a0,22
    112c:	b761                	j	10b4 <USBFSH_Transact+0x86>

0000112e <USBFSH_CtrlTransfer>:
    112e:	81aff2ef          	jal	t0,148 <__riscv_save_10>
    1132:	8b2a                	mv	s6,a0
    1134:	8932                	mv	s2,a2
    1136:	06400513          	li	a0,100
    113a:	842e                	mv	s0,a1
    113c:	290060ef          	jal	ra,73cc <Delay_Us>
    1140:	00090463          	beqz	s2,1148 <USBFSH_CtrlTransfer+0x1a>
    1144:	00091023          	sh	zero,0(s2)
    1148:	500004b7          	lui	s1,0x50000
    114c:	6989                	lui	s3,0x2
    114e:	47a1                	li	a5,8
    1150:	bcde                	sh	a5,60(s1)
    1152:	71098613          	addi	a2,s3,1808 # 2710 <i8080_execute+0x10fc>
    1156:	4581                	li	a1,0
    1158:	0d000513          	li	a0,208
    115c:	3dc9                	jal	102e <USBFSH_Transact>
    115e:	ed69                	bnez	a0,1238 <USBFSH_CtrlTransfer+0x10a>
    1160:	fd818a13          	addi	s4,gp,-40 # 20000848 <USBFS_TX_Buf>
    1164:	4791                	li	a5,4
    1166:	006a5b83          	lhu	s7,6(s4)
    116a:	02f48da3          	sb	a5,59(s1) # 5000003b <_eusrstack+0x2fffb03b>
    116e:	02f48f23          	sb	a5,62(s1)
    1172:	080b8363          	beqz	s7,11f8 <USBFSH_CtrlTransfer+0xca>
    1176:	c049                	beqz	s0,11f8 <USBFSH_CtrlTransfer+0xca>
    1178:	000a0783          	lb	a5,0(s4)
    117c:	010b1a93          	slli	s5,s6,0x10
    1180:	010ada93          	srli	s5,s5,0x10
    1184:	0a07cc63          	bltz	a5,123c <USBFSH_CtrlTransfer+0x10e>
    1188:	8b56                	mv	s6,s5
    118a:	71098993          	addi	s3,s3,1808
    118e:	06400513          	li	a0,100
    1192:	23a060ef          	jal	ra,73cc <Delay_Us>
    1196:	87da                	mv	a5,s6
    1198:	015bf363          	bgeu	s7,s5,119e <USBFSH_CtrlTransfer+0x70>
    119c:	87de                	mv	a5,s7
    119e:	bcde                	sh	a5,60(s1)
    11a0:	3cde                	lhu	a5,60(s1)
    11a2:	07c2                	slli	a5,a5,0x10
    11a4:	83c1                	srli	a5,a5,0x10
    11a6:	cf89                	beqz	a5,11c0 <USBFSH_CtrlTransfer+0x92>
    11a8:	4781                	li	a5,0
    11aa:	2014                	lbu	a3,0(s0)
    11ac:	00fa0733          	add	a4,s4,a5
    11b0:	0785                	addi	a5,a5,1
    11b2:	a314                	sb	a3,0(a4)
    11b4:	3cda                	lhu	a4,60(s1)
    11b6:	07c2                	slli	a5,a5,0x10
    11b8:	83c1                	srli	a5,a5,0x10
    11ba:	0405                	addi	s0,s0,1
    11bc:	fee797e3          	bne	a5,a4,11aa <USBFSH_CtrlTransfer+0x7c>
    11c0:	03e4c583          	lbu	a1,62(s1)
    11c4:	864e                	mv	a2,s3
    11c6:	4541                	li	a0,16
    11c8:	359d                	jal	102e <USBFSH_Transact>
    11ca:	e53d                	bnez	a0,1238 <USBFSH_CtrlTransfer+0x10a>
    11cc:	03e4c783          	lbu	a5,62(s1)
    11d0:	0047c793          	xori	a5,a5,4
    11d4:	02f48f23          	sb	a5,62(s1)
    11d8:	3cde                	lhu	a5,60(s1)
    11da:	40fb8bb3          	sub	s7,s7,a5
    11de:	0bc2                	slli	s7,s7,0x10
    11e0:	010bdb93          	srli	s7,s7,0x10
    11e4:	00090863          	beqz	s2,11f4 <USBFSH_CtrlTransfer+0xc6>
    11e8:	3cde                	lhu	a5,60(s1)
    11ea:	00095703          	lhu	a4,0(s2)
    11ee:	97ba                	add	a5,a5,a4
    11f0:	00f91023          	sh	a5,0(s2)
    11f4:	f80b9de3          	bnez	s7,118e <USBFSH_CtrlTransfer+0x60>
    11f8:	06400513          	li	a0,100
    11fc:	1d0060ef          	jal	ra,73cc <Delay_Us>
    1200:	50000437          	lui	s0,0x50000
    1204:	3c5e                	lhu	a5,60(s0)
    1206:	6609                	lui	a2,0x2
    1208:	71060613          	addi	a2,a2,1808 # 2710 <i8080_execute+0x10fc>
    120c:	01079513          	slli	a0,a5,0x10
    1210:	8141                	srli	a0,a0,0x10
    1212:	00a03533          	snez	a0,a0
    1216:	40a00533          	neg	a0,a0
    121a:	08057513          	andi	a0,a0,128
    121e:	4591                	li	a1,4
    1220:	0541                	addi	a0,a0,16
    1222:	3531                	jal	102e <USBFSH_Transact>
    1224:	e911                	bnez	a0,1238 <USBFSH_CtrlTransfer+0x10a>
    1226:	3c5e                	lhu	a5,60(s0)
    1228:	07c2                	slli	a5,a5,0x10
    122a:	83c1                	srli	a5,a5,0x10
    122c:	c791                	beqz	a5,1238 <USBFSH_CtrlTransfer+0x10a>
    122e:	241e                	lhu	a5,8(s0)
    1230:	07c2                	slli	a5,a5,0x10
    1232:	83c1                	srli	a5,a5,0x10
    1234:	c391                	beqz	a5,1238 <USBFSH_CtrlTransfer+0x10a>
    1236:	455d                	li	a0,23
    1238:	f49fe06f          	j	180 <__riscv_restore_10>
    123c:	50000ab7          	lui	s5,0x50000
    1240:	71098993          	addi	s3,s3,1808
    1244:	1b7d                	addi	s6,s6,-1
    1246:	06400513          	li	a0,100
    124a:	182060ef          	jal	ra,73cc <Delay_Us>
    124e:	03bac583          	lbu	a1,59(s5) # 5000003b <_eusrstack+0x2fffb03b>
    1252:	864e                	mv	a2,s3
    1254:	09000513          	li	a0,144
    1258:	3bd9                	jal	102e <USBFSH_Transact>
    125a:	fd79                	bnez	a0,1238 <USBFSH_CtrlTransfer+0x10a>
    125c:	03bac783          	lbu	a5,59(s5)
    1260:	0047c793          	xori	a5,a5,4
    1264:	02fa8da3          	sb	a5,59(s5)
    1268:	008ad783          	lhu	a5,8(s5)
    126c:	0777f363          	bgeu	a5,s7,12d2 <USBFSH_CtrlTransfer+0x1a4>
    1270:	008ad783          	lhu	a5,8(s5)
    1274:	07c2                	slli	a5,a5,0x10
    1276:	83c1                	srli	a5,a5,0x10
    1278:	40fb8bb3          	sub	s7,s7,a5
    127c:	0bc2                	slli	s7,s7,0x10
    127e:	010bdb93          	srli	s7,s7,0x10
    1282:	00090763          	beqz	s2,1290 <USBFSH_CtrlTransfer+0x162>
    1286:	00095703          	lhu	a4,0(s2)
    128a:	973e                	add	a4,a4,a5
    128c:	00e91023          	sh	a4,0(s2)
    1290:	c385                	beqz	a5,12b0 <USBFSH_CtrlTransfer+0x182>
    1292:	fff78713          	addi	a4,a5,-1
    1296:	0742                	slli	a4,a4,0x10
    1298:	8341                	srli	a4,a4,0x10
    129a:	0705                	addi	a4,a4,1
    129c:	f9818793          	addi	a5,gp,-104 # 20000808 <USBFS_RX_Buf>
    12a0:	9722                	add	a4,a4,s0
    12a2:	2394                	lbu	a3,0(a5)
    12a4:	0405                	addi	s0,s0,1
    12a6:	0785                	addi	a5,a5,1
    12a8:	fed40fa3          	sb	a3,-1(s0) # 4fffffff <_eusrstack+0x2fffafff>
    12ac:	fee41be3          	bne	s0,a4,12a2 <USBFSH_CtrlTransfer+0x174>
    12b0:	008ad783          	lhu	a5,8(s5)
    12b4:	07c2                	slli	a5,a5,0x10
    12b6:	83c1                	srli	a5,a5,0x10
    12b8:	cb81                	beqz	a5,12c8 <USBFSH_CtrlTransfer+0x19a>
    12ba:	008ad783          	lhu	a5,8(s5)
    12be:	00fb77b3          	and	a5,s6,a5
    12c2:	e399                	bnez	a5,12c8 <USBFSH_CtrlTransfer+0x19a>
    12c4:	f80b91e3          	bnez	s7,1246 <USBFSH_CtrlTransfer+0x118>
    12c8:	500007b7          	lui	a5,0x50000
    12cc:	02079e23          	sh	zero,60(a5) # 5000003c <_eusrstack+0x2fffb03c>
    12d0:	b725                	j	11f8 <USBFSH_CtrlTransfer+0xca>
    12d2:	87de                	mv	a5,s7
    12d4:	4b81                	li	s7,0
    12d6:	fa0918e3          	bnez	s2,1286 <USBFSH_CtrlTransfer+0x158>
    12da:	bf65                	j	1292 <USBFSH_CtrlTransfer+0x164>

000012dc <USBFSH_GetDeviceDescr>:
    12dc:	e95fe2ef          	jal	t0,170 <__riscv_save_0>
    12e0:	82418413          	addi	s0,gp,-2012 # 20000094 <SetupGetDevDesc>
    12e4:	47a1                	li	a5,8
    12e6:	4014                	lw	a3,0(s0)
    12e8:	4058                	lw	a4,4(s0)
    12ea:	a11c                	sb	a5,0(a0)
    12ec:	fd818793          	addi	a5,gp,-40 # 20000848 <USBFS_TX_Buf>
    12f0:	c394                	sw	a3,0(a5)
    12f2:	c3d8                	sw	a4,4(a5)
    12f4:	84aa                	mv	s1,a0
    12f6:	2108                	lbu	a0,0(a0)
    12f8:	1141                	addi	sp,sp,-16
    12fa:	00e10613          	addi	a2,sp,14
    12fe:	892e                	mv	s2,a1
    1300:	353d                	jal	112e <USBFSH_CtrlTransfer>
    1302:	e901                	bnez	a0,1312 <USBFSH_GetDeviceDescr+0x36>
    1304:	00794683          	lbu	a3,7(s2)
    1308:	207a                	lhu	a4,6(s0)
    130a:	873c                	lhu	a5,14(sp)
    130c:	a094                	sb	a3,0(s1)
    130e:	00e7e563          	bltu	a5,a4,1318 <USBFSH_GetDeviceDescr+0x3c>
    1312:	0141                	addi	sp,sp,16
    1314:	e81fe06f          	j	194 <__riscv_restore_0>
    1318:	455d                	li	a0,23
    131a:	0141                	addi	sp,sp,16
    131c:	e79fe06f          	j	194 <__riscv_restore_0>

00001320 <USBFSH_GetConfigDescr>:
    1320:	e37fe2ef          	jal	t0,156 <__riscv_save_4>
    1324:	81c18413          	addi	s0,gp,-2020 # 2000008c <SetupGetCfgDesc>
    1328:	4018                	lw	a4,0(s0)
    132a:	405c                	lw	a5,4(s0)
    132c:	fd818493          	addi	s1,gp,-40 # 20000848 <USBFS_TX_Buf>
    1330:	8a32                	mv	s4,a2
    1332:	8636                	mv	a2,a3
    1334:	8936                	mv	s2,a3
    1336:	8aaa                	mv	s5,a0
    1338:	89ae                	mv	s3,a1
    133a:	c098                	sw	a4,0(s1)
    133c:	c0dc                	sw	a5,4(s1)
    133e:	3bc5                	jal	112e <USBFSH_CtrlTransfer>
    1340:	ed0d                	bnez	a0,137a <USBFSH_GetConfigDescr+0x5a>
    1342:	00095703          	lhu	a4,0(s2)
    1346:	207e                	lhu	a5,6(s0)
    1348:	455d                	li	a0,23
    134a:	02f76863          	bltu	a4,a5,137a <USBFSH_GetConfigDescr+0x5a>
    134e:	0039c783          	lbu	a5,3(s3)
    1352:	0029c703          	lbu	a4,2(s3)
    1356:	07a2                	slli	a5,a5,0x8
    1358:	8fd9                	or	a5,a5,a4
    135a:	873e                	mv	a4,a5
    135c:	02fa6163          	bltu	s4,a5,137e <USBFSH_GetConfigDescr+0x5e>
    1360:	405c                	lw	a5,4(s0)
    1362:	4014                	lw	a3,0(s0)
    1364:	00e91023          	sh	a4,0(s2)
    1368:	c0dc                	sw	a5,4(s1)
    136a:	c094                	sw	a3,0(s1)
    136c:	00095783          	lhu	a5,0(s2)
    1370:	864a                	mv	a2,s2
    1372:	85ce                	mv	a1,s3
    1374:	8556                	mv	a0,s5
    1376:	a0fe                	sh	a5,6(s1)
    1378:	3b5d                	jal	112e <USBFSH_CtrlTransfer>
    137a:	e11fe06f          	j	18a <__riscv_restore_4>
    137e:	8752                	mv	a4,s4
    1380:	b7c5                	j	1360 <USBFSH_GetConfigDescr+0x40>

00001382 <USBFSH_GetStrDescr>:
    1382:	dd5fe2ef          	jal	t0,156 <__riscv_save_4>
    1386:	82c18793          	addi	a5,gp,-2004 # 2000009c <SetupGetStrDesc>
    138a:	0007aa03          	lw	s4,0(a5)
    138e:	0047a983          	lw	s3,4(a5)
    1392:	fd818413          	addi	s0,gp,-40 # 20000848 <USBFS_TX_Buf>
    1396:	1141                	addi	sp,sp,-16
    1398:	84b2                	mv	s1,a2
    139a:	3005e913          	ori	s2,a1,768
    139e:	01442023          	sw	s4,0(s0)
    13a2:	00e10613          	addi	a2,sp,14
    13a6:	85a6                	mv	a1,s1
    13a8:	8aaa                	mv	s5,a0
    13aa:	01342223          	sw	s3,4(s0)
    13ae:	01241123          	sh	s2,2(s0)
    13b2:	3bb5                	jal	112e <USBFSH_CtrlTransfer>
    13b4:	ed19                	bnez	a0,13d2 <USBFSH_GetStrDescr+0x50>
    13b6:	209c                	lbu	a5,0(s1)
    13b8:	00e10613          	addi	a2,sp,14
    13bc:	01442023          	sw	s4,0(s0)
    13c0:	01342223          	sw	s3,4(s0)
    13c4:	85a6                	mv	a1,s1
    13c6:	8556                	mv	a0,s5
    13c8:	877c                	sh	a5,14(sp)
    13ca:	01241123          	sh	s2,2(s0)
    13ce:	a07e                	sh	a5,6(s0)
    13d0:	3bb9                	jal	112e <USBFSH_CtrlTransfer>
    13d2:	0141                	addi	sp,sp,16
    13d4:	db7fe06f          	j	18a <__riscv_restore_4>

000013d8 <USBFSH_SetUsbAddress>:
    13d8:	d99fe2ef          	jal	t0,170 <__riscv_save_0>
    13dc:	83418793          	addi	a5,gp,-1996 # 200000a4 <SetupSetAddr>
    13e0:	4394                	lw	a3,0(a5)
    13e2:	43d8                	lw	a4,4(a5)
    13e4:	fd818793          	addi	a5,gp,-40 # 20000848 <USBFS_TX_Buf>
    13e8:	842e                	mv	s0,a1
    13ea:	c394                	sw	a3,0(a5)
    13ec:	4601                	li	a2,0
    13ee:	4581                	li	a1,0
    13f0:	c3d8                	sw	a4,4(a5)
    13f2:	a3a2                	sh	s0,2(a5)
    13f4:	3b2d                	jal	112e <USBFSH_CtrlTransfer>
    13f6:	84aa                	mv	s1,a0
    13f8:	ed09                	bnez	a0,1412 <USBFSH_SetUsbAddress+0x3a>
    13fa:	50000737          	lui	a4,0x50000
    13fe:	333c                	lbu	a5,3(a4)
    1400:	07f47413          	andi	s0,s0,127
    1404:	4515                	li	a0,5
    1406:	0807f793          	andi	a5,a5,128
    140a:	8c5d                	or	s0,s0,a5
    140c:	b320                	sb	s0,3(a4)
    140e:	7f9050ef          	jal	ra,7406 <Delay_Ms>
    1412:	8526                	mv	a0,s1
    1414:	d81fe06f          	j	194 <__riscv_restore_0>

00001418 <USBFSH_SetUsbConfig>:
    1418:	d59fe2ef          	jal	t0,170 <__riscv_save_0>
    141c:	83c18713          	addi	a4,gp,-1988 # 200000ac <SetupSetConfig>
    1420:	4314                	lw	a3,0(a4)
    1422:	4358                	lw	a4,4(a4)
    1424:	fd818793          	addi	a5,gp,-40 # 20000848 <USBFS_TX_Buf>
    1428:	c394                	sw	a3,0(a5)
    142a:	a3ae                	sh	a1,2(a5)
    142c:	4601                	li	a2,0
    142e:	4581                	li	a1,0
    1430:	c3d8                	sw	a4,4(a5)
    1432:	39f5                	jal	112e <USBFSH_CtrlTransfer>
    1434:	d61fe06f          	j	194 <__riscv_restore_0>

00001438 <USBFSH_ClearEndpStall>:
    1438:	d39fe2ef          	jal	t0,170 <__riscv_save_0>
    143c:	81418713          	addi	a4,gp,-2028 # 20000084 <SetupClearEndpStall>
    1440:	4354                	lw	a3,4(a4)
    1442:	4318                	lw	a4,0(a4)
    1444:	fd818793          	addi	a5,gp,-40 # 20000848 <USBFS_TX_Buf>
    1448:	c3d4                	sw	a3,4(a5)
    144a:	a3ce                	sh	a1,4(a5)
    144c:	4601                	li	a2,0
    144e:	4581                	li	a1,0
    1450:	c398                	sw	a4,0(a5)
    1452:	39f1                	jal	112e <USBFSH_CtrlTransfer>
    1454:	d41fe06f          	j	194 <__riscv_restore_0>

00001458 <USBFSH_GetEndpData>:
    1458:	cfffe2ef          	jal	t0,156 <__riscv_save_4>
    145c:	84ae                	mv	s1,a1
    145e:	218c                	lbu	a1,0(a1)
    1460:	8932                	mv	s2,a2
    1462:	09056513          	ori	a0,a0,144
    1466:	4601                	li	a2,0
    1468:	89b6                	mv	s3,a3
    146a:	36d1                	jal	102e <USBFSH_Transact>
    146c:	842a                	mv	s0,a0
    146e:	c501                	beqz	a0,1476 <USBFSH_GetEndpData+0x1e>
    1470:	8522                	mv	a0,s0
    1472:	d19fe06f          	j	18a <__riscv_restore_4>
    1476:	500007b7          	lui	a5,0x50000
    147a:	2792                	lhu	a2,8(a5)
    147c:	f9818593          	addi	a1,gp,-104 # 20000808 <USBFS_RX_Buf>
    1480:	0642                	slli	a2,a2,0x10
    1482:	8241                	srli	a2,a2,0x10
    1484:	00c99023          	sh	a2,0(s3)
    1488:	854a                	mv	a0,s2
    148a:	042060ef          	jal	ra,74cc <memcpy>
    148e:	209c                	lbu	a5,0(s1)
    1490:	8522                	mv	a0,s0
    1492:	0047c793          	xori	a5,a5,4
    1496:	a09c                	sb	a5,0(s1)
    1498:	cf3fe06f          	j	18a <__riscv_restore_4>

0000149c <USBFSH_SendEndpData>:
    149c:	cd5fe2ef          	jal	t0,170 <__riscv_save_0>
    14a0:	87b2                	mv	a5,a2
    14a2:	892a                	mv	s2,a0
    14a4:	842e                	mv	s0,a1
    14a6:	8636                	mv	a2,a3
    14a8:	85be                	mv	a1,a5
    14aa:	fd818513          	addi	a0,gp,-40 # 20000848 <USBFS_TX_Buf>
    14ae:	84b6                	mv	s1,a3
    14b0:	01c060ef          	jal	ra,74cc <memcpy>
    14b4:	500007b7          	lui	a5,0x50000
    14b8:	bfc6                	sh	s1,60(a5)
    14ba:	200c                	lbu	a1,0(s0)
    14bc:	4601                	li	a2,0
    14be:	01096513          	ori	a0,s2,16
    14c2:	36b5                	jal	102e <USBFSH_Transact>
    14c4:	e509                	bnez	a0,14ce <USBFSH_SendEndpData+0x32>
    14c6:	201c                	lbu	a5,0(s0)
    14c8:	0047c793          	xori	a5,a5,4
    14cc:	a01c                	sb	a5,0(s0)
    14ce:	cc7fe06f          	j	194 <__riscv_restore_0>

000014d2 <HID_GetHidDesr>:
    14d2:	c9ffe2ef          	jal	t0,170 <__riscv_save_0>
    14d6:	84418793          	addi	a5,gp,-1980 # 200000b4 <SetupGetHidDes>
    14da:	0047a883          	lw	a7,4(a5) # 50000004 <_eusrstack+0x2fffb004>
    14de:	0007a803          	lw	a6,0(a5)
    14e2:	fd818793          	addi	a5,gp,-40 # 20000848 <USBFS_TX_Buf>
    14e6:	0117a223          	sw	a7,4(a5)
    14ea:	a3ce                	sh	a1,4(a5)
    14ec:	fd01ac23          	sw	a6,-40(gp) # 20000848 <USBFS_TX_Buf>
    14f0:	229a                	lhu	a4,0(a3)
    14f2:	85b2                	mv	a1,a2
    14f4:	8636                	mv	a2,a3
    14f6:	a3fa                	sh	a4,6(a5)
    14f8:	391d                	jal	112e <USBFSH_CtrlTransfer>
    14fa:	c9bfe06f          	j	194 <__riscv_restore_0>

000014fe <HID_SetReport>:
    14fe:	c73fe2ef          	jal	t0,170 <__riscv_save_0>
    1502:	84c18793          	addi	a5,gp,-1972 # 200000bc <SetupSetReport>
    1506:	0047a303          	lw	t1,4(a5)
    150a:	fd818813          	addi	a6,gp,-40 # 20000848 <USBFS_TX_Buf>
    150e:	439c                	lw	a5,0(a5)
    1510:	88b2                	mv	a7,a2
    1512:	00682223          	sw	t1,4(a6)
    1516:	00b81223          	sh	a1,4(a6)
    151a:	8636                	mv	a2,a3
    151c:	85c6                	mv	a1,a7
    151e:	fcf1ac23          	sw	a5,-40(gp) # 20000848 <USBFS_TX_Buf>
    1522:	3131                	jal	112e <USBFSH_CtrlTransfer>
    1524:	c71fe06f          	j	194 <__riscv_restore_0>

00001528 <HID_SetIdle>:
    1528:	c49fe2ef          	jal	t0,170 <__riscv_save_0>
    152c:	85418793          	addi	a5,gp,-1964 # 200000c4 <SetupSetidle>
    1530:	0047a883          	lw	a7,4(a5)
    1534:	0007a803          	lw	a6,0(a5)
    1538:	fd818793          	addi	a5,gp,-40 # 20000848 <USBFS_TX_Buf>
    153c:	0117a223          	sw	a7,4(a5)
    1540:	0622                	slli	a2,a2,0x8
    1542:	fd01ac23          	sw	a6,-40(gp) # 20000848 <USBFS_TX_Buf>
    1546:	8ed1                	or	a3,a3,a2
    1548:	a3ce                	sh	a1,4(a5)
    154a:	4601                	li	a2,0
    154c:	4581                	li	a1,0
    154e:	a3b6                	sh	a3,2(a5)
    1550:	3ef9                	jal	112e <USBFSH_CtrlTransfer>
    1552:	c43fe06f          	j	194 <__riscv_restore_0>

00001556 <HUB_GetPortStatus>:
    1556:	c1bfe2ef          	jal	t0,170 <__riscv_save_0>
    155a:	86c18793          	addi	a5,gp,-1940 # 200000dc <GetPortStatus>
    155e:	0047a883          	lw	a7,4(a5)
    1562:	fd818693          	addi	a3,gp,-40 # 20000848 <USBFS_TX_Buf>
    1566:	439c                	lw	a5,0(a5)
    1568:	1141                	addi	sp,sp,-16
    156a:	8832                	mv	a6,a2
    156c:	0116a223          	sw	a7,4(a3)
    1570:	a2ce                	sh	a1,4(a3)
    1572:	00e10613          	addi	a2,sp,14
    1576:	85c2                	mv	a1,a6
    1578:	fcf1ac23          	sw	a5,-40(gp) # 20000848 <USBFS_TX_Buf>
    157c:	bb3ff0ef          	jal	ra,112e <USBFSH_CtrlTransfer>
    1580:	0141                	addi	sp,sp,16
    1582:	c13fe06f          	j	194 <__riscv_restore_0>

00001586 <HUB_ClearPortFeature>:
    1586:	bebfe2ef          	jal	t0,170 <__riscv_save_0>
    158a:	85c18793          	addi	a5,gp,-1956 # 200000cc <ClearPortFeature>
    158e:	0007a803          	lw	a6,0(a5)
    1592:	43d4                	lw	a3,4(a5)
    1594:	fd818793          	addi	a5,gp,-40 # 20000848 <USBFS_TX_Buf>
    1598:	fd01ac23          	sw	a6,-40(gp) # 20000848 <USBFS_TX_Buf>
    159c:	c3d4                	sw	a3,4(a5)
    159e:	a3b2                	sh	a2,2(a5)
    15a0:	a3ce                	sh	a1,4(a5)
    15a2:	4601                	li	a2,0
    15a4:	4581                	li	a1,0
    15a6:	b89ff0ef          	jal	ra,112e <USBFSH_CtrlTransfer>
    15aa:	bebfe06f          	j	194 <__riscv_restore_0>

000015ae <HUB_SetPortFeature>:
    15ae:	bc3fe2ef          	jal	t0,170 <__riscv_save_0>
    15b2:	87418793          	addi	a5,gp,-1932 # 200000e4 <SetPortFeature>
    15b6:	0007a803          	lw	a6,0(a5)
    15ba:	43d4                	lw	a3,4(a5)
    15bc:	fd818793          	addi	a5,gp,-40 # 20000848 <USBFS_TX_Buf>
    15c0:	fd01ac23          	sw	a6,-40(gp) # 20000848 <USBFS_TX_Buf>
    15c4:	c3d4                	sw	a3,4(a5)
    15c6:	a3b2                	sh	a2,2(a5)
    15c8:	a3ce                	sh	a1,4(a5)
    15ca:	4601                	li	a2,0
    15cc:	4581                	li	a1,0
    15ce:	b61ff0ef          	jal	ra,112e <USBFSH_CtrlTransfer>
    15d2:	bc3fe06f          	j	194 <__riscv_restore_0>

000015d6 <HUB_GetClassDevDescr>:
    15d6:	b81fe2ef          	jal	t0,156 <__riscv_save_4>
    15da:	86418793          	addi	a5,gp,-1948 # 200000d4 <GetHubDescr>
    15de:	4394                	lw	a3,0(a5)
    15e0:	43d8                	lw	a4,4(a5)
    15e2:	fd818413          	addi	s0,gp,-40 # 20000848 <USBFS_TX_Buf>
    15e6:	fcd1ac23          	sw	a3,-40(gp) # 20000848 <USBFS_TX_Buf>
    15ea:	89aa                	mv	s3,a0
    15ec:	892e                	mv	s2,a1
    15ee:	84b2                	mv	s1,a2
    15f0:	c058                	sw	a4,4(s0)
    15f2:	b3dff0ef          	jal	ra,112e <USBFSH_CtrlTransfer>
    15f6:	e911                	bnez	a0,160a <HUB_GetClassDevDescr+0x34>
    15f8:	00094783          	lbu	a5,0(s2)
    15fc:	8626                	mv	a2,s1
    15fe:	85ca                	mv	a1,s2
    1600:	a09e                	sh	a5,0(s1)
    1602:	854e                	mv	a0,s3
    1604:	a07e                	sh	a5,6(s0)
    1606:	b29ff0ef          	jal	ra,112e <USBFSH_CtrlTransfer>
    160a:	b81fe06f          	j	18a <__riscv_restore_4>

0000160e <NMI_Handler>:
    160e:	30200073          	mret

00001612 <HardFault_Handler>:
    1612:	a001                	j	1612 <HardFault_Handler>

00001614 <i8080_execute>:
    1614:	b43fe2ef          	jal	t0,156 <__riscv_save_4>
    1618:	67a1                	lui	a5,0x8
    161a:	46878793          	addi	a5,a5,1128 # 8468 <OPCODES_CYCLES>
    161e:	97ae                	add	a5,a5,a1
    1620:	4958                	lw	a4,20(a0)
    1622:	239c                	lbu	a5,0(a5)
    1624:	02554683          	lbu	a3,37(a0) # 1025 <USBFSH_EnableRootHubPort+0x47>
    1628:	842a                	mv	s0,a0
    162a:	97ba                	add	a5,a5,a4
    162c:	c95c                	sw	a5,20(a0)
    162e:	c681                	beqz	a3,1636 <i8080_execute+0x22>
    1630:	16fd                	addi	a3,a3,-1
    1632:	02d502a3          	sb	a3,37(a0)
    1636:	67a1                	lui	a5,0x8
    1638:	06878793          	addi	a5,a5,104 # 8068 <_read+0x10>
    163c:	058a                	slli	a1,a1,0x2
    163e:	95be                	add	a1,a1,a5
    1640:	419c                	lw	a5,0(a1)
    1642:	8782                	jr	a5
    1644:	01845983          	lhu	s3,24(s0)
    1648:	401c                	lw	a5,0(s0)
    164a:	4808                	lw	a0,16(s0)
    164c:	00198593          	addi	a1,s3,1
    1650:	05c2                	slli	a1,a1,0x10
    1652:	5004                	lw	s1,32(s0)
    1654:	81c1                	srli	a1,a1,0x10
    1656:	9782                	jalr	a5
    1658:	892a                	mv	s2,a0
    165a:	401c                	lw	a5,0(s0)
    165c:	4808                	lw	a0,16(s0)
    165e:	80e5                	srli	s1,s1,0x19
    1660:	8885                	andi	s1,s1,1
    1662:	85ce                	mv	a1,s3
    1664:	9782                	jalr	a5
    1666:	e099                	bnez	s1,166c <i8080_execute+0x58>
    1668:	5110306f          	j	5378 <i8080_execute+0x3d64>
    166c:	2c1e                	lhu	a5,24(s0)
    166e:	0789                	addi	a5,a5,2
    1670:	ac1e                	sh	a5,24(s0)
    1672:	b19fe06f          	j	18a <__riscv_restore_4>
    1676:	2c0e                	lhu	a1,24(s0)
    1678:	401c                	lw	a5,0(s0)
    167a:	4808                	lw	a0,16(s0)
    167c:	00158713          	addi	a4,a1,1
    1680:	ac1a                	sh	a4,24(s0)
    1682:	9782                	jalr	a5
    1684:	2c58                	lbu	a4,28(s0)
    1686:	02344683          	lbu	a3,35(s0)
    168a:	4781                	li	a5,0
    168c:	8f49                	or	a4,a4,a0
    168e:	0ff77613          	andi	a2,a4,255
    1692:	00163713          	seqz	a4,a2
    1696:	00171593          	slli	a1,a4,0x1
    169a:	0e86f713          	andi	a4,a3,232
    169e:	8f4d                	or	a4,a4,a1
    16a0:	00765693          	srli	a3,a2,0x7
    16a4:	8f55                	or	a4,a4,a3
    16a6:	02e401a3          	sb	a4,35(s0)
    16aa:	ac50                	sb	a2,28(s0)
    16ac:	4701                	li	a4,0
    16ae:	45a1                	li	a1,8
    16b0:	40e656b3          	sra	a3,a2,a4
    16b4:	8a85                	andi	a3,a3,1
    16b6:	97b6                	add	a5,a5,a3
    16b8:	0705                	addi	a4,a4,1
    16ba:	0ff7f793          	andi	a5,a5,255
    16be:	feb719e3          	bne	a4,a1,16b0 <i8080_execute+0x9c>
    16c2:	02344703          	lbu	a4,35(s0)
    16c6:	fff7c793          	not	a5,a5
    16ca:	8b85                	andi	a5,a5,1
    16cc:	078e                	slli	a5,a5,0x3
    16ce:	9b5d                	andi	a4,a4,-9
    16d0:	8fd9                	or	a5,a5,a4
    16d2:	02f401a3          	sb	a5,35(s0)
    16d6:	bf71                	j	1672 <i8080_execute+0x5e>
    16d8:	5018                	lw	a4,32(s0)
    16da:	2c44                	lbu	s1,28(s0)
    16dc:	01a45903          	lhu	s2,26(s0)
    16e0:	01175793          	srli	a5,a4,0x11
    16e4:	01375693          	srli	a3,a4,0x13
    16e8:	0406f693          	andi	a3,a3,64
    16ec:	01675613          	srli	a2,a4,0x16
    16f0:	0807f793          	andi	a5,a5,128
    16f4:	8fd5                	or	a5,a5,a3
    16f6:	8a41                	andi	a2,a2,16
    16f8:	01975693          	srli	a3,a4,0x19
    16fc:	8fd1                	or	a5,a5,a2
    16fe:	8a91                	andi	a3,a3,4
    1700:	8371                	srli	a4,a4,0x1c
    1702:	8fd5                	or	a5,a5,a3
    1704:	8b05                	andi	a4,a4,1
    1706:	8fd9                	or	a5,a5,a4
    1708:	04a2                	slli	s1,s1,0x8
    170a:	0027e793          	ori	a5,a5,2
    170e:	8fc5                	or	a5,a5,s1
    1710:	ffe90713          	addi	a4,s2,-2
    1714:	4808                	lw	a0,16(s0)
    1716:	01079493          	slli	s1,a5,0x10
    171a:	4054                	lw	a3,4(s0)
    171c:	0742                	slli	a4,a4,0x10
    171e:	8341                	srli	a4,a4,0x10
    1720:	84c1                	srai	s1,s1,0x10
    1722:	0d74f613          	andi	a2,s1,215
    1726:	85ba                	mv	a1,a4
    1728:	ac3a                	sh	a4,26(s0)
    172a:	9682                	jalr	a3
    172c:	01049613          	slli	a2,s1,0x10
    1730:	fff90593          	addi	a1,s2,-1
    1734:	4808                	lw	a0,16(s0)
    1736:	405c                	lw	a5,4(s0)
    1738:	8241                	srli	a2,a2,0x10
    173a:	05c2                	slli	a1,a1,0x10
    173c:	8221                	srli	a2,a2,0x8
    173e:	81c1                	srli	a1,a1,0x10
    1740:	9782                	jalr	a5
    1742:	bf05                	j	1672 <i8080_execute+0x5e>
    1744:	2c06                	lhu	s1,24(s0)
    1746:	401c                	lw	a5,0(s0)
    1748:	4808                	lw	a0,16(s0)
    174a:	00148593          	addi	a1,s1,1
    174e:	05c2                	slli	a1,a1,0x10
    1750:	81c1                	srli	a1,a1,0x10
    1752:	02344903          	lbu	s2,35(s0)
    1756:	9782                	jalr	a5
    1758:	89aa                	mv	s3,a0
    175a:	401c                	lw	a5,0(s0)
    175c:	4808                	lw	a0,16(s0)
    175e:	85a6                	mv	a1,s1
    1760:	00197913          	andi	s2,s2,1
    1764:	9782                	jalr	a5
    1766:	2c06                	lhu	s1,24(s0)
    1768:	8a2a                	mv	s4,a0
    176a:	0489                	addi	s1,s1,2
    176c:	04c2                	slli	s1,s1,0x10
    176e:	80c1                	srli	s1,s1,0x10
    1770:	ac06                	sh	s1,24(s0)
    1772:	f00910e3          	bnez	s2,1672 <i8080_execute+0x5e>
    1776:	01a45903          	lhu	s2,26(s0)
    177a:	4058                	lw	a4,4(s0)
    177c:	4808                	lw	a0,16(s0)
    177e:	ffe90793          	addi	a5,s2,-2
    1782:	07c2                	slli	a5,a5,0x10
    1784:	83c1                	srli	a5,a5,0x10
    1786:	85be                	mv	a1,a5
    1788:	0ff4f613          	andi	a2,s1,255
    178c:	ac3e                	sh	a5,26(s0)
    178e:	9702                	jalr	a4
    1790:	405c                	lw	a5,4(s0)
    1792:	4808                	lw	a0,16(s0)
    1794:	fff90593          	addi	a1,s2,-1
    1798:	05c2                	slli	a1,a1,0x10
    179a:	0084d613          	srli	a2,s1,0x8
    179e:	81c1                	srli	a1,a1,0x10
    17a0:	9782                	jalr	a5
    17a2:	4858                	lw	a4,20(s0)
    17a4:	00899793          	slli	a5,s3,0x8
    17a8:	0147e7b3          	or	a5,a5,s4
    17ac:	0719                	addi	a4,a4,6
    17ae:	ac1e                	sh	a5,24(s0)
    17b0:	c858                	sw	a4,20(s0)
    17b2:	b5c1                	j	1672 <i8080_execute+0x5e>
    17b4:	02344783          	lbu	a5,35(s0)
    17b8:	fdf7f793          	andi	a5,a5,-33
    17bc:	02f401a3          	sb	a5,35(s0)
    17c0:	bd4d                	j	1672 <i8080_execute+0x5e>
    17c2:	01845983          	lhu	s3,24(s0)
    17c6:	401c                	lw	a5,0(s0)
    17c8:	4808                	lw	a0,16(s0)
    17ca:	00198593          	addi	a1,s3,1
    17ce:	05c2                	slli	a1,a1,0x10
    17d0:	81c1                	srli	a1,a1,0x10
    17d2:	02344483          	lbu	s1,35(s0)
    17d6:	9782                	jalr	a5
    17d8:	892a                	mv	s2,a0
    17da:	401c                	lw	a5,0(s0)
    17dc:	4808                	lw	a0,16(s0)
    17de:	8885                	andi	s1,s1,1
    17e0:	85ce                	mv	a1,s3
    17e2:	9782                	jalr	a5
    17e4:	e099                	bnez	s1,17ea <i8080_execute+0x1d6>
    17e6:	3af0306f          	j	5394 <i8080_execute+0x3d80>
    17ea:	2c1e                	lhu	a5,24(s0)
    17ec:	0789                	addi	a5,a5,2
    17ee:	ac1e                	sh	a5,24(s0)
    17f0:	b549                	j	1672 <i8080_execute+0x5e>
    17f2:	01a45903          	lhu	s2,26(s0)
    17f6:	401c                	lw	a5,0(s0)
    17f8:	4808                	lw	a0,16(s0)
    17fa:	00190593          	addi	a1,s2,1
    17fe:	05c2                	slli	a1,a1,0x10
    1800:	81c1                	srli	a1,a1,0x10
    1802:	9782                	jalr	a5
    1804:	84aa                	mv	s1,a0
    1806:	401c                	lw	a5,0(s0)
    1808:	4808                	lw	a0,16(s0)
    180a:	85ca                	mv	a1,s2
    180c:	04a2                	slli	s1,s1,0x8
    180e:	9782                	jalr	a5
    1810:	8cc9                	or	s1,s1,a0
    1812:	02344783          	lbu	a5,35(s0)
    1816:	01049713          	slli	a4,s1,0x10
    181a:	8741                	srai	a4,a4,0x10
    181c:	0ff77693          	andi	a3,a4,255
    1820:	0076d593          	srli	a1,a3,0x7
    1824:	0056d613          	srli	a2,a3,0x5
    1828:	0fc7f793          	andi	a5,a5,252
    182c:	8a09                	andi	a2,a2,2
    182e:	8fcd                	or	a5,a5,a1
    1830:	8fd1                	or	a5,a5,a2
    1832:	0026d593          	srli	a1,a3,0x2
    1836:	8991                	andi	a1,a1,4
    1838:	0f37f793          	andi	a5,a5,243
    183c:	0686                	slli	a3,a3,0x1
    183e:	2c32                	lhu	a2,26(s0)
    1840:	8aa1                	andi	a3,a3,8
    1842:	8fcd                	or	a5,a5,a1
    1844:	8fd5                	or	a5,a5,a3
    1846:	00177593          	andi	a1,a4,1
    184a:	0742                	slli	a4,a4,0x10
    184c:	8341                	srli	a4,a4,0x10
    184e:	0592                	slli	a1,a1,0x4
    1850:	9bbd                	andi	a5,a5,-17
    1852:	00260693          	addi	a3,a2,2
    1856:	8321                	srli	a4,a4,0x8
    1858:	8fcd                	or	a5,a5,a1
    185a:	ac36                	sh	a3,26(s0)
    185c:	ac58                	sb	a4,28(s0)
    185e:	02f401a3          	sb	a5,35(s0)
    1862:	bd01                	j	1672 <i8080_execute+0x5e>
    1864:	02344783          	lbu	a5,35(s0)
    1868:	8b85                	andi	a5,a5,1
    186a:	e00794e3          	bnez	a5,1672 <i8080_execute+0x5e>
    186e:	01a45903          	lhu	s2,26(s0)
    1872:	401c                	lw	a5,0(s0)
    1874:	4808                	lw	a0,16(s0)
    1876:	00190593          	addi	a1,s2,1
    187a:	05c2                	slli	a1,a1,0x10
    187c:	81c1                	srli	a1,a1,0x10
    187e:	9782                	jalr	a5
    1880:	84aa                	mv	s1,a0
    1882:	401c                	lw	a5,0(s0)
    1884:	4808                	lw	a0,16(s0)
    1886:	85ca                	mv	a1,s2
    1888:	04a2                	slli	s1,s1,0x8
    188a:	9782                	jalr	a5
    188c:	2c3a                	lhu	a4,26(s0)
    188e:	485c                	lw	a5,20(s0)
    1890:	8cc9                	or	s1,s1,a0
    1892:	0709                	addi	a4,a4,2
    1894:	0799                	addi	a5,a5,6
    1896:	ac3a                	sh	a4,26(s0)
    1898:	ac06                	sh	s1,24(s0)
    189a:	c85c                	sw	a5,20(s0)
    189c:	bbd9                	j	1672 <i8080_execute+0x5e>
    189e:	2c26                	lhu	s1,26(s0)
    18a0:	01845903          	lhu	s2,24(s0)
    18a4:	4808                	lw	a0,16(s0)
    18a6:	ffe48793          	addi	a5,s1,-2
    18aa:	4058                	lw	a4,4(s0)
    18ac:	07c2                	slli	a5,a5,0x10
    18ae:	83c1                	srli	a5,a5,0x10
    18b0:	85be                	mv	a1,a5
    18b2:	0ff97613          	andi	a2,s2,255
    18b6:	ac3e                	sh	a5,26(s0)
    18b8:	9702                	jalr	a4
    18ba:	405c                	lw	a5,4(s0)
    18bc:	4808                	lw	a0,16(s0)
    18be:	fff48593          	addi	a1,s1,-1
    18c2:	05c2                	slli	a1,a1,0x10
    18c4:	00895613          	srli	a2,s2,0x8
    18c8:	81c1                	srli	a1,a1,0x10
    18ca:	9782                	jalr	a5
    18cc:	02800793          	li	a5,40
    18d0:	ac1e                	sh	a5,24(s0)
    18d2:	b345                	j	1672 <i8080_execute+0x5e>
    18d4:	2c0e                	lhu	a1,24(s0)
    18d6:	401c                	lw	a5,0(s0)
    18d8:	4808                	lw	a0,16(s0)
    18da:	00158713          	addi	a4,a1,1
    18de:	ac1a                	sh	a4,24(s0)
    18e0:	9782                	jalr	a5
    18e2:	2c58                	lbu	a4,28(s0)
    18e4:	02344683          	lbu	a3,35(s0)
    18e8:	4781                	li	a5,0
    18ea:	40a70633          	sub	a2,a4,a0
    18ee:	00163593          	seqz	a1,a2
    18f2:	8f29                	xor	a4,a4,a0
    18f4:	0ff77613          	andi	a2,a4,255
    18f8:	0586                	slli	a1,a1,0x1
    18fa:	0e86f713          	andi	a4,a3,232
    18fe:	8f4d                	or	a4,a4,a1
    1900:	00765693          	srli	a3,a2,0x7
    1904:	8f55                	or	a4,a4,a3
    1906:	02e401a3          	sb	a4,35(s0)
    190a:	ac50                	sb	a2,28(s0)
    190c:	4701                	li	a4,0
    190e:	45a1                	li	a1,8
    1910:	40e656b3          	sra	a3,a2,a4
    1914:	8a85                	andi	a3,a3,1
    1916:	97b6                	add	a5,a5,a3
    1918:	0705                	addi	a4,a4,1
    191a:	0ff7f793          	andi	a5,a5,255
    191e:	feb719e3          	bne	a4,a1,1910 <i8080_execute+0x2fc>
    1922:	02344703          	lbu	a4,35(s0)
    1926:	fff7c793          	not	a5,a5
    192a:	8b85                	andi	a5,a5,1
    192c:	078e                	slli	a5,a5,0x3
    192e:	9b5d                	andi	a4,a4,-9
    1930:	8fd9                	or	a5,a5,a4
    1932:	02f401a3          	sb	a5,35(s0)
    1936:	bb35                	j	1672 <i8080_execute+0x5e>
    1938:	2c06                	lhu	s1,24(s0)
    193a:	401c                	lw	a5,0(s0)
    193c:	4808                	lw	a0,16(s0)
    193e:	00148593          	addi	a1,s1,1
    1942:	05c2                	slli	a1,a1,0x10
    1944:	81c1                	srli	a1,a1,0x10
    1946:	02344903          	lbu	s2,35(s0)
    194a:	9782                	jalr	a5
    194c:	89aa                	mv	s3,a0
    194e:	401c                	lw	a5,0(s0)
    1950:	4808                	lw	a0,16(s0)
    1952:	85a6                	mv	a1,s1
    1954:	00897913          	andi	s2,s2,8
    1958:	9782                	jalr	a5
    195a:	2c06                	lhu	s1,24(s0)
    195c:	8a2a                	mv	s4,a0
    195e:	0489                	addi	s1,s1,2
    1960:	04c2                	slli	s1,s1,0x10
    1962:	80c1                	srli	s1,s1,0x10
    1964:	ac06                	sh	s1,24(s0)
    1966:	d00906e3          	beqz	s2,1672 <i8080_execute+0x5e>
    196a:	01a45903          	lhu	s2,26(s0)
    196e:	4058                	lw	a4,4(s0)
    1970:	4808                	lw	a0,16(s0)
    1972:	ffe90793          	addi	a5,s2,-2
    1976:	07c2                	slli	a5,a5,0x10
    1978:	83c1                	srli	a5,a5,0x10
    197a:	85be                	mv	a1,a5
    197c:	0ff4f613          	andi	a2,s1,255
    1980:	ac3e                	sh	a5,26(s0)
    1982:	9702                	jalr	a4
    1984:	405c                	lw	a5,4(s0)
    1986:	4808                	lw	a0,16(s0)
    1988:	fff90593          	addi	a1,s2,-1
    198c:	05c2                	slli	a1,a1,0x10
    198e:	0084d613          	srli	a2,s1,0x8
    1992:	81c1                	srli	a1,a1,0x10
    1994:	9782                	jalr	a5
    1996:	4858                	lw	a4,20(s0)
    1998:	00899793          	slli	a5,s3,0x8
    199c:	0147e7b3          	or	a5,a5,s4
    19a0:	0719                	addi	a4,a4,6
    19a2:	ac1e                	sh	a5,24(s0)
    19a4:	c858                	sw	a4,20(s0)
    19a6:	b1f1                	j	1672 <i8080_execute+0x5e>
    19a8:	3c7c                	lbu	a5,31(s0)
    19aa:	02144703          	lbu	a4,33(s0)
    19ae:	02044603          	lbu	a2,32(s0)
    19b2:	02244683          	lbu	a3,34(s0)
    19b6:	07a2                	slli	a5,a5,0x8
    19b8:	0722                	slli	a4,a4,0x8
    19ba:	8fd1                	or	a5,a5,a2
    19bc:	8f55                	or	a4,a4,a3
    19be:	00875613          	srli	a2,a4,0x8
    19c2:	0087d693          	srli	a3,a5,0x8
    19c6:	bc70                	sb	a2,31(s0)
    19c8:	02e40023          	sb	a4,32(s0)
    19cc:	02d400a3          	sb	a3,33(s0)
    19d0:	02f40123          	sb	a5,34(s0)
    19d4:	b979                	j	1672 <i8080_execute+0x5e>
    19d6:	01845983          	lhu	s3,24(s0)
    19da:	401c                	lw	a5,0(s0)
    19dc:	4808                	lw	a0,16(s0)
    19de:	00198593          	addi	a1,s3,1
    19e2:	05c2                	slli	a1,a1,0x10
    19e4:	81c1                	srli	a1,a1,0x10
    19e6:	02344483          	lbu	s1,35(s0)
    19ea:	9782                	jalr	a5
    19ec:	892a                	mv	s2,a0
    19ee:	401c                	lw	a5,0(s0)
    19f0:	4808                	lw	a0,16(s0)
    19f2:	88a1                	andi	s1,s1,8
    19f4:	85ce                	mv	a1,s3
    19f6:	9782                	jalr	a5
    19f8:	c099                	beqz	s1,19fe <i8080_execute+0x3ea>
    19fa:	1a90306f          	j	53a2 <i8080_execute+0x3d8e>
    19fe:	2c1e                	lhu	a5,24(s0)
    1a00:	0789                	addi	a5,a5,2
    1a02:	ac1e                	sh	a5,24(s0)
    1a04:	b1bd                	j	1672 <i8080_execute+0x5e>
    1a06:	02144783          	lbu	a5,33(s0)
    1a0a:	02244703          	lbu	a4,34(s0)
    1a0e:	07a2                	slli	a5,a5,0x8
    1a10:	8fd9                	or	a5,a5,a4
    1a12:	ac1e                	sh	a5,24(s0)
    1a14:	b9b9                	j	1672 <i8080_execute+0x5e>
    1a16:	02344783          	lbu	a5,35(s0)
    1a1a:	8ba1                	andi	a5,a5,8
    1a1c:	c4078be3          	beqz	a5,1672 <i8080_execute+0x5e>
    1a20:	01a45903          	lhu	s2,26(s0)
    1a24:	401c                	lw	a5,0(s0)
    1a26:	4808                	lw	a0,16(s0)
    1a28:	00190593          	addi	a1,s2,1
    1a2c:	05c2                	slli	a1,a1,0x10
    1a2e:	81c1                	srli	a1,a1,0x10
    1a30:	9782                	jalr	a5
    1a32:	84aa                	mv	s1,a0
    1a34:	401c                	lw	a5,0(s0)
    1a36:	4808                	lw	a0,16(s0)
    1a38:	85ca                	mv	a1,s2
    1a3a:	04a2                	slli	s1,s1,0x8
    1a3c:	9782                	jalr	a5
    1a3e:	2c3a                	lhu	a4,26(s0)
    1a40:	485c                	lw	a5,20(s0)
    1a42:	8cc9                	or	s1,s1,a0
    1a44:	0709                	addi	a4,a4,2
    1a46:	0799                	addi	a5,a5,6
    1a48:	ac3a                	sh	a4,26(s0)
    1a4a:	ac06                	sh	s1,24(s0)
    1a4c:	c85c                	sw	a5,20(s0)
    1a4e:	b115                	j	1672 <i8080_execute+0x5e>
    1a50:	2c26                	lhu	s1,26(s0)
    1a52:	01845903          	lhu	s2,24(s0)
    1a56:	4808                	lw	a0,16(s0)
    1a58:	ffe48793          	addi	a5,s1,-2
    1a5c:	4058                	lw	a4,4(s0)
    1a5e:	07c2                	slli	a5,a5,0x10
    1a60:	83c1                	srli	a5,a5,0x10
    1a62:	85be                	mv	a1,a5
    1a64:	0ff97613          	andi	a2,s2,255
    1a68:	ac3e                	sh	a5,26(s0)
    1a6a:	9702                	jalr	a4
    1a6c:	405c                	lw	a5,4(s0)
    1a6e:	4808                	lw	a0,16(s0)
    1a70:	fff48593          	addi	a1,s1,-1
    1a74:	05c2                	slli	a1,a1,0x10
    1a76:	00895613          	srli	a2,s2,0x8
    1a7a:	81c1                	srli	a1,a1,0x10
    1a7c:	9782                	jalr	a5
    1a7e:	02000793          	li	a5,32
    1a82:	ac1e                	sh	a5,24(s0)
    1a84:	b6fd                	j	1672 <i8080_execute+0x5e>
    1a86:	2c0e                	lhu	a1,24(s0)
    1a88:	401c                	lw	a5,0(s0)
    1a8a:	4808                	lw	a0,16(s0)
    1a8c:	00158713          	addi	a4,a1,1
    1a90:	ac1a                	sh	a4,24(s0)
    1a92:	9782                	jalr	a5
    1a94:	2c50                	lbu	a2,28(s0)
    1a96:	02344703          	lbu	a4,35(s0)
    1a9a:	4781                	li	a5,0
    1a9c:	00c566b3          	or	a3,a0,a2
    1aa0:	8285                	srli	a3,a3,0x1
    1aa2:	8e69                	and	a2,a2,a0
    1aa4:	8a91                	andi	a3,a3,4
    1aa6:	0e977713          	andi	a4,a4,233
    1aaa:	00163593          	seqz	a1,a2
    1aae:	0586                	slli	a1,a1,0x1
    1ab0:	8f55                	or	a4,a4,a3
    1ab2:	8f4d                	or	a4,a4,a1
    1ab4:	00765693          	srli	a3,a2,0x7
    1ab8:	9b79                	andi	a4,a4,-2
    1aba:	8f55                	or	a4,a4,a3
    1abc:	02e401a3          	sb	a4,35(s0)
    1ac0:	45a1                	li	a1,8
    1ac2:	4701                	li	a4,0
    1ac4:	40e656b3          	sra	a3,a2,a4
    1ac8:	8a85                	andi	a3,a3,1
    1aca:	97b6                	add	a5,a5,a3
    1acc:	0705                	addi	a4,a4,1
    1ace:	0ff7f793          	andi	a5,a5,255
    1ad2:	feb719e3          	bne	a4,a1,1ac4 <i8080_execute+0x4b0>
    1ad6:	02344703          	lbu	a4,35(s0)
    1ada:	fff7c793          	not	a5,a5
    1ade:	8b85                	andi	a5,a5,1
    1ae0:	078e                	slli	a5,a5,0x3
    1ae2:	9b5d                	andi	a4,a4,-9
    1ae4:	8fd9                	or	a5,a5,a4
    1ae6:	02f401a3          	sb	a5,35(s0)
    1aea:	ac50                	sb	a2,28(s0)
    1aec:	b659                	j	1672 <i8080_execute+0x5e>
    1aee:	02144483          	lbu	s1,33(s0)
    1af2:	01a45903          	lhu	s2,26(s0)
    1af6:	02244783          	lbu	a5,34(s0)
    1afa:	04a2                	slli	s1,s1,0x8
    1afc:	4808                	lw	a0,16(s0)
    1afe:	8cdd                	or	s1,s1,a5
    1b00:	ffe90793          	addi	a5,s2,-2
    1b04:	4058                	lw	a4,4(s0)
    1b06:	04c2                	slli	s1,s1,0x10
    1b08:	07c2                	slli	a5,a5,0x10
    1b0a:	83c1                	srli	a5,a5,0x10
    1b0c:	84c1                	srai	s1,s1,0x10
    1b0e:	0ff4f613          	andi	a2,s1,255
    1b12:	85be                	mv	a1,a5
    1b14:	ac3e                	sh	a5,26(s0)
    1b16:	9702                	jalr	a4
    1b18:	01049613          	slli	a2,s1,0x10
    1b1c:	fff90593          	addi	a1,s2,-1
    1b20:	4808                	lw	a0,16(s0)
    1b22:	405c                	lw	a5,4(s0)
    1b24:	8241                	srli	a2,a2,0x10
    1b26:	05c2                	slli	a1,a1,0x10
    1b28:	8221                	srli	a2,a2,0x8
    1b2a:	81c1                	srli	a1,a1,0x10
    1b2c:	9782                	jalr	a5
    1b2e:	b691                	j	1672 <i8080_execute+0x5e>
    1b30:	2c06                	lhu	s1,24(s0)
    1b32:	401c                	lw	a5,0(s0)
    1b34:	4808                	lw	a0,16(s0)
    1b36:	00148593          	addi	a1,s1,1
    1b3a:	05c2                	slli	a1,a1,0x10
    1b3c:	81c1                	srli	a1,a1,0x10
    1b3e:	02042903          	lw	s2,32(s0)
    1b42:	9782                	jalr	a5
    1b44:	89aa                	mv	s3,a0
    1b46:	401c                	lw	a5,0(s0)
    1b48:	4808                	lw	a0,16(s0)
    1b4a:	85a6                	mv	a1,s1
    1b4c:	01b95913          	srli	s2,s2,0x1b
    1b50:	9782                	jalr	a5
    1b52:	2c06                	lhu	s1,24(s0)
    1b54:	00197913          	andi	s2,s2,1
    1b58:	8a2a                	mv	s4,a0
    1b5a:	0489                	addi	s1,s1,2
    1b5c:	04c2                	slli	s1,s1,0x10
    1b5e:	80c1                	srli	s1,s1,0x10
    1b60:	ac06                	sh	s1,24(s0)
    1b62:	b00918e3          	bnez	s2,1672 <i8080_execute+0x5e>
    1b66:	01a45903          	lhu	s2,26(s0)
    1b6a:	4058                	lw	a4,4(s0)
    1b6c:	4808                	lw	a0,16(s0)
    1b6e:	ffe90793          	addi	a5,s2,-2
    1b72:	07c2                	slli	a5,a5,0x10
    1b74:	83c1                	srli	a5,a5,0x10
    1b76:	85be                	mv	a1,a5
    1b78:	0ff4f613          	andi	a2,s1,255
    1b7c:	ac3e                	sh	a5,26(s0)
    1b7e:	9702                	jalr	a4
    1b80:	405c                	lw	a5,4(s0)
    1b82:	4808                	lw	a0,16(s0)
    1b84:	fff90593          	addi	a1,s2,-1
    1b88:	05c2                	slli	a1,a1,0x10
    1b8a:	0084d613          	srli	a2,s1,0x8
    1b8e:	81c1                	srli	a1,a1,0x10
    1b90:	9782                	jalr	a5
    1b92:	4858                	lw	a4,20(s0)
    1b94:	00899793          	slli	a5,s3,0x8
    1b98:	0147e7b3          	or	a5,a5,s4
    1b9c:	0719                	addi	a4,a4,6
    1b9e:	ac1e                	sh	a5,24(s0)
    1ba0:	c858                	sw	a4,20(s0)
    1ba2:	bcc1                	j	1672 <i8080_execute+0x5e>
    1ba4:	2c26                	lhu	s1,26(s0)
    1ba6:	401c                	lw	a5,0(s0)
    1ba8:	4808                	lw	a0,16(s0)
    1baa:	00148593          	addi	a1,s1,1
    1bae:	05c2                	slli	a1,a1,0x10
    1bb0:	81c1                	srli	a1,a1,0x10
    1bb2:	9782                	jalr	a5
    1bb4:	892a                	mv	s2,a0
    1bb6:	401c                	lw	a5,0(s0)
    1bb8:	4808                	lw	a0,16(s0)
    1bba:	85a6                	mv	a1,s1
    1bbc:	0922                	slli	s2,s2,0x8
    1bbe:	9782                	jalr	a5
    1bc0:	02144483          	lbu	s1,33(s0)
    1bc4:	02244783          	lbu	a5,34(s0)
    1bc8:	01a45983          	lhu	s3,26(s0)
    1bcc:	04a2                	slli	s1,s1,0x8
    1bce:	8cdd                	or	s1,s1,a5
    1bd0:	00a96933          	or	s2,s2,a0
    1bd4:	405c                	lw	a5,4(s0)
    1bd6:	4808                	lw	a0,16(s0)
    1bd8:	04c2                	slli	s1,s1,0x10
    1bda:	84c1                	srai	s1,s1,0x10
    1bdc:	0ff4f613          	andi	a2,s1,255
    1be0:	85ce                	mv	a1,s3
    1be2:	9782                	jalr	a5
    1be4:	405c                	lw	a5,4(s0)
    1be6:	4808                	lw	a0,16(s0)
    1be8:	01049613          	slli	a2,s1,0x10
    1bec:	00198593          	addi	a1,s3,1
    1bf0:	8241                	srli	a2,a2,0x10
    1bf2:	05c2                	slli	a1,a1,0x10
    1bf4:	0942                	slli	s2,s2,0x10
    1bf6:	8221                	srli	a2,a2,0x8
    1bf8:	81c1                	srli	a1,a1,0x10
    1bfa:	9782                	jalr	a5
    1bfc:	41095913          	srai	s2,s2,0x10
    1c00:	01091793          	slli	a5,s2,0x10
    1c04:	83c1                	srli	a5,a5,0x10
    1c06:	83a1                	srli	a5,a5,0x8
    1c08:	02f400a3          	sb	a5,33(s0)
    1c0c:	03240123          	sb	s2,34(s0)
    1c10:	b48d                	j	1672 <i8080_execute+0x5e>
    1c12:	01845983          	lhu	s3,24(s0)
    1c16:	401c                	lw	a5,0(s0)
    1c18:	4808                	lw	a0,16(s0)
    1c1a:	00198593          	addi	a1,s3,1
    1c1e:	05c2                	slli	a1,a1,0x10
    1c20:	5004                	lw	s1,32(s0)
    1c22:	81c1                	srli	a1,a1,0x10
    1c24:	9782                	jalr	a5
    1c26:	892a                	mv	s2,a0
    1c28:	401c                	lw	a5,0(s0)
    1c2a:	4808                	lw	a0,16(s0)
    1c2c:	80ed                	srli	s1,s1,0x1b
    1c2e:	8885                	andi	s1,s1,1
    1c30:	85ce                	mv	a1,s3
    1c32:	9782                	jalr	a5
    1c34:	e099                	bnez	s1,1c3a <i8080_execute+0x626>
    1c36:	77a0306f          	j	53b0 <i8080_execute+0x3d9c>
    1c3a:	2c1e                	lhu	a5,24(s0)
    1c3c:	0789                	addi	a5,a5,2
    1c3e:	ac1e                	sh	a5,24(s0)
    1c40:	bc0d                	j	1672 <i8080_execute+0x5e>
    1c42:	01a45903          	lhu	s2,26(s0)
    1c46:	401c                	lw	a5,0(s0)
    1c48:	4808                	lw	a0,16(s0)
    1c4a:	00190593          	addi	a1,s2,1
    1c4e:	05c2                	slli	a1,a1,0x10
    1c50:	81c1                	srli	a1,a1,0x10
    1c52:	9782                	jalr	a5
    1c54:	84aa                	mv	s1,a0
    1c56:	401c                	lw	a5,0(s0)
    1c58:	4808                	lw	a0,16(s0)
    1c5a:	85ca                	mv	a1,s2
    1c5c:	04a2                	slli	s1,s1,0x8
    1c5e:	9782                	jalr	a5
    1c60:	8cc9                	or	s1,s1,a0
    1c62:	01049793          	slli	a5,s1,0x10
    1c66:	2c36                	lhu	a3,26(s0)
    1c68:	87c1                	srai	a5,a5,0x10
    1c6a:	01079713          	slli	a4,a5,0x10
    1c6e:	8341                	srli	a4,a4,0x10
    1c70:	0689                	addi	a3,a3,2
    1c72:	8321                	srli	a4,a4,0x8
    1c74:	ac36                	sh	a3,26(s0)
    1c76:	02e400a3          	sb	a4,33(s0)
    1c7a:	02f40123          	sb	a5,34(s0)
    1c7e:	bad5                	j	1672 <i8080_execute+0x5e>
    1c80:	501c                	lw	a5,32(s0)
    1c82:	00479713          	slli	a4,a5,0x4
    1c86:	9e0746e3          	bltz	a4,1672 <i8080_execute+0x5e>
    1c8a:	01a45903          	lhu	s2,26(s0)
    1c8e:	401c                	lw	a5,0(s0)
    1c90:	4808                	lw	a0,16(s0)
    1c92:	00190593          	addi	a1,s2,1
    1c96:	05c2                	slli	a1,a1,0x10
    1c98:	81c1                	srli	a1,a1,0x10
    1c9a:	9782                	jalr	a5
    1c9c:	84aa                	mv	s1,a0
    1c9e:	401c                	lw	a5,0(s0)
    1ca0:	4808                	lw	a0,16(s0)
    1ca2:	85ca                	mv	a1,s2
    1ca4:	04a2                	slli	s1,s1,0x8
    1ca6:	9782                	jalr	a5
    1ca8:	2c3a                	lhu	a4,26(s0)
    1caa:	485c                	lw	a5,20(s0)
    1cac:	8cc9                	or	s1,s1,a0
    1cae:	0709                	addi	a4,a4,2
    1cb0:	0799                	addi	a5,a5,6
    1cb2:	ac3a                	sh	a4,26(s0)
    1cb4:	ac06                	sh	s1,24(s0)
    1cb6:	c85c                	sw	a5,20(s0)
    1cb8:	ba6d                	j	1672 <i8080_execute+0x5e>
    1cba:	2c26                	lhu	s1,26(s0)
    1cbc:	01845903          	lhu	s2,24(s0)
    1cc0:	4808                	lw	a0,16(s0)
    1cc2:	ffe48793          	addi	a5,s1,-2
    1cc6:	4058                	lw	a4,4(s0)
    1cc8:	07c2                	slli	a5,a5,0x10
    1cca:	83c1                	srli	a5,a5,0x10
    1ccc:	85be                	mv	a1,a5
    1cce:	0ff97613          	andi	a2,s2,255
    1cd2:	ac3e                	sh	a5,26(s0)
    1cd4:	9702                	jalr	a4
    1cd6:	405c                	lw	a5,4(s0)
    1cd8:	4808                	lw	a0,16(s0)
    1cda:	fff48593          	addi	a1,s1,-1
    1cde:	05c2                	slli	a1,a1,0x10
    1ce0:	00895613          	srli	a2,s2,0x8
    1ce4:	81c1                	srli	a1,a1,0x10
    1ce6:	9782                	jalr	a5
    1ce8:	47e1                	li	a5,24
    1cea:	ac1e                	sh	a5,24(s0)
    1cec:	b259                	j	1672 <i8080_execute+0x5e>
    1cee:	2c0e                	lhu	a1,24(s0)
    1cf0:	401c                	lw	a5,0(s0)
    1cf2:	4808                	lw	a0,16(s0)
    1cf4:	00158713          	addi	a4,a1,1
    1cf8:	ac1a                	sh	a4,24(s0)
    1cfa:	9782                	jalr	a5
    1cfc:	5018                	lw	a4,32(s0)
    1cfe:	2c54                	lbu	a3,28(s0)
    1d00:	fff54793          	not	a5,a0
    1d04:	8371                	srli	a4,a4,0x1c
    1d06:	8b05                	andi	a4,a4,1
    1d08:	00174713          	xori	a4,a4,1
    1d0c:	00d70633          	add	a2,a4,a3
    1d10:	0ff7f793          	andi	a5,a5,255
    1d14:	963e                	add	a2,a2,a5
    1d16:	02344703          	lbu	a4,35(s0)
    1d1a:	8fb5                	xor	a5,a5,a3
    1d1c:	8fb1                	xor	a5,a5,a2
    1d1e:	0027d593          	srli	a1,a5,0x2
    1d22:	0ff67613          	andi	a2,a2,255
    1d26:	8991                	andi	a1,a1,4
    1d28:	0f977713          	andi	a4,a4,249
    1d2c:	00163693          	seqz	a3,a2
    1d30:	0686                	slli	a3,a3,0x1
    1d32:	8f4d                	or	a4,a4,a1
    1d34:	8f55                	or	a4,a4,a3
    1d36:	1007f793          	andi	a5,a5,256
    1d3a:	00765693          	srli	a3,a2,0x7
    1d3e:	9b79                	andi	a4,a4,-2
    1d40:	8f55                	or	a4,a4,a3
    1d42:	01079593          	slli	a1,a5,0x10
    1d46:	02e401a3          	sb	a4,35(s0)
    1d4a:	85c1                	srai	a1,a1,0x10
    1d4c:	4781                	li	a5,0
    1d4e:	4701                	li	a4,0
    1d50:	4521                	li	a0,8
    1d52:	40e656b3          	sra	a3,a2,a4
    1d56:	8a85                	andi	a3,a3,1
    1d58:	97b6                	add	a5,a5,a3
    1d5a:	0705                	addi	a4,a4,1
    1d5c:	0ff7f793          	andi	a5,a5,255
    1d60:	fea719e3          	bne	a4,a0,1d52 <i8080_execute+0x73e>
    1d64:	02344683          	lbu	a3,35(s0)
    1d68:	fff7c793          	not	a5,a5
    1d6c:	8b85                	andi	a5,a5,1
    1d6e:	078e                	slli	a5,a5,0x3
    1d70:	0e76f693          	andi	a3,a3,231
    1d74:	0015b713          	seqz	a4,a1
    1d78:	0712                	slli	a4,a4,0x4
    1d7a:	8fd5                	or	a5,a5,a3
    1d7c:	8f5d                	or	a4,a4,a5
    1d7e:	ac50                	sb	a2,28(s0)
    1d80:	02e401a3          	sb	a4,35(s0)
    1d84:	b0fd                	j	1672 <i8080_execute+0x5e>
    1d86:	2c06                	lhu	s1,24(s0)
    1d88:	401c                	lw	a5,0(s0)
    1d8a:	4808                	lw	a0,16(s0)
    1d8c:	00148593          	addi	a1,s1,1
    1d90:	05c2                	slli	a1,a1,0x10
    1d92:	81c1                	srli	a1,a1,0x10
    1d94:	9782                	jalr	a5
    1d96:	892a                	mv	s2,a0
    1d98:	401c                	lw	a5,0(s0)
    1d9a:	4808                	lw	a0,16(s0)
    1d9c:	85a6                	mv	a1,s1
    1d9e:	9782                	jalr	a5
    1da0:	01a45983          	lhu	s3,26(s0)
    1da4:	2c06                	lhu	s1,24(s0)
    1da6:	8a2a                	mv	s4,a0
    1da8:	ffe98793          	addi	a5,s3,-2
    1dac:	0489                	addi	s1,s1,2
    1dae:	4808                	lw	a0,16(s0)
    1db0:	4058                	lw	a4,4(s0)
    1db2:	04c2                	slli	s1,s1,0x10
    1db4:	07c2                	slli	a5,a5,0x10
    1db6:	83c1                	srli	a5,a5,0x10
    1db8:	80c1                	srli	s1,s1,0x10
    1dba:	85be                	mv	a1,a5
    1dbc:	0ff4f613          	andi	a2,s1,255
    1dc0:	ac3e                	sh	a5,26(s0)
    1dc2:	ac06                	sh	s1,24(s0)
    1dc4:	9702                	jalr	a4
    1dc6:	405c                	lw	a5,4(s0)
    1dc8:	4808                	lw	a0,16(s0)
    1dca:	fff98593          	addi	a1,s3,-1
    1dce:	05c2                	slli	a1,a1,0x10
    1dd0:	0084d613          	srli	a2,s1,0x8
    1dd4:	81c1                	srli	a1,a1,0x10
    1dd6:	9782                	jalr	a5
    1dd8:	00891793          	slli	a5,s2,0x8
    1ddc:	0147e7b3          	or	a5,a5,s4
    1de0:	ac1e                	sh	a5,24(s0)
    1de2:	b841                	j	1672 <i8080_execute+0x5e>
    1de4:	2c06                	lhu	s1,24(s0)
    1de6:	401c                	lw	a5,0(s0)
    1de8:	4808                	lw	a0,16(s0)
    1dea:	00148593          	addi	a1,s1,1
    1dee:	05c2                	slli	a1,a1,0x10
    1df0:	81c1                	srli	a1,a1,0x10
    1df2:	02344903          	lbu	s2,35(s0)
    1df6:	9782                	jalr	a5
    1df8:	89aa                	mv	s3,a0
    1dfa:	401c                	lw	a5,0(s0)
    1dfc:	4808                	lw	a0,16(s0)
    1dfe:	85a6                	mv	a1,s1
    1e00:	01097913          	andi	s2,s2,16
    1e04:	9782                	jalr	a5
    1e06:	2c06                	lhu	s1,24(s0)
    1e08:	8a2a                	mv	s4,a0
    1e0a:	0489                	addi	s1,s1,2
    1e0c:	04c2                	slli	s1,s1,0x10
    1e0e:	80c1                	srli	s1,s1,0x10
    1e10:	ac06                	sh	s1,24(s0)
    1e12:	860900e3          	beqz	s2,1672 <i8080_execute+0x5e>
    1e16:	01a45903          	lhu	s2,26(s0)
    1e1a:	4058                	lw	a4,4(s0)
    1e1c:	4808                	lw	a0,16(s0)
    1e1e:	ffe90793          	addi	a5,s2,-2
    1e22:	07c2                	slli	a5,a5,0x10
    1e24:	83c1                	srli	a5,a5,0x10
    1e26:	85be                	mv	a1,a5
    1e28:	0ff4f613          	andi	a2,s1,255
    1e2c:	ac3e                	sh	a5,26(s0)
    1e2e:	9702                	jalr	a4
    1e30:	405c                	lw	a5,4(s0)
    1e32:	4808                	lw	a0,16(s0)
    1e34:	fff90593          	addi	a1,s2,-1
    1e38:	05c2                	slli	a1,a1,0x10
    1e3a:	0084d613          	srli	a2,s1,0x8
    1e3e:	81c1                	srli	a1,a1,0x10
    1e40:	9782                	jalr	a5
    1e42:	4858                	lw	a4,20(s0)
    1e44:	00899793          	slli	a5,s3,0x8
    1e48:	0147e7b3          	or	a5,a5,s4
    1e4c:	0719                	addi	a4,a4,6
    1e4e:	ac1e                	sh	a5,24(s0)
    1e50:	c858                	sw	a4,20(s0)
    1e52:	b005                	j	1672 <i8080_execute+0x5e>
    1e54:	2c0e                	lhu	a1,24(s0)
    1e56:	4804                	lw	s1,16(s0)
    1e58:	401c                	lw	a5,0(s0)
    1e5a:	00158713          	addi	a4,a1,1
    1e5e:	00842903          	lw	s2,8(s0)
    1e62:	ac1a                	sh	a4,24(s0)
    1e64:	8526                	mv	a0,s1
    1e66:	9782                	jalr	a5
    1e68:	85aa                	mv	a1,a0
    1e6a:	8526                	mv	a0,s1
    1e6c:	9902                	jalr	s2
    1e6e:	ac48                	sb	a0,28(s0)
    1e70:	803ff06f          	j	1672 <i8080_execute+0x5e>
    1e74:	01845983          	lhu	s3,24(s0)
    1e78:	401c                	lw	a5,0(s0)
    1e7a:	4808                	lw	a0,16(s0)
    1e7c:	00198593          	addi	a1,s3,1
    1e80:	05c2                	slli	a1,a1,0x10
    1e82:	81c1                	srli	a1,a1,0x10
    1e84:	02344483          	lbu	s1,35(s0)
    1e88:	9782                	jalr	a5
    1e8a:	892a                	mv	s2,a0
    1e8c:	401c                	lw	a5,0(s0)
    1e8e:	4808                	lw	a0,16(s0)
    1e90:	88c1                	andi	s1,s1,16
    1e92:	85ce                	mv	a1,s3
    1e94:	9782                	jalr	a5
    1e96:	c099                	beqz	s1,1e9c <i8080_execute+0x888>
    1e98:	5260306f          	j	53be <i8080_execute+0x3daa>
    1e9c:	2c1e                	lhu	a5,24(s0)
    1e9e:	0789                	addi	a5,a5,2
    1ea0:	ac1e                	sh	a5,24(s0)
    1ea2:	fd0ff06f          	j	1672 <i8080_execute+0x5e>
    1ea6:	01a45903          	lhu	s2,26(s0)
    1eaa:	401c                	lw	a5,0(s0)
    1eac:	4808                	lw	a0,16(s0)
    1eae:	00190593          	addi	a1,s2,1
    1eb2:	05c2                	slli	a1,a1,0x10
    1eb4:	81c1                	srli	a1,a1,0x10
    1eb6:	9782                	jalr	a5
    1eb8:	84aa                	mv	s1,a0
    1eba:	401c                	lw	a5,0(s0)
    1ebc:	4808                	lw	a0,16(s0)
    1ebe:	85ca                	mv	a1,s2
    1ec0:	04a2                	slli	s1,s1,0x8
    1ec2:	9782                	jalr	a5
    1ec4:	2c3e                	lhu	a5,26(s0)
    1ec6:	8cc9                	or	s1,s1,a0
    1ec8:	ac06                	sh	s1,24(s0)
    1eca:	0789                	addi	a5,a5,2
    1ecc:	ac3e                	sh	a5,26(s0)
    1ece:	fa4ff06f          	j	1672 <i8080_execute+0x5e>
    1ed2:	02344783          	lbu	a5,35(s0)
    1ed6:	8bc1                	andi	a5,a5,16
    1ed8:	f8078d63          	beqz	a5,1672 <i8080_execute+0x5e>
    1edc:	01a45903          	lhu	s2,26(s0)
    1ee0:	401c                	lw	a5,0(s0)
    1ee2:	4808                	lw	a0,16(s0)
    1ee4:	00190593          	addi	a1,s2,1
    1ee8:	05c2                	slli	a1,a1,0x10
    1eea:	81c1                	srli	a1,a1,0x10
    1eec:	9782                	jalr	a5
    1eee:	84aa                	mv	s1,a0
    1ef0:	401c                	lw	a5,0(s0)
    1ef2:	4808                	lw	a0,16(s0)
    1ef4:	85ca                	mv	a1,s2
    1ef6:	04a2                	slli	s1,s1,0x8
    1ef8:	9782                	jalr	a5
    1efa:	2c3a                	lhu	a4,26(s0)
    1efc:	485c                	lw	a5,20(s0)
    1efe:	8cc9                	or	s1,s1,a0
    1f00:	0709                	addi	a4,a4,2
    1f02:	0799                	addi	a5,a5,6
    1f04:	ac3a                	sh	a4,26(s0)
    1f06:	ac06                	sh	s1,24(s0)
    1f08:	c85c                	sw	a5,20(s0)
    1f0a:	f68ff06f          	j	1672 <i8080_execute+0x5e>
    1f0e:	2c26                	lhu	s1,26(s0)
    1f10:	01845903          	lhu	s2,24(s0)
    1f14:	4808                	lw	a0,16(s0)
    1f16:	ffe48793          	addi	a5,s1,-2
    1f1a:	4058                	lw	a4,4(s0)
    1f1c:	07c2                	slli	a5,a5,0x10
    1f1e:	83c1                	srli	a5,a5,0x10
    1f20:	85be                	mv	a1,a5
    1f22:	0ff97613          	andi	a2,s2,255
    1f26:	ac3e                	sh	a5,26(s0)
    1f28:	9702                	jalr	a4
    1f2a:	405c                	lw	a5,4(s0)
    1f2c:	4808                	lw	a0,16(s0)
    1f2e:	fff48593          	addi	a1,s1,-1
    1f32:	05c2                	slli	a1,a1,0x10
    1f34:	00895613          	srli	a2,s2,0x8
    1f38:	81c1                	srli	a1,a1,0x10
    1f3a:	9782                	jalr	a5
    1f3c:	47c1                	li	a5,16
    1f3e:	ac1e                	sh	a5,24(s0)
    1f40:	f32ff06f          	j	1672 <i8080_execute+0x5e>
    1f44:	2c0e                	lhu	a1,24(s0)
    1f46:	401c                	lw	a5,0(s0)
    1f48:	4808                	lw	a0,16(s0)
    1f4a:	00158713          	addi	a4,a1,1
    1f4e:	ac1a                	sh	a4,24(s0)
    1f50:	9782                	jalr	a5
    1f52:	2c54                	lbu	a3,28(s0)
    1f54:	fff54793          	not	a5,a0
    1f58:	0ff7f793          	andi	a5,a5,255
    1f5c:	00168593          	addi	a1,a3,1
    1f60:	95be                	add	a1,a1,a5
    1f62:	02344703          	lbu	a4,35(s0)
    1f66:	8fb5                	xor	a5,a5,a3
    1f68:	8fad                	xor	a5,a5,a1
    1f6a:	0027d613          	srli	a2,a5,0x2
    1f6e:	0ff5f593          	andi	a1,a1,255
    1f72:	8a11                	andi	a2,a2,4
    1f74:	0f977713          	andi	a4,a4,249
    1f78:	0015b693          	seqz	a3,a1
    1f7c:	0686                	slli	a3,a3,0x1
    1f7e:	8f51                	or	a4,a4,a2
    1f80:	8f55                	or	a4,a4,a3
    1f82:	1007f793          	andi	a5,a5,256
    1f86:	0075d693          	srli	a3,a1,0x7
    1f8a:	9b79                	andi	a4,a4,-2
    1f8c:	8f55                	or	a4,a4,a3
    1f8e:	01079613          	slli	a2,a5,0x10
    1f92:	02e401a3          	sb	a4,35(s0)
    1f96:	8641                	srai	a2,a2,0x10
    1f98:	4781                	li	a5,0
    1f9a:	4701                	li	a4,0
    1f9c:	4521                	li	a0,8
    1f9e:	40e5d6b3          	sra	a3,a1,a4
    1fa2:	8a85                	andi	a3,a3,1
    1fa4:	97b6                	add	a5,a5,a3
    1fa6:	0705                	addi	a4,a4,1
    1fa8:	0ff7f793          	andi	a5,a5,255
    1fac:	fea719e3          	bne	a4,a0,1f9e <i8080_execute+0x98a>
    1fb0:	02344683          	lbu	a3,35(s0)
    1fb4:	fff7c793          	not	a5,a5
    1fb8:	8b85                	andi	a5,a5,1
    1fba:	078e                	slli	a5,a5,0x3
    1fbc:	0e76f693          	andi	a3,a3,231
    1fc0:	00163713          	seqz	a4,a2
    1fc4:	0712                	slli	a4,a4,0x4
    1fc6:	8fd5                	or	a5,a5,a3
    1fc8:	8f5d                	or	a4,a4,a5
    1fca:	ac4c                	sb	a1,28(s0)
    1fcc:	02e401a3          	sb	a4,35(s0)
    1fd0:	ea2ff06f          	j	1672 <i8080_execute+0x5e>
    1fd4:	3c64                	lbu	s1,31(s0)
    1fd6:	01a45903          	lhu	s2,26(s0)
    1fda:	02044783          	lbu	a5,32(s0)
    1fde:	04a2                	slli	s1,s1,0x8
    1fe0:	4808                	lw	a0,16(s0)
    1fe2:	8cdd                	or	s1,s1,a5
    1fe4:	ffe90793          	addi	a5,s2,-2
    1fe8:	4058                	lw	a4,4(s0)
    1fea:	04c2                	slli	s1,s1,0x10
    1fec:	07c2                	slli	a5,a5,0x10
    1fee:	83c1                	srli	a5,a5,0x10
    1ff0:	84c1                	srai	s1,s1,0x10
    1ff2:	0ff4f613          	andi	a2,s1,255
    1ff6:	85be                	mv	a1,a5
    1ff8:	ac3e                	sh	a5,26(s0)
    1ffa:	9702                	jalr	a4
    1ffc:	01049613          	slli	a2,s1,0x10
    2000:	fff90593          	addi	a1,s2,-1
    2004:	4808                	lw	a0,16(s0)
    2006:	405c                	lw	a5,4(s0)
    2008:	8241                	srli	a2,a2,0x10
    200a:	05c2                	slli	a1,a1,0x10
    200c:	8221                	srli	a2,a2,0x8
    200e:	81c1                	srli	a1,a1,0x10
    2010:	9782                	jalr	a5
    2012:	e60ff06f          	j	1672 <i8080_execute+0x5e>
    2016:	2c06                	lhu	s1,24(s0)
    2018:	401c                	lw	a5,0(s0)
    201a:	4808                	lw	a0,16(s0)
    201c:	00148593          	addi	a1,s1,1
    2020:	05c2                	slli	a1,a1,0x10
    2022:	81c1                	srli	a1,a1,0x10
    2024:	02042903          	lw	s2,32(s0)
    2028:	9782                	jalr	a5
    202a:	89aa                	mv	s3,a0
    202c:	401c                	lw	a5,0(s0)
    202e:	4808                	lw	a0,16(s0)
    2030:	85a6                	mv	a1,s1
    2032:	01c95913          	srli	s2,s2,0x1c
    2036:	9782                	jalr	a5
    2038:	2c06                	lhu	s1,24(s0)
    203a:	00197913          	andi	s2,s2,1
    203e:	8a2a                	mv	s4,a0
    2040:	0489                	addi	s1,s1,2
    2042:	04c2                	slli	s1,s1,0x10
    2044:	80c1                	srli	s1,s1,0x10
    2046:	ac06                	sh	s1,24(s0)
    2048:	e2091563          	bnez	s2,1672 <i8080_execute+0x5e>
    204c:	01a45903          	lhu	s2,26(s0)
    2050:	4058                	lw	a4,4(s0)
    2052:	4808                	lw	a0,16(s0)
    2054:	ffe90793          	addi	a5,s2,-2
    2058:	07c2                	slli	a5,a5,0x10
    205a:	83c1                	srli	a5,a5,0x10
    205c:	85be                	mv	a1,a5
    205e:	0ff4f613          	andi	a2,s1,255
    2062:	ac3e                	sh	a5,26(s0)
    2064:	9702                	jalr	a4
    2066:	405c                	lw	a5,4(s0)
    2068:	4808                	lw	a0,16(s0)
    206a:	fff90593          	addi	a1,s2,-1
    206e:	05c2                	slli	a1,a1,0x10
    2070:	0084d613          	srli	a2,s1,0x8
    2074:	81c1                	srli	a1,a1,0x10
    2076:	9782                	jalr	a5
    2078:	4858                	lw	a4,20(s0)
    207a:	00899793          	slli	a5,s3,0x8
    207e:	0147e7b3          	or	a5,a5,s4
    2082:	0719                	addi	a4,a4,6
    2084:	ac1e                	sh	a5,24(s0)
    2086:	c858                	sw	a4,20(s0)
    2088:	deaff06f          	j	1672 <i8080_execute+0x5e>
    208c:	2c0e                	lhu	a1,24(s0)
    208e:	4804                	lw	s1,16(s0)
    2090:	401c                	lw	a5,0(s0)
    2092:	00158713          	addi	a4,a1,1
    2096:	ac1a                	sh	a4,24(s0)
    2098:	8526                	mv	a0,s1
    209a:	00c42903          	lw	s2,12(s0)
    209e:	9782                	jalr	a5
    20a0:	2c50                	lbu	a2,28(s0)
    20a2:	85aa                	mv	a1,a0
    20a4:	8526                	mv	a0,s1
    20a6:	9902                	jalr	s2
    20a8:	dcaff06f          	j	1672 <i8080_execute+0x5e>
    20ac:	01845983          	lhu	s3,24(s0)
    20b0:	401c                	lw	a5,0(s0)
    20b2:	4808                	lw	a0,16(s0)
    20b4:	00198593          	addi	a1,s3,1
    20b8:	05c2                	slli	a1,a1,0x10
    20ba:	5004                	lw	s1,32(s0)
    20bc:	81c1                	srli	a1,a1,0x10
    20be:	9782                	jalr	a5
    20c0:	892a                	mv	s2,a0
    20c2:	401c                	lw	a5,0(s0)
    20c4:	4808                	lw	a0,16(s0)
    20c6:	80f1                	srli	s1,s1,0x1c
    20c8:	8885                	andi	s1,s1,1
    20ca:	85ce                	mv	a1,s3
    20cc:	9782                	jalr	a5
    20ce:	e099                	bnez	s1,20d4 <i8080_execute+0xac0>
    20d0:	28c0306f          	j	535c <i8080_execute+0x3d48>
    20d4:	2c1e                	lhu	a5,24(s0)
    20d6:	0789                	addi	a5,a5,2
    20d8:	ac1e                	sh	a5,24(s0)
    20da:	d98ff06f          	j	1672 <i8080_execute+0x5e>
    20de:	01a45903          	lhu	s2,26(s0)
    20e2:	401c                	lw	a5,0(s0)
    20e4:	4808                	lw	a0,16(s0)
    20e6:	00190593          	addi	a1,s2,1
    20ea:	05c2                	slli	a1,a1,0x10
    20ec:	81c1                	srli	a1,a1,0x10
    20ee:	9782                	jalr	a5
    20f0:	84aa                	mv	s1,a0
    20f2:	401c                	lw	a5,0(s0)
    20f4:	4808                	lw	a0,16(s0)
    20f6:	85ca                	mv	a1,s2
    20f8:	04a2                	slli	s1,s1,0x8
    20fa:	9782                	jalr	a5
    20fc:	8cc9                	or	s1,s1,a0
    20fe:	01049793          	slli	a5,s1,0x10
    2102:	2c36                	lhu	a3,26(s0)
    2104:	87c1                	srai	a5,a5,0x10
    2106:	01079713          	slli	a4,a5,0x10
    210a:	8341                	srli	a4,a4,0x10
    210c:	0689                	addi	a3,a3,2
    210e:	8321                	srli	a4,a4,0x8
    2110:	ac36                	sh	a3,26(s0)
    2112:	bc78                	sb	a4,31(s0)
    2114:	02f40023          	sb	a5,32(s0)
    2118:	d5aff06f          	j	1672 <i8080_execute+0x5e>
    211c:	501c                	lw	a5,32(s0)
    211e:	00379713          	slli	a4,a5,0x3
    2122:	d4074863          	bltz	a4,1672 <i8080_execute+0x5e>
    2126:	01a45903          	lhu	s2,26(s0)
    212a:	401c                	lw	a5,0(s0)
    212c:	4808                	lw	a0,16(s0)
    212e:	00190593          	addi	a1,s2,1
    2132:	05c2                	slli	a1,a1,0x10
    2134:	81c1                	srli	a1,a1,0x10
    2136:	9782                	jalr	a5
    2138:	84aa                	mv	s1,a0
    213a:	401c                	lw	a5,0(s0)
    213c:	4808                	lw	a0,16(s0)
    213e:	85ca                	mv	a1,s2
    2140:	04a2                	slli	s1,s1,0x8
    2142:	9782                	jalr	a5
    2144:	2c3a                	lhu	a4,26(s0)
    2146:	485c                	lw	a5,20(s0)
    2148:	8cc9                	or	s1,s1,a0
    214a:	0709                	addi	a4,a4,2
    214c:	0799                	addi	a5,a5,6
    214e:	ac3a                	sh	a4,26(s0)
    2150:	ac06                	sh	s1,24(s0)
    2152:	c85c                	sw	a5,20(s0)
    2154:	d1eff06f          	j	1672 <i8080_execute+0x5e>
    2158:	2c26                	lhu	s1,26(s0)
    215a:	01845903          	lhu	s2,24(s0)
    215e:	4808                	lw	a0,16(s0)
    2160:	ffe48793          	addi	a5,s1,-2
    2164:	4058                	lw	a4,4(s0)
    2166:	07c2                	slli	a5,a5,0x10
    2168:	83c1                	srli	a5,a5,0x10
    216a:	85be                	mv	a1,a5
    216c:	0ff97613          	andi	a2,s2,255
    2170:	ac3e                	sh	a5,26(s0)
    2172:	9702                	jalr	a4
    2174:	405c                	lw	a5,4(s0)
    2176:	4808                	lw	a0,16(s0)
    2178:	fff48593          	addi	a1,s1,-1
    217c:	05c2                	slli	a1,a1,0x10
    217e:	00895613          	srli	a2,s2,0x8
    2182:	81c1                	srli	a1,a1,0x10
    2184:	9782                	jalr	a5
    2186:	47a1                	li	a5,8
    2188:	ac1e                	sh	a5,24(s0)
    218a:	ce8ff06f          	j	1672 <i8080_execute+0x5e>
    218e:	2c0e                	lhu	a1,24(s0)
    2190:	401c                	lw	a5,0(s0)
    2192:	4808                	lw	a0,16(s0)
    2194:	00158713          	addi	a4,a1,1
    2198:	ac1a                	sh	a4,24(s0)
    219a:	9782                	jalr	a5
    219c:	5010                	lw	a2,32(s0)
    219e:	2c5c                	lbu	a5,28(s0)
    21a0:	02344703          	lbu	a4,35(s0)
    21a4:	8271                	srli	a2,a2,0x1c
    21a6:	8a05                	andi	a2,a2,1
    21a8:	963e                	add	a2,a2,a5
    21aa:	8fa9                	xor	a5,a5,a0
    21ac:	962a                	add	a2,a2,a0
    21ae:	0ff7f793          	andi	a5,a5,255
    21b2:	8fb1                	xor	a5,a5,a2
    21b4:	07c2                	slli	a5,a5,0x10
    21b6:	83c1                	srli	a5,a5,0x10
    21b8:	0047d693          	srli	a3,a5,0x4
    21bc:	8ac1                	andi	a3,a3,16
    21be:	0eb77713          	andi	a4,a4,235
    21c2:	8389                	srli	a5,a5,0x2
    21c4:	8f55                	or	a4,a4,a3
    21c6:	0ff67613          	andi	a2,a2,255
    21ca:	8b91                	andi	a5,a5,4
    21cc:	8fd9                	or	a5,a5,a4
    21ce:	00163713          	seqz	a4,a2
    21d2:	0706                	slli	a4,a4,0x1
    21d4:	0fc7f793          	andi	a5,a5,252
    21d8:	8fd9                	or	a5,a5,a4
    21da:	00765693          	srli	a3,a2,0x7
    21de:	8fd5                	or	a5,a5,a3
    21e0:	02f401a3          	sb	a5,35(s0)
    21e4:	4701                	li	a4,0
    21e6:	4781                	li	a5,0
    21e8:	45a1                	li	a1,8
    21ea:	40e656b3          	sra	a3,a2,a4
    21ee:	8a85                	andi	a3,a3,1
    21f0:	97b6                	add	a5,a5,a3
    21f2:	0705                	addi	a4,a4,1
    21f4:	0ff7f793          	andi	a5,a5,255
    21f8:	feb719e3          	bne	a4,a1,21ea <i8080_execute+0xbd6>
    21fc:	02344703          	lbu	a4,35(s0)
    2200:	fff7c793          	not	a5,a5
    2204:	8b85                	andi	a5,a5,1
    2206:	078e                	slli	a5,a5,0x3
    2208:	9b5d                	andi	a4,a4,-9
    220a:	8fd9                	or	a5,a5,a4
    220c:	02f401a3          	sb	a5,35(s0)
    2210:	ac50                	sb	a2,28(s0)
    2212:	c60ff06f          	j	1672 <i8080_execute+0x5e>
    2216:	2c06                	lhu	s1,24(s0)
    2218:	401c                	lw	a5,0(s0)
    221a:	4808                	lw	a0,16(s0)
    221c:	00148593          	addi	a1,s1,1
    2220:	05c2                	slli	a1,a1,0x10
    2222:	81c1                	srli	a1,a1,0x10
    2224:	9782                	jalr	a5
    2226:	892a                	mv	s2,a0
    2228:	401c                	lw	a5,0(s0)
    222a:	4808                	lw	a0,16(s0)
    222c:	85a6                	mv	a1,s1
    222e:	9782                	jalr	a5
    2230:	01a45983          	lhu	s3,26(s0)
    2234:	2c06                	lhu	s1,24(s0)
    2236:	8a2a                	mv	s4,a0
    2238:	ffe98793          	addi	a5,s3,-2
    223c:	0489                	addi	s1,s1,2
    223e:	4808                	lw	a0,16(s0)
    2240:	4058                	lw	a4,4(s0)
    2242:	04c2                	slli	s1,s1,0x10
    2244:	07c2                	slli	a5,a5,0x10
    2246:	83c1                	srli	a5,a5,0x10
    2248:	80c1                	srli	s1,s1,0x10
    224a:	85be                	mv	a1,a5
    224c:	0ff4f613          	andi	a2,s1,255
    2250:	ac3e                	sh	a5,26(s0)
    2252:	ac06                	sh	s1,24(s0)
    2254:	9702                	jalr	a4
    2256:	405c                	lw	a5,4(s0)
    2258:	4808                	lw	a0,16(s0)
    225a:	fff98593          	addi	a1,s3,-1
    225e:	05c2                	slli	a1,a1,0x10
    2260:	0084d613          	srli	a2,s1,0x8
    2264:	81c1                	srli	a1,a1,0x10
    2266:	9782                	jalr	a5
    2268:	00891793          	slli	a5,s2,0x8
    226c:	0147e7b3          	or	a5,a5,s4
    2270:	ac1e                	sh	a5,24(s0)
    2272:	c00ff06f          	j	1672 <i8080_execute+0x5e>
    2276:	2c06                	lhu	s1,24(s0)
    2278:	401c                	lw	a5,0(s0)
    227a:	4808                	lw	a0,16(s0)
    227c:	00148593          	addi	a1,s1,1
    2280:	05c2                	slli	a1,a1,0x10
    2282:	81c1                	srli	a1,a1,0x10
    2284:	02344903          	lbu	s2,35(s0)
    2288:	9782                	jalr	a5
    228a:	89aa                	mv	s3,a0
    228c:	401c                	lw	a5,0(s0)
    228e:	4808                	lw	a0,16(s0)
    2290:	85a6                	mv	a1,s1
    2292:	00297913          	andi	s2,s2,2
    2296:	9782                	jalr	a5
    2298:	2c06                	lhu	s1,24(s0)
    229a:	8a2a                	mv	s4,a0
    229c:	0489                	addi	s1,s1,2
    229e:	04c2                	slli	s1,s1,0x10
    22a0:	80c1                	srli	s1,s1,0x10
    22a2:	ac06                	sh	s1,24(s0)
    22a4:	bc090763          	beqz	s2,1672 <i8080_execute+0x5e>
    22a8:	01a45903          	lhu	s2,26(s0)
    22ac:	4058                	lw	a4,4(s0)
    22ae:	4808                	lw	a0,16(s0)
    22b0:	ffe90793          	addi	a5,s2,-2
    22b4:	07c2                	slli	a5,a5,0x10
    22b6:	83c1                	srli	a5,a5,0x10
    22b8:	85be                	mv	a1,a5
    22ba:	0ff4f613          	andi	a2,s1,255
    22be:	ac3e                	sh	a5,26(s0)
    22c0:	9702                	jalr	a4
    22c2:	405c                	lw	a5,4(s0)
    22c4:	4808                	lw	a0,16(s0)
    22c6:	fff90593          	addi	a1,s2,-1
    22ca:	05c2                	slli	a1,a1,0x10
    22cc:	0084d613          	srli	a2,s1,0x8
    22d0:	81c1                	srli	a1,a1,0x10
    22d2:	9782                	jalr	a5
    22d4:	4858                	lw	a4,20(s0)
    22d6:	00899793          	slli	a5,s3,0x8
    22da:	0147e7b3          	or	a5,a5,s4
    22de:	0719                	addi	a4,a4,6
    22e0:	ac1e                	sh	a5,24(s0)
    22e2:	c858                	sw	a4,20(s0)
    22e4:	b8eff06f          	j	1672 <i8080_execute+0x5e>
    22e8:	01845903          	lhu	s2,24(s0)
    22ec:	401c                	lw	a5,0(s0)
    22ee:	4808                	lw	a0,16(s0)
    22f0:	00190593          	addi	a1,s2,1
    22f4:	05c2                	slli	a1,a1,0x10
    22f6:	81c1                	srli	a1,a1,0x10
    22f8:	9782                	jalr	a5
    22fa:	84aa                	mv	s1,a0
    22fc:	401c                	lw	a5,0(s0)
    22fe:	4808                	lw	a0,16(s0)
    2300:	85ca                	mv	a1,s2
    2302:	04a2                	slli	s1,s1,0x8
    2304:	9782                	jalr	a5
    2306:	8cc9                	or	s1,s1,a0
    2308:	ac06                	sh	s1,24(s0)
    230a:	b68ff06f          	j	1672 <i8080_execute+0x5e>
    230e:	01845983          	lhu	s3,24(s0)
    2312:	401c                	lw	a5,0(s0)
    2314:	4808                	lw	a0,16(s0)
    2316:	00198593          	addi	a1,s3,1
    231a:	05c2                	slli	a1,a1,0x10
    231c:	81c1                	srli	a1,a1,0x10
    231e:	02344483          	lbu	s1,35(s0)
    2322:	9782                	jalr	a5
    2324:	892a                	mv	s2,a0
    2326:	401c                	lw	a5,0(s0)
    2328:	4808                	lw	a0,16(s0)
    232a:	8889                	andi	s1,s1,2
    232c:	85ce                	mv	a1,s3
    232e:	9782                	jalr	a5
    2330:	c099                	beqz	s1,2336 <i8080_execute+0xd22>
    2332:	0380306f          	j	536a <i8080_execute+0x3d56>
    2336:	2c1e                	lhu	a5,24(s0)
    2338:	0789                	addi	a5,a5,2
    233a:	ac1e                	sh	a5,24(s0)
    233c:	b36ff06f          	j	1672 <i8080_execute+0x5e>
    2340:	01a45903          	lhu	s2,26(s0)
    2344:	401c                	lw	a5,0(s0)
    2346:	4808                	lw	a0,16(s0)
    2348:	00190593          	addi	a1,s2,1
    234c:	05c2                	slli	a1,a1,0x10
    234e:	81c1                	srli	a1,a1,0x10
    2350:	9782                	jalr	a5
    2352:	84aa                	mv	s1,a0
    2354:	401c                	lw	a5,0(s0)
    2356:	4808                	lw	a0,16(s0)
    2358:	85ca                	mv	a1,s2
    235a:	04a2                	slli	s1,s1,0x8
    235c:	9782                	jalr	a5
    235e:	2c3e                	lhu	a5,26(s0)
    2360:	8cc9                	or	s1,s1,a0
    2362:	ac06                	sh	s1,24(s0)
    2364:	0789                	addi	a5,a5,2
    2366:	ac3e                	sh	a5,26(s0)
    2368:	b0aff06f          	j	1672 <i8080_execute+0x5e>
    236c:	02344783          	lbu	a5,35(s0)
    2370:	8b89                	andi	a5,a5,2
    2372:	b0078063          	beqz	a5,1672 <i8080_execute+0x5e>
    2376:	01a45903          	lhu	s2,26(s0)
    237a:	401c                	lw	a5,0(s0)
    237c:	4808                	lw	a0,16(s0)
    237e:	00190593          	addi	a1,s2,1
    2382:	05c2                	slli	a1,a1,0x10
    2384:	81c1                	srli	a1,a1,0x10
    2386:	9782                	jalr	a5
    2388:	84aa                	mv	s1,a0
    238a:	401c                	lw	a5,0(s0)
    238c:	4808                	lw	a0,16(s0)
    238e:	85ca                	mv	a1,s2
    2390:	04a2                	slli	s1,s1,0x8
    2392:	9782                	jalr	a5
    2394:	2c3a                	lhu	a4,26(s0)
    2396:	485c                	lw	a5,20(s0)
    2398:	8cc9                	or	s1,s1,a0
    239a:	0709                	addi	a4,a4,2
    239c:	0799                	addi	a5,a5,6
    239e:	ac3a                	sh	a4,26(s0)
    23a0:	ac06                	sh	s1,24(s0)
    23a2:	c85c                	sw	a5,20(s0)
    23a4:	aceff06f          	j	1672 <i8080_execute+0x5e>
    23a8:	2c26                	lhu	s1,26(s0)
    23aa:	01845903          	lhu	s2,24(s0)
    23ae:	4808                	lw	a0,16(s0)
    23b0:	ffe48793          	addi	a5,s1,-2
    23b4:	4058                	lw	a4,4(s0)
    23b6:	07c2                	slli	a5,a5,0x10
    23b8:	83c1                	srli	a5,a5,0x10
    23ba:	85be                	mv	a1,a5
    23bc:	0ff97613          	andi	a2,s2,255
    23c0:	ac3e                	sh	a5,26(s0)
    23c2:	9702                	jalr	a4
    23c4:	4808                	lw	a0,16(s0)
    23c6:	405c                	lw	a5,4(s0)
    23c8:	fff48593          	addi	a1,s1,-1
    23cc:	05c2                	slli	a1,a1,0x10
    23ce:	00895613          	srli	a2,s2,0x8
    23d2:	81c1                	srli	a1,a1,0x10
    23d4:	9782                	jalr	a5
    23d6:	00041c23          	sh	zero,24(s0)
    23da:	a98ff06f          	j	1672 <i8080_execute+0x5e>
    23de:	2c0e                	lhu	a1,24(s0)
    23e0:	401c                	lw	a5,0(s0)
    23e2:	4808                	lw	a0,16(s0)
    23e4:	00158713          	addi	a4,a1,1
    23e8:	ac1a                	sh	a4,24(s0)
    23ea:	9782                	jalr	a5
    23ec:	2c50                	lbu	a2,28(s0)
    23ee:	02344783          	lbu	a5,35(s0)
    23f2:	4681                	li	a3,0
    23f4:	00c54733          	xor	a4,a0,a2
    23f8:	0ff77713          	andi	a4,a4,255
    23fc:	962a                	add	a2,a2,a0
    23fe:	8f31                	xor	a4,a4,a2
    2400:	0742                	slli	a4,a4,0x10
    2402:	8341                	srli	a4,a4,0x10
    2404:	00475593          	srli	a1,a4,0x4
    2408:	89c1                	andi	a1,a1,16
    240a:	0eb7f793          	andi	a5,a5,235
    240e:	8309                	srli	a4,a4,0x2
    2410:	0ff67613          	andi	a2,a2,255
    2414:	8b11                	andi	a4,a4,4
    2416:	8fcd                	or	a5,a5,a1
    2418:	8fd9                	or	a5,a5,a4
    241a:	00163713          	seqz	a4,a2
    241e:	0706                	slli	a4,a4,0x1
    2420:	0fc7f793          	andi	a5,a5,252
    2424:	00765593          	srli	a1,a2,0x7
    2428:	8fd9                	or	a5,a5,a4
    242a:	8fcd                	or	a5,a5,a1
    242c:	02f401a3          	sb	a5,35(s0)
    2430:	4701                	li	a4,0
    2432:	45a1                	li	a1,8
    2434:	40e657b3          	sra	a5,a2,a4
    2438:	8b85                	andi	a5,a5,1
    243a:	97b6                	add	a5,a5,a3
    243c:	0705                	addi	a4,a4,1
    243e:	0ff7f693          	andi	a3,a5,255
    2442:	feb719e3          	bne	a4,a1,2434 <i8080_execute+0xe20>
    2446:	02344703          	lbu	a4,35(s0)
    244a:	fff6c793          	not	a5,a3
    244e:	8b85                	andi	a5,a5,1
    2450:	078e                	slli	a5,a5,0x3
    2452:	9b5d                	andi	a4,a4,-9
    2454:	8fd9                	or	a5,a5,a4
    2456:	02f401a3          	sb	a5,35(s0)
    245a:	ac50                	sb	a2,28(s0)
    245c:	a16ff06f          	j	1672 <i8080_execute+0x5e>
    2460:	3c44                	lbu	s1,29(s0)
    2462:	01a45903          	lhu	s2,26(s0)
    2466:	2c7c                	lbu	a5,30(s0)
    2468:	04a2                	slli	s1,s1,0x8
    246a:	4808                	lw	a0,16(s0)
    246c:	8cdd                	or	s1,s1,a5
    246e:	ffe90793          	addi	a5,s2,-2
    2472:	4058                	lw	a4,4(s0)
    2474:	04c2                	slli	s1,s1,0x10
    2476:	07c2                	slli	a5,a5,0x10
    2478:	83c1                	srli	a5,a5,0x10
    247a:	84c1                	srai	s1,s1,0x10
    247c:	0ff4f613          	andi	a2,s1,255
    2480:	85be                	mv	a1,a5
    2482:	ac3e                	sh	a5,26(s0)
    2484:	9702                	jalr	a4
    2486:	01049613          	slli	a2,s1,0x10
    248a:	fff90593          	addi	a1,s2,-1
    248e:	4808                	lw	a0,16(s0)
    2490:	405c                	lw	a5,4(s0)
    2492:	8241                	srli	a2,a2,0x10
    2494:	05c2                	slli	a1,a1,0x10
    2496:	8221                	srli	a2,a2,0x8
    2498:	81c1                	srli	a1,a1,0x10
    249a:	9782                	jalr	a5
    249c:	9d6ff06f          	j	1672 <i8080_execute+0x5e>
    24a0:	2c06                	lhu	s1,24(s0)
    24a2:	401c                	lw	a5,0(s0)
    24a4:	4808                	lw	a0,16(s0)
    24a6:	00148593          	addi	a1,s1,1
    24aa:	05c2                	slli	a1,a1,0x10
    24ac:	81c1                	srli	a1,a1,0x10
    24ae:	02042903          	lw	s2,32(s0)
    24b2:	9782                	jalr	a5
    24b4:	89aa                	mv	s3,a0
    24b6:	401c                	lw	a5,0(s0)
    24b8:	4808                	lw	a0,16(s0)
    24ba:	85a6                	mv	a1,s1
    24bc:	01995913          	srli	s2,s2,0x19
    24c0:	9782                	jalr	a5
    24c2:	2c06                	lhu	s1,24(s0)
    24c4:	00197913          	andi	s2,s2,1
    24c8:	8a2a                	mv	s4,a0
    24ca:	0489                	addi	s1,s1,2
    24cc:	04c2                	slli	s1,s1,0x10
    24ce:	80c1                	srli	s1,s1,0x10
    24d0:	ac06                	sh	s1,24(s0)
    24d2:	9a091063          	bnez	s2,1672 <i8080_execute+0x5e>
    24d6:	01a45903          	lhu	s2,26(s0)
    24da:	4058                	lw	a4,4(s0)
    24dc:	4808                	lw	a0,16(s0)
    24de:	ffe90793          	addi	a5,s2,-2
    24e2:	07c2                	slli	a5,a5,0x10
    24e4:	83c1                	srli	a5,a5,0x10
    24e6:	85be                	mv	a1,a5
    24e8:	0ff4f613          	andi	a2,s1,255
    24ec:	ac3e                	sh	a5,26(s0)
    24ee:	9702                	jalr	a4
    24f0:	405c                	lw	a5,4(s0)
    24f2:	4808                	lw	a0,16(s0)
    24f4:	fff90593          	addi	a1,s2,-1
    24f8:	05c2                	slli	a1,a1,0x10
    24fa:	0084d613          	srli	a2,s1,0x8
    24fe:	81c1                	srli	a1,a1,0x10
    2500:	9782                	jalr	a5
    2502:	4858                	lw	a4,20(s0)
    2504:	00899793          	slli	a5,s3,0x8
    2508:	0147e7b3          	or	a5,a5,s4
    250c:	0719                	addi	a4,a4,6
    250e:	ac1e                	sh	a5,24(s0)
    2510:	c858                	sw	a4,20(s0)
    2512:	960ff06f          	j	1672 <i8080_execute+0x5e>
    2516:	01845903          	lhu	s2,24(s0)
    251a:	401c                	lw	a5,0(s0)
    251c:	4808                	lw	a0,16(s0)
    251e:	00190593          	addi	a1,s2,1
    2522:	05c2                	slli	a1,a1,0x10
    2524:	81c1                	srli	a1,a1,0x10
    2526:	9782                	jalr	a5
    2528:	84aa                	mv	s1,a0
    252a:	401c                	lw	a5,0(s0)
    252c:	4808                	lw	a0,16(s0)
    252e:	85ca                	mv	a1,s2
    2530:	04a2                	slli	s1,s1,0x8
    2532:	9782                	jalr	a5
    2534:	8cc9                	or	s1,s1,a0
    2536:	ac06                	sh	s1,24(s0)
    2538:	93aff06f          	j	1672 <i8080_execute+0x5e>
    253c:	01a45903          	lhu	s2,26(s0)
    2540:	401c                	lw	a5,0(s0)
    2542:	4808                	lw	a0,16(s0)
    2544:	00190593          	addi	a1,s2,1
    2548:	05c2                	slli	a1,a1,0x10
    254a:	81c1                	srli	a1,a1,0x10
    254c:	9782                	jalr	a5
    254e:	84aa                	mv	s1,a0
    2550:	401c                	lw	a5,0(s0)
    2552:	4808                	lw	a0,16(s0)
    2554:	85ca                	mv	a1,s2
    2556:	04a2                	slli	s1,s1,0x8
    2558:	9782                	jalr	a5
    255a:	8cc9                	or	s1,s1,a0
    255c:	01049793          	slli	a5,s1,0x10
    2560:	2c36                	lhu	a3,26(s0)
    2562:	87c1                	srai	a5,a5,0x10
    2564:	01079713          	slli	a4,a5,0x10
    2568:	8341                	srli	a4,a4,0x10
    256a:	0689                	addi	a3,a3,2
    256c:	8321                	srli	a4,a4,0x8
    256e:	ac36                	sh	a3,26(s0)
    2570:	bc58                	sb	a4,29(s0)
    2572:	ac7c                	sb	a5,30(s0)
    2574:	8feff06f          	j	1672 <i8080_execute+0x5e>
    2578:	501c                	lw	a5,32(s0)
    257a:	00679713          	slli	a4,a5,0x6
    257e:	8e074a63          	bltz	a4,1672 <i8080_execute+0x5e>
    2582:	01a45903          	lhu	s2,26(s0)
    2586:	401c                	lw	a5,0(s0)
    2588:	4808                	lw	a0,16(s0)
    258a:	00190593          	addi	a1,s2,1
    258e:	05c2                	slli	a1,a1,0x10
    2590:	81c1                	srli	a1,a1,0x10
    2592:	9782                	jalr	a5
    2594:	84aa                	mv	s1,a0
    2596:	401c                	lw	a5,0(s0)
    2598:	4808                	lw	a0,16(s0)
    259a:	85ca                	mv	a1,s2
    259c:	04a2                	slli	s1,s1,0x8
    259e:	9782                	jalr	a5
    25a0:	2c3a                	lhu	a4,26(s0)
    25a2:	485c                	lw	a5,20(s0)
    25a4:	8cc9                	or	s1,s1,a0
    25a6:	0709                	addi	a4,a4,2
    25a8:	0799                	addi	a5,a5,6
    25aa:	ac3a                	sh	a4,26(s0)
    25ac:	ac06                	sh	s1,24(s0)
    25ae:	c85c                	sw	a5,20(s0)
    25b0:	8c2ff06f          	j	1672 <i8080_execute+0x5e>
    25b4:	02344783          	lbu	a5,35(s0)
    25b8:	9b81                	andi	a5,a5,-32
    25ba:	00e7e793          	ori	a5,a5,14
    25be:	02f401a3          	sb	a5,35(s0)
    25c2:	8b0ff06f          	j	1672 <i8080_execute+0x5e>
    25c6:	02144783          	lbu	a5,33(s0)
    25ca:	02244583          	lbu	a1,34(s0)
    25ce:	4018                	lw	a4,0(s0)
    25d0:	4808                	lw	a0,16(s0)
    25d2:	07a2                	slli	a5,a5,0x8
    25d4:	8ddd                	or	a1,a1,a5
    25d6:	9702                	jalr	a4
    25d8:	2c58                	lbu	a4,28(s0)
    25da:	02344683          	lbu	a3,35(s0)
    25de:	4601                	li	a2,0
    25e0:	40a707b3          	sub	a5,a4,a0
    25e4:	01079593          	slli	a1,a5,0x10
    25e8:	81c1                	srli	a1,a1,0x10
    25ea:	8f29                	xor	a4,a4,a0
    25ec:	01059813          	slli	a6,a1,0x10
    25f0:	41085813          	srai	a6,a6,0x10
    25f4:	0ff77713          	andi	a4,a4,255
    25f8:	40885513          	srai	a0,a6,0x8
    25fc:	01074733          	xor	a4,a4,a6
    2600:	00a03533          	snez	a0,a0
    2604:	fff74713          	not	a4,a4
    2608:	0512                	slli	a0,a0,0x4
    260a:	0eb6f693          	andi	a3,a3,235
    260e:	8309                	srli	a4,a4,0x2
    2610:	8ec9                	or	a3,a3,a0
    2612:	8b11                	andi	a4,a4,4
    2614:	0ff5f513          	andi	a0,a1,255
    2618:	8f55                	or	a4,a4,a3
    261a:	00153513          	seqz	a0,a0
    261e:	4075d693          	srai	a3,a1,0x7
    2622:	0506                	slli	a0,a0,0x1
    2624:	0fc77713          	andi	a4,a4,252
    2628:	8a85                	andi	a3,a3,1
    262a:	8f49                	or	a4,a4,a0
    262c:	8f55                	or	a4,a4,a3
    262e:	02e401a3          	sb	a4,35(s0)
    2632:	0ff7f693          	andi	a3,a5,255
    2636:	4701                	li	a4,0
    2638:	45a1                	li	a1,8
    263a:	40e6d7b3          	sra	a5,a3,a4
    263e:	8b85                	andi	a5,a5,1
    2640:	97b2                	add	a5,a5,a2
    2642:	0705                	addi	a4,a4,1
    2644:	0ff7f613          	andi	a2,a5,255
    2648:	feb719e3          	bne	a4,a1,263a <i8080_execute+0x1026>
    264c:	02344703          	lbu	a4,35(s0)
    2650:	fff64793          	not	a5,a2
    2654:	8b85                	andi	a5,a5,1
    2656:	078e                	slli	a5,a5,0x3
    2658:	9b5d                	andi	a4,a4,-9
    265a:	8fd9                	or	a5,a5,a4
    265c:	02f401a3          	sb	a5,35(s0)
    2660:	812ff06f          	j	1672 <i8080_execute+0x5e>
    2664:	2c48                	lbu	a0,28(s0)
    2666:	02244683          	lbu	a3,34(s0)
    266a:	02344703          	lbu	a4,35(s0)
    266e:	4601                	li	a2,0
    2670:	40d507b3          	sub	a5,a0,a3
    2674:	01079593          	slli	a1,a5,0x10
    2678:	81c1                	srli	a1,a1,0x10
    267a:	01059813          	slli	a6,a1,0x10
    267e:	41085813          	srai	a6,a6,0x10
    2682:	8ea9                	xor	a3,a3,a0
    2684:	0106c6b3          	xor	a3,a3,a6
    2688:	40885513          	srai	a0,a6,0x8
    268c:	00a03533          	snez	a0,a0
    2690:	fff6c693          	not	a3,a3
    2694:	0512                	slli	a0,a0,0x4
    2696:	0eb77713          	andi	a4,a4,235
    269a:	8289                	srli	a3,a3,0x2
    269c:	8a91                	andi	a3,a3,4
    269e:	8f49                	or	a4,a4,a0
    26a0:	0ff5f513          	andi	a0,a1,255
    26a4:	8f55                	or	a4,a4,a3
    26a6:	00153513          	seqz	a0,a0
    26aa:	4075d693          	srai	a3,a1,0x7
    26ae:	0506                	slli	a0,a0,0x1
    26b0:	0fc77713          	andi	a4,a4,252
    26b4:	8a85                	andi	a3,a3,1
    26b6:	8f49                	or	a4,a4,a0
    26b8:	8f55                	or	a4,a4,a3
    26ba:	02e401a3          	sb	a4,35(s0)
    26be:	0ff7f693          	andi	a3,a5,255
    26c2:	4701                	li	a4,0
    26c4:	45a1                	li	a1,8
    26c6:	40e6d7b3          	sra	a5,a3,a4
    26ca:	8b85                	andi	a5,a5,1
    26cc:	97b2                	add	a5,a5,a2
    26ce:	0705                	addi	a4,a4,1
    26d0:	0ff7f613          	andi	a2,a5,255
    26d4:	feb719e3          	bne	a4,a1,26c6 <i8080_execute+0x10b2>
    26d8:	02344703          	lbu	a4,35(s0)
    26dc:	fff64793          	not	a5,a2
    26e0:	8b85                	andi	a5,a5,1
    26e2:	078e                	slli	a5,a5,0x3
    26e4:	9b5d                	andi	a4,a4,-9
    26e6:	8fd9                	or	a5,a5,a4
    26e8:	02f401a3          	sb	a5,35(s0)
    26ec:	f87fe06f          	j	1672 <i8080_execute+0x5e>
    26f0:	2c48                	lbu	a0,28(s0)
    26f2:	02144683          	lbu	a3,33(s0)
    26f6:	02344703          	lbu	a4,35(s0)
    26fa:	4601                	li	a2,0
    26fc:	40d507b3          	sub	a5,a0,a3
    2700:	01079593          	slli	a1,a5,0x10
    2704:	81c1                	srli	a1,a1,0x10
    2706:	01059813          	slli	a6,a1,0x10
    270a:	41085813          	srai	a6,a6,0x10
    270e:	8ea9                	xor	a3,a3,a0
    2710:	0106c6b3          	xor	a3,a3,a6
    2714:	40885513          	srai	a0,a6,0x8
    2718:	00a03533          	snez	a0,a0
    271c:	fff6c693          	not	a3,a3
    2720:	0512                	slli	a0,a0,0x4
    2722:	0eb77713          	andi	a4,a4,235
    2726:	8289                	srli	a3,a3,0x2
    2728:	8a91                	andi	a3,a3,4
    272a:	8f49                	or	a4,a4,a0
    272c:	0ff5f513          	andi	a0,a1,255
    2730:	8f55                	or	a4,a4,a3
    2732:	00153513          	seqz	a0,a0
    2736:	4075d693          	srai	a3,a1,0x7
    273a:	0506                	slli	a0,a0,0x1
    273c:	0fc77713          	andi	a4,a4,252
    2740:	8a85                	andi	a3,a3,1
    2742:	8f49                	or	a4,a4,a0
    2744:	8f55                	or	a4,a4,a3
    2746:	02e401a3          	sb	a4,35(s0)
    274a:	0ff7f693          	andi	a3,a5,255
    274e:	4701                	li	a4,0
    2750:	45a1                	li	a1,8
    2752:	40e6d7b3          	sra	a5,a3,a4
    2756:	8b85                	andi	a5,a5,1
    2758:	97b2                	add	a5,a5,a2
    275a:	0705                	addi	a4,a4,1
    275c:	0ff7f613          	andi	a2,a5,255
    2760:	feb719e3          	bne	a4,a1,2752 <i8080_execute+0x113e>
    2764:	02344703          	lbu	a4,35(s0)
    2768:	fff64793          	not	a5,a2
    276c:	8b85                	andi	a5,a5,1
    276e:	078e                	slli	a5,a5,0x3
    2770:	9b5d                	andi	a4,a4,-9
    2772:	8fd9                	or	a5,a5,a4
    2774:	02f401a3          	sb	a5,35(s0)
    2778:	efbfe06f          	j	1672 <i8080_execute+0x5e>
    277c:	2c48                	lbu	a0,28(s0)
    277e:	02044683          	lbu	a3,32(s0)
    2782:	02344703          	lbu	a4,35(s0)
    2786:	4601                	li	a2,0
    2788:	40d507b3          	sub	a5,a0,a3
    278c:	01079593          	slli	a1,a5,0x10
    2790:	81c1                	srli	a1,a1,0x10
    2792:	01059813          	slli	a6,a1,0x10
    2796:	41085813          	srai	a6,a6,0x10
    279a:	8ea9                	xor	a3,a3,a0
    279c:	0106c6b3          	xor	a3,a3,a6
    27a0:	40885513          	srai	a0,a6,0x8
    27a4:	00a03533          	snez	a0,a0
    27a8:	fff6c693          	not	a3,a3
    27ac:	0512                	slli	a0,a0,0x4
    27ae:	0eb77713          	andi	a4,a4,235
    27b2:	8289                	srli	a3,a3,0x2
    27b4:	8a91                	andi	a3,a3,4
    27b6:	8f49                	or	a4,a4,a0
    27b8:	0ff5f513          	andi	a0,a1,255
    27bc:	8f55                	or	a4,a4,a3
    27be:	00153513          	seqz	a0,a0
    27c2:	4075d693          	srai	a3,a1,0x7
    27c6:	0506                	slli	a0,a0,0x1
    27c8:	0fc77713          	andi	a4,a4,252
    27cc:	8a85                	andi	a3,a3,1
    27ce:	8f49                	or	a4,a4,a0
    27d0:	8f55                	or	a4,a4,a3
    27d2:	02e401a3          	sb	a4,35(s0)
    27d6:	0ff7f693          	andi	a3,a5,255
    27da:	4701                	li	a4,0
    27dc:	45a1                	li	a1,8
    27de:	40e6d7b3          	sra	a5,a3,a4
    27e2:	8b85                	andi	a5,a5,1
    27e4:	97b2                	add	a5,a5,a2
    27e6:	0705                	addi	a4,a4,1
    27e8:	0ff7f613          	andi	a2,a5,255
    27ec:	feb719e3          	bne	a4,a1,27de <i8080_execute+0x11ca>
    27f0:	02344703          	lbu	a4,35(s0)
    27f4:	fff64793          	not	a5,a2
    27f8:	8b85                	andi	a5,a5,1
    27fa:	078e                	slli	a5,a5,0x3
    27fc:	9b5d                	andi	a4,a4,-9
    27fe:	8fd9                	or	a5,a5,a4
    2800:	02f401a3          	sb	a5,35(s0)
    2804:	e6ffe06f          	j	1672 <i8080_execute+0x5e>
    2808:	2c48                	lbu	a0,28(s0)
    280a:	3c74                	lbu	a3,31(s0)
    280c:	02344703          	lbu	a4,35(s0)
    2810:	4601                	li	a2,0
    2812:	40d507b3          	sub	a5,a0,a3
    2816:	01079593          	slli	a1,a5,0x10
    281a:	81c1                	srli	a1,a1,0x10
    281c:	01059813          	slli	a6,a1,0x10
    2820:	41085813          	srai	a6,a6,0x10
    2824:	8ea9                	xor	a3,a3,a0
    2826:	0106c6b3          	xor	a3,a3,a6
    282a:	40885513          	srai	a0,a6,0x8
    282e:	00a03533          	snez	a0,a0
    2832:	fff6c693          	not	a3,a3
    2836:	0512                	slli	a0,a0,0x4
    2838:	0eb77713          	andi	a4,a4,235
    283c:	8289                	srli	a3,a3,0x2
    283e:	8a91                	andi	a3,a3,4
    2840:	8f49                	or	a4,a4,a0
    2842:	0ff5f513          	andi	a0,a1,255
    2846:	8f55                	or	a4,a4,a3
    2848:	00153513          	seqz	a0,a0
    284c:	4075d693          	srai	a3,a1,0x7
    2850:	0506                	slli	a0,a0,0x1
    2852:	0fc77713          	andi	a4,a4,252
    2856:	8a85                	andi	a3,a3,1
    2858:	8f49                	or	a4,a4,a0
    285a:	8f55                	or	a4,a4,a3
    285c:	02e401a3          	sb	a4,35(s0)
    2860:	0ff7f693          	andi	a3,a5,255
    2864:	4701                	li	a4,0
    2866:	45a1                	li	a1,8
    2868:	40e6d7b3          	sra	a5,a3,a4
    286c:	8b85                	andi	a5,a5,1
    286e:	97b2                	add	a5,a5,a2
    2870:	0705                	addi	a4,a4,1
    2872:	0ff7f613          	andi	a2,a5,255
    2876:	feb719e3          	bne	a4,a1,2868 <i8080_execute+0x1254>
    287a:	02344703          	lbu	a4,35(s0)
    287e:	fff64793          	not	a5,a2
    2882:	8b85                	andi	a5,a5,1
    2884:	078e                	slli	a5,a5,0x3
    2886:	9b5d                	andi	a4,a4,-9
    2888:	8fd9                	or	a5,a5,a4
    288a:	02f401a3          	sb	a5,35(s0)
    288e:	de5fe06f          	j	1672 <i8080_execute+0x5e>
    2892:	2c48                	lbu	a0,28(s0)
    2894:	2c74                	lbu	a3,30(s0)
    2896:	02344703          	lbu	a4,35(s0)
    289a:	4601                	li	a2,0
    289c:	40d507b3          	sub	a5,a0,a3
    28a0:	01079593          	slli	a1,a5,0x10
    28a4:	81c1                	srli	a1,a1,0x10
    28a6:	01059813          	slli	a6,a1,0x10
    28aa:	41085813          	srai	a6,a6,0x10
    28ae:	8ea9                	xor	a3,a3,a0
    28b0:	0106c6b3          	xor	a3,a3,a6
    28b4:	40885513          	srai	a0,a6,0x8
    28b8:	00a03533          	snez	a0,a0
    28bc:	fff6c693          	not	a3,a3
    28c0:	0512                	slli	a0,a0,0x4
    28c2:	0eb77713          	andi	a4,a4,235
    28c6:	8289                	srli	a3,a3,0x2
    28c8:	8a91                	andi	a3,a3,4
    28ca:	8f49                	or	a4,a4,a0
    28cc:	0ff5f513          	andi	a0,a1,255
    28d0:	8f55                	or	a4,a4,a3
    28d2:	00153513          	seqz	a0,a0
    28d6:	4075d693          	srai	a3,a1,0x7
    28da:	0506                	slli	a0,a0,0x1
    28dc:	0fc77713          	andi	a4,a4,252
    28e0:	8a85                	andi	a3,a3,1
    28e2:	8f49                	or	a4,a4,a0
    28e4:	8f55                	or	a4,a4,a3
    28e6:	02e401a3          	sb	a4,35(s0)
    28ea:	0ff7f693          	andi	a3,a5,255
    28ee:	4701                	li	a4,0
    28f0:	45a1                	li	a1,8
    28f2:	40e6d7b3          	sra	a5,a3,a4
    28f6:	8b85                	andi	a5,a5,1
    28f8:	97b2                	add	a5,a5,a2
    28fa:	0705                	addi	a4,a4,1
    28fc:	0ff7f613          	andi	a2,a5,255
    2900:	feb719e3          	bne	a4,a1,28f2 <i8080_execute+0x12de>
    2904:	02344703          	lbu	a4,35(s0)
    2908:	fff64793          	not	a5,a2
    290c:	8b85                	andi	a5,a5,1
    290e:	078e                	slli	a5,a5,0x3
    2910:	9b5d                	andi	a4,a4,-9
    2912:	8fd9                	or	a5,a5,a4
    2914:	02f401a3          	sb	a5,35(s0)
    2918:	d5bfe06f          	j	1672 <i8080_execute+0x5e>
    291c:	2c48                	lbu	a0,28(s0)
    291e:	3c54                	lbu	a3,29(s0)
    2920:	02344703          	lbu	a4,35(s0)
    2924:	4601                	li	a2,0
    2926:	40d507b3          	sub	a5,a0,a3
    292a:	01079593          	slli	a1,a5,0x10
    292e:	81c1                	srli	a1,a1,0x10
    2930:	01059813          	slli	a6,a1,0x10
    2934:	41085813          	srai	a6,a6,0x10
    2938:	8ea9                	xor	a3,a3,a0
    293a:	0106c6b3          	xor	a3,a3,a6
    293e:	40885513          	srai	a0,a6,0x8
    2942:	00a03533          	snez	a0,a0
    2946:	fff6c693          	not	a3,a3
    294a:	0512                	slli	a0,a0,0x4
    294c:	0eb77713          	andi	a4,a4,235
    2950:	8289                	srli	a3,a3,0x2
    2952:	8a91                	andi	a3,a3,4
    2954:	8f49                	or	a4,a4,a0
    2956:	0ff5f513          	andi	a0,a1,255
    295a:	8f55                	or	a4,a4,a3
    295c:	00153513          	seqz	a0,a0
    2960:	4075d693          	srai	a3,a1,0x7
    2964:	0506                	slli	a0,a0,0x1
    2966:	0fc77713          	andi	a4,a4,252
    296a:	8a85                	andi	a3,a3,1
    296c:	8f49                	or	a4,a4,a0
    296e:	8f55                	or	a4,a4,a3
    2970:	02e401a3          	sb	a4,35(s0)
    2974:	0ff7f693          	andi	a3,a5,255
    2978:	4701                	li	a4,0
    297a:	45a1                	li	a1,8
    297c:	40e6d7b3          	sra	a5,a3,a4
    2980:	8b85                	andi	a5,a5,1
    2982:	97b2                	add	a5,a5,a2
    2984:	0705                	addi	a4,a4,1
    2986:	0ff7f613          	andi	a2,a5,255
    298a:	feb719e3          	bne	a4,a1,297c <i8080_execute+0x1368>
    298e:	02344703          	lbu	a4,35(s0)
    2992:	fff64793          	not	a5,a2
    2996:	8b85                	andi	a5,a5,1
    2998:	078e                	slli	a5,a5,0x3
    299a:	9b5d                	andi	a4,a4,-9
    299c:	8fd9                	or	a5,a5,a4
    299e:	02f401a3          	sb	a5,35(s0)
    29a2:	cd1fe06f          	j	1672 <i8080_execute+0x5e>
    29a6:	2c50                	lbu	a2,28(s0)
    29a8:	02344703          	lbu	a4,35(s0)
    29ac:	4781                	li	a5,0
    29ae:	00163693          	seqz	a3,a2
    29b2:	0686                	slli	a3,a3,0x1
    29b4:	0e877713          	andi	a4,a4,232
    29b8:	00765593          	srli	a1,a2,0x7
    29bc:	8f55                	or	a4,a4,a3
    29be:	8f4d                	or	a4,a4,a1
    29c0:	02e401a3          	sb	a4,35(s0)
    29c4:	45a1                	li	a1,8
    29c6:	4701                	li	a4,0
    29c8:	40e656b3          	sra	a3,a2,a4
    29cc:	8a85                	andi	a3,a3,1
    29ce:	97b6                	add	a5,a5,a3
    29d0:	0705                	addi	a4,a4,1
    29d2:	0ff7f793          	andi	a5,a5,255
    29d6:	feb719e3          	bne	a4,a1,29c8 <i8080_execute+0x13b4>
    29da:	02344703          	lbu	a4,35(s0)
    29de:	fff7c793          	not	a5,a5
    29e2:	8b85                	andi	a5,a5,1
    29e4:	078e                	slli	a5,a5,0x3
    29e6:	9b5d                	andi	a4,a4,-9
    29e8:	8fd9                	or	a5,a5,a4
    29ea:	02f401a3          	sb	a5,35(s0)
    29ee:	c85fe06f          	j	1672 <i8080_execute+0x5e>
    29f2:	02144783          	lbu	a5,33(s0)
    29f6:	02244583          	lbu	a1,34(s0)
    29fa:	4018                	lw	a4,0(s0)
    29fc:	4808                	lw	a0,16(s0)
    29fe:	07a2                	slli	a5,a5,0x8
    2a00:	8ddd                	or	a1,a1,a5
    2a02:	9702                	jalr	a4
    2a04:	2c58                	lbu	a4,28(s0)
    2a06:	02344683          	lbu	a3,35(s0)
    2a0a:	4781                	li	a5,0
    2a0c:	8f49                	or	a4,a4,a0
    2a0e:	0ff77613          	andi	a2,a4,255
    2a12:	00163713          	seqz	a4,a2
    2a16:	00171593          	slli	a1,a4,0x1
    2a1a:	0e86f713          	andi	a4,a3,232
    2a1e:	8f4d                	or	a4,a4,a1
    2a20:	00765693          	srli	a3,a2,0x7
    2a24:	8f55                	or	a4,a4,a3
    2a26:	02e401a3          	sb	a4,35(s0)
    2a2a:	ac50                	sb	a2,28(s0)
    2a2c:	4701                	li	a4,0
    2a2e:	45a1                	li	a1,8
    2a30:	40e656b3          	sra	a3,a2,a4
    2a34:	8a85                	andi	a3,a3,1
    2a36:	97b6                	add	a5,a5,a3
    2a38:	0705                	addi	a4,a4,1
    2a3a:	0ff7f793          	andi	a5,a5,255
    2a3e:	feb719e3          	bne	a4,a1,2a30 <i8080_execute+0x141c>
    2a42:	02344703          	lbu	a4,35(s0)
    2a46:	fff7c793          	not	a5,a5
    2a4a:	8b85                	andi	a5,a5,1
    2a4c:	078e                	slli	a5,a5,0x3
    2a4e:	9b5d                	andi	a4,a4,-9
    2a50:	8fd9                	or	a5,a5,a4
    2a52:	02f401a3          	sb	a5,35(s0)
    2a56:	c1dfe06f          	j	1672 <i8080_execute+0x5e>
    2a5a:	2c54                	lbu	a3,28(s0)
    2a5c:	02244603          	lbu	a2,34(s0)
    2a60:	02344703          	lbu	a4,35(s0)
    2a64:	4781                	li	a5,0
    2a66:	8e55                	or	a2,a2,a3
    2a68:	00163693          	seqz	a3,a2
    2a6c:	0686                	slli	a3,a3,0x1
    2a6e:	0e877713          	andi	a4,a4,232
    2a72:	00765593          	srli	a1,a2,0x7
    2a76:	8f55                	or	a4,a4,a3
    2a78:	8f4d                	or	a4,a4,a1
    2a7a:	02e401a3          	sb	a4,35(s0)
    2a7e:	ac50                	sb	a2,28(s0)
    2a80:	4701                	li	a4,0
    2a82:	45a1                	li	a1,8
    2a84:	40e656b3          	sra	a3,a2,a4
    2a88:	8a85                	andi	a3,a3,1
    2a8a:	97b6                	add	a5,a5,a3
    2a8c:	0705                	addi	a4,a4,1
    2a8e:	0ff7f793          	andi	a5,a5,255
    2a92:	feb719e3          	bne	a4,a1,2a84 <i8080_execute+0x1470>
    2a96:	02344703          	lbu	a4,35(s0)
    2a9a:	fff7c793          	not	a5,a5
    2a9e:	8b85                	andi	a5,a5,1
    2aa0:	078e                	slli	a5,a5,0x3
    2aa2:	9b5d                	andi	a4,a4,-9
    2aa4:	8fd9                	or	a5,a5,a4
    2aa6:	02f401a3          	sb	a5,35(s0)
    2aaa:	bc9fe06f          	j	1672 <i8080_execute+0x5e>
    2aae:	2c54                	lbu	a3,28(s0)
    2ab0:	02144603          	lbu	a2,33(s0)
    2ab4:	02344703          	lbu	a4,35(s0)
    2ab8:	4781                	li	a5,0
    2aba:	8e55                	or	a2,a2,a3
    2abc:	00163693          	seqz	a3,a2
    2ac0:	0686                	slli	a3,a3,0x1
    2ac2:	0e877713          	andi	a4,a4,232
    2ac6:	00765593          	srli	a1,a2,0x7
    2aca:	8f55                	or	a4,a4,a3
    2acc:	8f4d                	or	a4,a4,a1
    2ace:	02e401a3          	sb	a4,35(s0)
    2ad2:	ac50                	sb	a2,28(s0)
    2ad4:	4701                	li	a4,0
    2ad6:	45a1                	li	a1,8
    2ad8:	40e656b3          	sra	a3,a2,a4
    2adc:	8a85                	andi	a3,a3,1
    2ade:	97b6                	add	a5,a5,a3
    2ae0:	0705                	addi	a4,a4,1
    2ae2:	0ff7f793          	andi	a5,a5,255
    2ae6:	feb719e3          	bne	a4,a1,2ad8 <i8080_execute+0x14c4>
    2aea:	02344703          	lbu	a4,35(s0)
    2aee:	fff7c793          	not	a5,a5
    2af2:	8b85                	andi	a5,a5,1
    2af4:	078e                	slli	a5,a5,0x3
    2af6:	9b5d                	andi	a4,a4,-9
    2af8:	8fd9                	or	a5,a5,a4
    2afa:	02f401a3          	sb	a5,35(s0)
    2afe:	b75fe06f          	j	1672 <i8080_execute+0x5e>
    2b02:	2c54                	lbu	a3,28(s0)
    2b04:	02044603          	lbu	a2,32(s0)
    2b08:	02344703          	lbu	a4,35(s0)
    2b0c:	4781                	li	a5,0
    2b0e:	8e55                	or	a2,a2,a3
    2b10:	00163693          	seqz	a3,a2
    2b14:	0686                	slli	a3,a3,0x1
    2b16:	0e877713          	andi	a4,a4,232
    2b1a:	00765593          	srli	a1,a2,0x7
    2b1e:	8f55                	or	a4,a4,a3
    2b20:	8f4d                	or	a4,a4,a1
    2b22:	02e401a3          	sb	a4,35(s0)
    2b26:	ac50                	sb	a2,28(s0)
    2b28:	4701                	li	a4,0
    2b2a:	45a1                	li	a1,8
    2b2c:	40e656b3          	sra	a3,a2,a4
    2b30:	8a85                	andi	a3,a3,1
    2b32:	97b6                	add	a5,a5,a3
    2b34:	0705                	addi	a4,a4,1
    2b36:	0ff7f793          	andi	a5,a5,255
    2b3a:	feb719e3          	bne	a4,a1,2b2c <i8080_execute+0x1518>
    2b3e:	02344703          	lbu	a4,35(s0)
    2b42:	fff7c793          	not	a5,a5
    2b46:	8b85                	andi	a5,a5,1
    2b48:	078e                	slli	a5,a5,0x3
    2b4a:	9b5d                	andi	a4,a4,-9
    2b4c:	8fd9                	or	a5,a5,a4
    2b4e:	02f401a3          	sb	a5,35(s0)
    2b52:	b21fe06f          	j	1672 <i8080_execute+0x5e>
    2b56:	2c54                	lbu	a3,28(s0)
    2b58:	3c70                	lbu	a2,31(s0)
    2b5a:	02344703          	lbu	a4,35(s0)
    2b5e:	4781                	li	a5,0
    2b60:	8e55                	or	a2,a2,a3
    2b62:	00163693          	seqz	a3,a2
    2b66:	0686                	slli	a3,a3,0x1
    2b68:	0e877713          	andi	a4,a4,232
    2b6c:	00765593          	srli	a1,a2,0x7
    2b70:	8f55                	or	a4,a4,a3
    2b72:	8f4d                	or	a4,a4,a1
    2b74:	02e401a3          	sb	a4,35(s0)
    2b78:	ac50                	sb	a2,28(s0)
    2b7a:	4701                	li	a4,0
    2b7c:	45a1                	li	a1,8
    2b7e:	40e656b3          	sra	a3,a2,a4
    2b82:	8a85                	andi	a3,a3,1
    2b84:	97b6                	add	a5,a5,a3
    2b86:	0705                	addi	a4,a4,1
    2b88:	0ff7f793          	andi	a5,a5,255
    2b8c:	feb719e3          	bne	a4,a1,2b7e <i8080_execute+0x156a>
    2b90:	02344703          	lbu	a4,35(s0)
    2b94:	fff7c793          	not	a5,a5
    2b98:	8b85                	andi	a5,a5,1
    2b9a:	078e                	slli	a5,a5,0x3
    2b9c:	9b5d                	andi	a4,a4,-9
    2b9e:	8fd9                	or	a5,a5,a4
    2ba0:	02f401a3          	sb	a5,35(s0)
    2ba4:	acffe06f          	j	1672 <i8080_execute+0x5e>
    2ba8:	2c54                	lbu	a3,28(s0)
    2baa:	2c70                	lbu	a2,30(s0)
    2bac:	02344703          	lbu	a4,35(s0)
    2bb0:	4781                	li	a5,0
    2bb2:	8e55                	or	a2,a2,a3
    2bb4:	00163693          	seqz	a3,a2
    2bb8:	0686                	slli	a3,a3,0x1
    2bba:	0e877713          	andi	a4,a4,232
    2bbe:	00765593          	srli	a1,a2,0x7
    2bc2:	8f55                	or	a4,a4,a3
    2bc4:	8f4d                	or	a4,a4,a1
    2bc6:	02e401a3          	sb	a4,35(s0)
    2bca:	ac50                	sb	a2,28(s0)
    2bcc:	4701                	li	a4,0
    2bce:	45a1                	li	a1,8
    2bd0:	40e656b3          	sra	a3,a2,a4
    2bd4:	8a85                	andi	a3,a3,1
    2bd6:	97b6                	add	a5,a5,a3
    2bd8:	0705                	addi	a4,a4,1
    2bda:	0ff7f793          	andi	a5,a5,255
    2bde:	feb719e3          	bne	a4,a1,2bd0 <i8080_execute+0x15bc>
    2be2:	02344703          	lbu	a4,35(s0)
    2be6:	fff7c793          	not	a5,a5
    2bea:	8b85                	andi	a5,a5,1
    2bec:	078e                	slli	a5,a5,0x3
    2bee:	9b5d                	andi	a4,a4,-9
    2bf0:	8fd9                	or	a5,a5,a4
    2bf2:	02f401a3          	sb	a5,35(s0)
    2bf6:	a7dfe06f          	j	1672 <i8080_execute+0x5e>
    2bfa:	2c54                	lbu	a3,28(s0)
    2bfc:	3c50                	lbu	a2,29(s0)
    2bfe:	02344703          	lbu	a4,35(s0)
    2c02:	4781                	li	a5,0
    2c04:	8e55                	or	a2,a2,a3
    2c06:	00163693          	seqz	a3,a2
    2c0a:	0686                	slli	a3,a3,0x1
    2c0c:	0e877713          	andi	a4,a4,232
    2c10:	00765593          	srli	a1,a2,0x7
    2c14:	8f55                	or	a4,a4,a3
    2c16:	8f4d                	or	a4,a4,a1
    2c18:	02e401a3          	sb	a4,35(s0)
    2c1c:	ac50                	sb	a2,28(s0)
    2c1e:	4701                	li	a4,0
    2c20:	45a1                	li	a1,8
    2c22:	40e656b3          	sra	a3,a2,a4
    2c26:	8a85                	andi	a3,a3,1
    2c28:	97b6                	add	a5,a5,a3
    2c2a:	0705                	addi	a4,a4,1
    2c2c:	0ff7f793          	andi	a5,a5,255
    2c30:	feb719e3          	bne	a4,a1,2c22 <i8080_execute+0x160e>
    2c34:	02344703          	lbu	a4,35(s0)
    2c38:	fff7c793          	not	a5,a5
    2c3c:	8b85                	andi	a5,a5,1
    2c3e:	078e                	slli	a5,a5,0x3
    2c40:	9b5d                	andi	a4,a4,-9
    2c42:	8fd9                	or	a5,a5,a4
    2c44:	02f401a3          	sb	a5,35(s0)
    2c48:	a2bfe06f          	j	1672 <i8080_execute+0x5e>
    2c4c:	02344783          	lbu	a5,35(s0)
    2c50:	00040e23          	sb	zero,28(s0)
    2c54:	9b81                	andi	a5,a5,-32
    2c56:	00a7e793          	ori	a5,a5,10
    2c5a:	02f401a3          	sb	a5,35(s0)
    2c5e:	a15fe06f          	j	1672 <i8080_execute+0x5e>
    2c62:	02144783          	lbu	a5,33(s0)
    2c66:	02244583          	lbu	a1,34(s0)
    2c6a:	4018                	lw	a4,0(s0)
    2c6c:	4808                	lw	a0,16(s0)
    2c6e:	07a2                	slli	a5,a5,0x8
    2c70:	8ddd                	or	a1,a1,a5
    2c72:	9702                	jalr	a4
    2c74:	2c58                	lbu	a4,28(s0)
    2c76:	02344683          	lbu	a3,35(s0)
    2c7a:	4781                	li	a5,0
    2c7c:	40a70633          	sub	a2,a4,a0
    2c80:	00163593          	seqz	a1,a2
    2c84:	8f29                	xor	a4,a4,a0
    2c86:	0ff77613          	andi	a2,a4,255
    2c8a:	0586                	slli	a1,a1,0x1
    2c8c:	0e86f713          	andi	a4,a3,232
    2c90:	8f4d                	or	a4,a4,a1
    2c92:	00765693          	srli	a3,a2,0x7
    2c96:	8f55                	or	a4,a4,a3
    2c98:	02e401a3          	sb	a4,35(s0)
    2c9c:	ac50                	sb	a2,28(s0)
    2c9e:	4701                	li	a4,0
    2ca0:	45a1                	li	a1,8
    2ca2:	40e656b3          	sra	a3,a2,a4
    2ca6:	8a85                	andi	a3,a3,1
    2ca8:	97b6                	add	a5,a5,a3
    2caa:	0705                	addi	a4,a4,1
    2cac:	0ff7f793          	andi	a5,a5,255
    2cb0:	feb719e3          	bne	a4,a1,2ca2 <i8080_execute+0x168e>
    2cb4:	02344703          	lbu	a4,35(s0)
    2cb8:	fff7c793          	not	a5,a5
    2cbc:	8b85                	andi	a5,a5,1
    2cbe:	078e                	slli	a5,a5,0x3
    2cc0:	9b5d                	andi	a4,a4,-9
    2cc2:	8fd9                	or	a5,a5,a4
    2cc4:	02f401a3          	sb	a5,35(s0)
    2cc8:	9abfe06f          	j	1672 <i8080_execute+0x5e>
    2ccc:	2c4c                	lbu	a1,28(s0)
    2cce:	02244603          	lbu	a2,34(s0)
    2cd2:	02344703          	lbu	a4,35(s0)
    2cd6:	4781                	li	a5,0
    2cd8:	40b606b3          	sub	a3,a2,a1
    2cdc:	0016b693          	seqz	a3,a3
    2ce0:	8e2d                	xor	a2,a2,a1
    2ce2:	0686                	slli	a3,a3,0x1
    2ce4:	0e877713          	andi	a4,a4,232
    2ce8:	00765593          	srli	a1,a2,0x7
    2cec:	8f55                	or	a4,a4,a3
    2cee:	8f4d                	or	a4,a4,a1
    2cf0:	02e401a3          	sb	a4,35(s0)
    2cf4:	ac50                	sb	a2,28(s0)
    2cf6:	4701                	li	a4,0
    2cf8:	45a1                	li	a1,8
    2cfa:	40e656b3          	sra	a3,a2,a4
    2cfe:	8a85                	andi	a3,a3,1
    2d00:	97b6                	add	a5,a5,a3
    2d02:	0705                	addi	a4,a4,1
    2d04:	0ff7f793          	andi	a5,a5,255
    2d08:	feb719e3          	bne	a4,a1,2cfa <i8080_execute+0x16e6>
    2d0c:	02344703          	lbu	a4,35(s0)
    2d10:	fff7c793          	not	a5,a5
    2d14:	8b85                	andi	a5,a5,1
    2d16:	078e                	slli	a5,a5,0x3
    2d18:	9b5d                	andi	a4,a4,-9
    2d1a:	8fd9                	or	a5,a5,a4
    2d1c:	02f401a3          	sb	a5,35(s0)
    2d20:	953fe06f          	j	1672 <i8080_execute+0x5e>
    2d24:	2c4c                	lbu	a1,28(s0)
    2d26:	02144603          	lbu	a2,33(s0)
    2d2a:	02344703          	lbu	a4,35(s0)
    2d2e:	4781                	li	a5,0
    2d30:	40b606b3          	sub	a3,a2,a1
    2d34:	0016b693          	seqz	a3,a3
    2d38:	8e2d                	xor	a2,a2,a1
    2d3a:	0686                	slli	a3,a3,0x1
    2d3c:	0e877713          	andi	a4,a4,232
    2d40:	00765593          	srli	a1,a2,0x7
    2d44:	8f55                	or	a4,a4,a3
    2d46:	8f4d                	or	a4,a4,a1
    2d48:	02e401a3          	sb	a4,35(s0)
    2d4c:	ac50                	sb	a2,28(s0)
    2d4e:	4701                	li	a4,0
    2d50:	45a1                	li	a1,8
    2d52:	40e656b3          	sra	a3,a2,a4
    2d56:	8a85                	andi	a3,a3,1
    2d58:	97b6                	add	a5,a5,a3
    2d5a:	0705                	addi	a4,a4,1
    2d5c:	0ff7f793          	andi	a5,a5,255
    2d60:	feb719e3          	bne	a4,a1,2d52 <i8080_execute+0x173e>
    2d64:	02344703          	lbu	a4,35(s0)
    2d68:	fff7c793          	not	a5,a5
    2d6c:	8b85                	andi	a5,a5,1
    2d6e:	078e                	slli	a5,a5,0x3
    2d70:	9b5d                	andi	a4,a4,-9
    2d72:	8fd9                	or	a5,a5,a4
    2d74:	02f401a3          	sb	a5,35(s0)
    2d78:	8fbfe06f          	j	1672 <i8080_execute+0x5e>
    2d7c:	2c4c                	lbu	a1,28(s0)
    2d7e:	02044603          	lbu	a2,32(s0)
    2d82:	02344703          	lbu	a4,35(s0)
    2d86:	4781                	li	a5,0
    2d88:	40b606b3          	sub	a3,a2,a1
    2d8c:	0016b693          	seqz	a3,a3
    2d90:	8e2d                	xor	a2,a2,a1
    2d92:	0686                	slli	a3,a3,0x1
    2d94:	0e877713          	andi	a4,a4,232
    2d98:	00765593          	srli	a1,a2,0x7
    2d9c:	8f55                	or	a4,a4,a3
    2d9e:	8f4d                	or	a4,a4,a1
    2da0:	02e401a3          	sb	a4,35(s0)
    2da4:	ac50                	sb	a2,28(s0)
    2da6:	4701                	li	a4,0
    2da8:	45a1                	li	a1,8
    2daa:	40e656b3          	sra	a3,a2,a4
    2dae:	8a85                	andi	a3,a3,1
    2db0:	97b6                	add	a5,a5,a3
    2db2:	0705                	addi	a4,a4,1
    2db4:	0ff7f793          	andi	a5,a5,255
    2db8:	feb719e3          	bne	a4,a1,2daa <i8080_execute+0x1796>
    2dbc:	02344703          	lbu	a4,35(s0)
    2dc0:	fff7c793          	not	a5,a5
    2dc4:	8b85                	andi	a5,a5,1
    2dc6:	078e                	slli	a5,a5,0x3
    2dc8:	9b5d                	andi	a4,a4,-9
    2dca:	8fd9                	or	a5,a5,a4
    2dcc:	02f401a3          	sb	a5,35(s0)
    2dd0:	8a3fe06f          	j	1672 <i8080_execute+0x5e>
    2dd4:	2c4c                	lbu	a1,28(s0)
    2dd6:	3c70                	lbu	a2,31(s0)
    2dd8:	02344703          	lbu	a4,35(s0)
    2ddc:	4781                	li	a5,0
    2dde:	40b606b3          	sub	a3,a2,a1
    2de2:	0016b693          	seqz	a3,a3
    2de6:	8e2d                	xor	a2,a2,a1
    2de8:	0686                	slli	a3,a3,0x1
    2dea:	0e877713          	andi	a4,a4,232
    2dee:	00765593          	srli	a1,a2,0x7
    2df2:	8f55                	or	a4,a4,a3
    2df4:	8f4d                	or	a4,a4,a1
    2df6:	02e401a3          	sb	a4,35(s0)
    2dfa:	ac50                	sb	a2,28(s0)
    2dfc:	4701                	li	a4,0
    2dfe:	45a1                	li	a1,8
    2e00:	40e656b3          	sra	a3,a2,a4
    2e04:	8a85                	andi	a3,a3,1
    2e06:	97b6                	add	a5,a5,a3
    2e08:	0705                	addi	a4,a4,1
    2e0a:	0ff7f793          	andi	a5,a5,255
    2e0e:	feb719e3          	bne	a4,a1,2e00 <i8080_execute+0x17ec>
    2e12:	02344703          	lbu	a4,35(s0)
    2e16:	fff7c793          	not	a5,a5
    2e1a:	8b85                	andi	a5,a5,1
    2e1c:	078e                	slli	a5,a5,0x3
    2e1e:	9b5d                	andi	a4,a4,-9
    2e20:	8fd9                	or	a5,a5,a4
    2e22:	02f401a3          	sb	a5,35(s0)
    2e26:	84dfe06f          	j	1672 <i8080_execute+0x5e>
    2e2a:	2c4c                	lbu	a1,28(s0)
    2e2c:	2c70                	lbu	a2,30(s0)
    2e2e:	02344703          	lbu	a4,35(s0)
    2e32:	4781                	li	a5,0
    2e34:	40b606b3          	sub	a3,a2,a1
    2e38:	0016b693          	seqz	a3,a3
    2e3c:	8e2d                	xor	a2,a2,a1
    2e3e:	0686                	slli	a3,a3,0x1
    2e40:	0e877713          	andi	a4,a4,232
    2e44:	00765593          	srli	a1,a2,0x7
    2e48:	8f55                	or	a4,a4,a3
    2e4a:	8f4d                	or	a4,a4,a1
    2e4c:	02e401a3          	sb	a4,35(s0)
    2e50:	ac50                	sb	a2,28(s0)
    2e52:	4701                	li	a4,0
    2e54:	45a1                	li	a1,8
    2e56:	40e656b3          	sra	a3,a2,a4
    2e5a:	8a85                	andi	a3,a3,1
    2e5c:	97b6                	add	a5,a5,a3
    2e5e:	0705                	addi	a4,a4,1
    2e60:	0ff7f793          	andi	a5,a5,255
    2e64:	feb719e3          	bne	a4,a1,2e56 <i8080_execute+0x1842>
    2e68:	02344703          	lbu	a4,35(s0)
    2e6c:	fff7c793          	not	a5,a5
    2e70:	8b85                	andi	a5,a5,1
    2e72:	078e                	slli	a5,a5,0x3
    2e74:	9b5d                	andi	a4,a4,-9
    2e76:	8fd9                	or	a5,a5,a4
    2e78:	02f401a3          	sb	a5,35(s0)
    2e7c:	ff6fe06f          	j	1672 <i8080_execute+0x5e>
    2e80:	2c4c                	lbu	a1,28(s0)
    2e82:	3c50                	lbu	a2,29(s0)
    2e84:	02344703          	lbu	a4,35(s0)
    2e88:	4781                	li	a5,0
    2e8a:	40b606b3          	sub	a3,a2,a1
    2e8e:	0016b693          	seqz	a3,a3
    2e92:	8e2d                	xor	a2,a2,a1
    2e94:	0686                	slli	a3,a3,0x1
    2e96:	0e877713          	andi	a4,a4,232
    2e9a:	00765593          	srli	a1,a2,0x7
    2e9e:	8f55                	or	a4,a4,a3
    2ea0:	8f4d                	or	a4,a4,a1
    2ea2:	02e401a3          	sb	a4,35(s0)
    2ea6:	ac50                	sb	a2,28(s0)
    2ea8:	4701                	li	a4,0
    2eaa:	45a1                	li	a1,8
    2eac:	40e656b3          	sra	a3,a2,a4
    2eb0:	8a85                	andi	a3,a3,1
    2eb2:	97b6                	add	a5,a5,a3
    2eb4:	0705                	addi	a4,a4,1
    2eb6:	0ff7f793          	andi	a5,a5,255
    2eba:	feb719e3          	bne	a4,a1,2eac <i8080_execute+0x1898>
    2ebe:	02344703          	lbu	a4,35(s0)
    2ec2:	fff7c793          	not	a5,a5
    2ec6:	8b85                	andi	a5,a5,1
    2ec8:	078e                	slli	a5,a5,0x3
    2eca:	9b5d                	andi	a4,a4,-9
    2ecc:	8fd9                	or	a5,a5,a4
    2ece:	02f401a3          	sb	a5,35(s0)
    2ed2:	fa0fe06f          	j	1672 <i8080_execute+0x5e>
    2ed6:	2c50                	lbu	a2,28(s0)
    2ed8:	02344703          	lbu	a4,35(s0)
    2edc:	4781                	li	a5,0
    2ede:	00165593          	srli	a1,a2,0x1
    2ee2:	8991                	andi	a1,a1,4
    2ee4:	0e977713          	andi	a4,a4,233
    2ee8:	00163693          	seqz	a3,a2
    2eec:	0686                	slli	a3,a3,0x1
    2eee:	8f4d                	or	a4,a4,a1
    2ef0:	8f55                	or	a4,a4,a3
    2ef2:	9b79                	andi	a4,a4,-2
    2ef4:	00765693          	srli	a3,a2,0x7
    2ef8:	8f55                	or	a4,a4,a3
    2efa:	02e401a3          	sb	a4,35(s0)
    2efe:	45a1                	li	a1,8
    2f00:	4701                	li	a4,0
    2f02:	40e656b3          	sra	a3,a2,a4
    2f06:	8a85                	andi	a3,a3,1
    2f08:	97b6                	add	a5,a5,a3
    2f0a:	0705                	addi	a4,a4,1
    2f0c:	0ff7f793          	andi	a5,a5,255
    2f10:	feb719e3          	bne	a4,a1,2f02 <i8080_execute+0x18ee>
    2f14:	02344703          	lbu	a4,35(s0)
    2f18:	fff7c793          	not	a5,a5
    2f1c:	8b85                	andi	a5,a5,1
    2f1e:	078e                	slli	a5,a5,0x3
    2f20:	9b5d                	andi	a4,a4,-9
    2f22:	8fd9                	or	a5,a5,a4
    2f24:	02f401a3          	sb	a5,35(s0)
    2f28:	f4afe06f          	j	1672 <i8080_execute+0x5e>
    2f2c:	02144783          	lbu	a5,33(s0)
    2f30:	02244583          	lbu	a1,34(s0)
    2f34:	4018                	lw	a4,0(s0)
    2f36:	4808                	lw	a0,16(s0)
    2f38:	07a2                	slli	a5,a5,0x8
    2f3a:	8ddd                	or	a1,a1,a5
    2f3c:	9702                	jalr	a4
    2f3e:	2c50                	lbu	a2,28(s0)
    2f40:	02344703          	lbu	a4,35(s0)
    2f44:	4781                	li	a5,0
    2f46:	00c566b3          	or	a3,a0,a2
    2f4a:	8285                	srli	a3,a3,0x1
    2f4c:	8e69                	and	a2,a2,a0
    2f4e:	8a91                	andi	a3,a3,4
    2f50:	0e977713          	andi	a4,a4,233
    2f54:	00163593          	seqz	a1,a2
    2f58:	0586                	slli	a1,a1,0x1
    2f5a:	8f55                	or	a4,a4,a3
    2f5c:	8f4d                	or	a4,a4,a1
    2f5e:	00765693          	srli	a3,a2,0x7
    2f62:	9b79                	andi	a4,a4,-2
    2f64:	8f55                	or	a4,a4,a3
    2f66:	02e401a3          	sb	a4,35(s0)
    2f6a:	45a1                	li	a1,8
    2f6c:	4701                	li	a4,0
    2f6e:	40e656b3          	sra	a3,a2,a4
    2f72:	8a85                	andi	a3,a3,1
    2f74:	97b6                	add	a5,a5,a3
    2f76:	0705                	addi	a4,a4,1
    2f78:	0ff7f793          	andi	a5,a5,255
    2f7c:	feb719e3          	bne	a4,a1,2f6e <i8080_execute+0x195a>
    2f80:	02344703          	lbu	a4,35(s0)
    2f84:	fff7c793          	not	a5,a5
    2f88:	8b85                	andi	a5,a5,1
    2f8a:	078e                	slli	a5,a5,0x3
    2f8c:	9b5d                	andi	a4,a4,-9
    2f8e:	8fd9                	or	a5,a5,a4
    2f90:	02f401a3          	sb	a5,35(s0)
    2f94:	ac50                	sb	a2,28(s0)
    2f96:	edcfe06f          	j	1672 <i8080_execute+0x5e>
    2f9a:	2c4c                	lbu	a1,28(s0)
    2f9c:	02244603          	lbu	a2,34(s0)
    2fa0:	02344703          	lbu	a4,35(s0)
    2fa4:	4781                	li	a5,0
    2fa6:	00b666b3          	or	a3,a2,a1
    2faa:	8285                	srli	a3,a3,0x1
    2fac:	8e6d                	and	a2,a2,a1
    2fae:	8a91                	andi	a3,a3,4
    2fb0:	0e977713          	andi	a4,a4,233
    2fb4:	00163593          	seqz	a1,a2
    2fb8:	0586                	slli	a1,a1,0x1
    2fba:	8f55                	or	a4,a4,a3
    2fbc:	8f4d                	or	a4,a4,a1
    2fbe:	00765693          	srli	a3,a2,0x7
    2fc2:	9b79                	andi	a4,a4,-2
    2fc4:	8f55                	or	a4,a4,a3
    2fc6:	02e401a3          	sb	a4,35(s0)
    2fca:	45a1                	li	a1,8
    2fcc:	4701                	li	a4,0
    2fce:	40e656b3          	sra	a3,a2,a4
    2fd2:	8a85                	andi	a3,a3,1
    2fd4:	97b6                	add	a5,a5,a3
    2fd6:	0705                	addi	a4,a4,1
    2fd8:	0ff7f793          	andi	a5,a5,255
    2fdc:	feb719e3          	bne	a4,a1,2fce <i8080_execute+0x19ba>
    2fe0:	02344703          	lbu	a4,35(s0)
    2fe4:	fff7c793          	not	a5,a5
    2fe8:	8b85                	andi	a5,a5,1
    2fea:	078e                	slli	a5,a5,0x3
    2fec:	9b5d                	andi	a4,a4,-9
    2fee:	8fd9                	or	a5,a5,a4
    2ff0:	02f401a3          	sb	a5,35(s0)
    2ff4:	ac50                	sb	a2,28(s0)
    2ff6:	e7cfe06f          	j	1672 <i8080_execute+0x5e>
    2ffa:	2c4c                	lbu	a1,28(s0)
    2ffc:	02144603          	lbu	a2,33(s0)
    3000:	02344703          	lbu	a4,35(s0)
    3004:	4781                	li	a5,0
    3006:	00b666b3          	or	a3,a2,a1
    300a:	8285                	srli	a3,a3,0x1
    300c:	8e6d                	and	a2,a2,a1
    300e:	8a91                	andi	a3,a3,4
    3010:	0e977713          	andi	a4,a4,233
    3014:	00163593          	seqz	a1,a2
    3018:	0586                	slli	a1,a1,0x1
    301a:	8f55                	or	a4,a4,a3
    301c:	8f4d                	or	a4,a4,a1
    301e:	00765693          	srli	a3,a2,0x7
    3022:	9b79                	andi	a4,a4,-2
    3024:	8f55                	or	a4,a4,a3
    3026:	02e401a3          	sb	a4,35(s0)
    302a:	45a1                	li	a1,8
    302c:	4701                	li	a4,0
    302e:	40e656b3          	sra	a3,a2,a4
    3032:	8a85                	andi	a3,a3,1
    3034:	97b6                	add	a5,a5,a3
    3036:	0705                	addi	a4,a4,1
    3038:	0ff7f793          	andi	a5,a5,255
    303c:	feb719e3          	bne	a4,a1,302e <i8080_execute+0x1a1a>
    3040:	02344703          	lbu	a4,35(s0)
    3044:	fff7c793          	not	a5,a5
    3048:	8b85                	andi	a5,a5,1
    304a:	078e                	slli	a5,a5,0x3
    304c:	9b5d                	andi	a4,a4,-9
    304e:	8fd9                	or	a5,a5,a4
    3050:	02f401a3          	sb	a5,35(s0)
    3054:	ac50                	sb	a2,28(s0)
    3056:	e1cfe06f          	j	1672 <i8080_execute+0x5e>
    305a:	2c4c                	lbu	a1,28(s0)
    305c:	02044603          	lbu	a2,32(s0)
    3060:	02344703          	lbu	a4,35(s0)
    3064:	4781                	li	a5,0
    3066:	00b666b3          	or	a3,a2,a1
    306a:	8285                	srli	a3,a3,0x1
    306c:	8e6d                	and	a2,a2,a1
    306e:	8a91                	andi	a3,a3,4
    3070:	0e977713          	andi	a4,a4,233
    3074:	00163593          	seqz	a1,a2
    3078:	0586                	slli	a1,a1,0x1
    307a:	8f55                	or	a4,a4,a3
    307c:	8f4d                	or	a4,a4,a1
    307e:	00765693          	srli	a3,a2,0x7
    3082:	9b79                	andi	a4,a4,-2
    3084:	8f55                	or	a4,a4,a3
    3086:	02e401a3          	sb	a4,35(s0)
    308a:	45a1                	li	a1,8
    308c:	4701                	li	a4,0
    308e:	40e656b3          	sra	a3,a2,a4
    3092:	8a85                	andi	a3,a3,1
    3094:	97b6                	add	a5,a5,a3
    3096:	0705                	addi	a4,a4,1
    3098:	0ff7f793          	andi	a5,a5,255
    309c:	feb719e3          	bne	a4,a1,308e <i8080_execute+0x1a7a>
    30a0:	02344703          	lbu	a4,35(s0)
    30a4:	fff7c793          	not	a5,a5
    30a8:	8b85                	andi	a5,a5,1
    30aa:	078e                	slli	a5,a5,0x3
    30ac:	9b5d                	andi	a4,a4,-9
    30ae:	8fd9                	or	a5,a5,a4
    30b0:	02f401a3          	sb	a5,35(s0)
    30b4:	ac50                	sb	a2,28(s0)
    30b6:	dbcfe06f          	j	1672 <i8080_execute+0x5e>
    30ba:	2c4c                	lbu	a1,28(s0)
    30bc:	3c70                	lbu	a2,31(s0)
    30be:	02344703          	lbu	a4,35(s0)
    30c2:	4781                	li	a5,0
    30c4:	00b666b3          	or	a3,a2,a1
    30c8:	8285                	srli	a3,a3,0x1
    30ca:	8e6d                	and	a2,a2,a1
    30cc:	8a91                	andi	a3,a3,4
    30ce:	0e977713          	andi	a4,a4,233
    30d2:	00163593          	seqz	a1,a2
    30d6:	0586                	slli	a1,a1,0x1
    30d8:	8f55                	or	a4,a4,a3
    30da:	8f4d                	or	a4,a4,a1
    30dc:	00765693          	srli	a3,a2,0x7
    30e0:	9b79                	andi	a4,a4,-2
    30e2:	8f55                	or	a4,a4,a3
    30e4:	02e401a3          	sb	a4,35(s0)
    30e8:	45a1                	li	a1,8
    30ea:	4701                	li	a4,0
    30ec:	40e656b3          	sra	a3,a2,a4
    30f0:	8a85                	andi	a3,a3,1
    30f2:	97b6                	add	a5,a5,a3
    30f4:	0705                	addi	a4,a4,1
    30f6:	0ff7f793          	andi	a5,a5,255
    30fa:	feb719e3          	bne	a4,a1,30ec <i8080_execute+0x1ad8>
    30fe:	02344703          	lbu	a4,35(s0)
    3102:	fff7c793          	not	a5,a5
    3106:	8b85                	andi	a5,a5,1
    3108:	078e                	slli	a5,a5,0x3
    310a:	9b5d                	andi	a4,a4,-9
    310c:	8fd9                	or	a5,a5,a4
    310e:	02f401a3          	sb	a5,35(s0)
    3112:	ac50                	sb	a2,28(s0)
    3114:	d5efe06f          	j	1672 <i8080_execute+0x5e>
    3118:	2c4c                	lbu	a1,28(s0)
    311a:	2c70                	lbu	a2,30(s0)
    311c:	02344703          	lbu	a4,35(s0)
    3120:	4781                	li	a5,0
    3122:	00b666b3          	or	a3,a2,a1
    3126:	8285                	srli	a3,a3,0x1
    3128:	8e6d                	and	a2,a2,a1
    312a:	8a91                	andi	a3,a3,4
    312c:	0e977713          	andi	a4,a4,233
    3130:	00163593          	seqz	a1,a2
    3134:	0586                	slli	a1,a1,0x1
    3136:	8f55                	or	a4,a4,a3
    3138:	8f4d                	or	a4,a4,a1
    313a:	00765693          	srli	a3,a2,0x7
    313e:	9b79                	andi	a4,a4,-2
    3140:	8f55                	or	a4,a4,a3
    3142:	02e401a3          	sb	a4,35(s0)
    3146:	45a1                	li	a1,8
    3148:	4701                	li	a4,0
    314a:	40e656b3          	sra	a3,a2,a4
    314e:	8a85                	andi	a3,a3,1
    3150:	97b6                	add	a5,a5,a3
    3152:	0705                	addi	a4,a4,1
    3154:	0ff7f793          	andi	a5,a5,255
    3158:	feb719e3          	bne	a4,a1,314a <i8080_execute+0x1b36>
    315c:	02344703          	lbu	a4,35(s0)
    3160:	fff7c793          	not	a5,a5
    3164:	8b85                	andi	a5,a5,1
    3166:	078e                	slli	a5,a5,0x3
    3168:	9b5d                	andi	a4,a4,-9
    316a:	8fd9                	or	a5,a5,a4
    316c:	02f401a3          	sb	a5,35(s0)
    3170:	ac50                	sb	a2,28(s0)
    3172:	d00fe06f          	j	1672 <i8080_execute+0x5e>
    3176:	2c4c                	lbu	a1,28(s0)
    3178:	3c50                	lbu	a2,29(s0)
    317a:	02344703          	lbu	a4,35(s0)
    317e:	4781                	li	a5,0
    3180:	00b666b3          	or	a3,a2,a1
    3184:	8285                	srli	a3,a3,0x1
    3186:	8e6d                	and	a2,a2,a1
    3188:	8a91                	andi	a3,a3,4
    318a:	0e977713          	andi	a4,a4,233
    318e:	00163593          	seqz	a1,a2
    3192:	0586                	slli	a1,a1,0x1
    3194:	8f55                	or	a4,a4,a3
    3196:	8f4d                	or	a4,a4,a1
    3198:	00765693          	srli	a3,a2,0x7
    319c:	9b79                	andi	a4,a4,-2
    319e:	8f55                	or	a4,a4,a3
    31a0:	02e401a3          	sb	a4,35(s0)
    31a4:	45a1                	li	a1,8
    31a6:	4701                	li	a4,0
    31a8:	40e656b3          	sra	a3,a2,a4
    31ac:	8a85                	andi	a3,a3,1
    31ae:	97b6                	add	a5,a5,a3
    31b0:	0705                	addi	a4,a4,1
    31b2:	0ff7f793          	andi	a5,a5,255
    31b6:	feb719e3          	bne	a4,a1,31a8 <i8080_execute+0x1b94>
    31ba:	02344703          	lbu	a4,35(s0)
    31be:	fff7c793          	not	a5,a5
    31c2:	8b85                	andi	a5,a5,1
    31c4:	078e                	slli	a5,a5,0x3
    31c6:	9b5d                	andi	a4,a4,-9
    31c8:	8fd9                	or	a5,a5,a4
    31ca:	02f401a3          	sb	a5,35(s0)
    31ce:	ac50                	sb	a2,28(s0)
    31d0:	ca2fe06f          	j	1672 <i8080_execute+0x5e>
    31d4:	5010                	lw	a2,32(s0)
    31d6:	02344703          	lbu	a4,35(s0)
    31da:	4681                	li	a3,0
    31dc:	8271                	srli	a2,a2,0x1c
    31de:	8a05                	andi	a2,a2,1
    31e0:	00164613          	xori	a2,a2,1
    31e4:	0ff60793          	addi	a5,a2,255
    31e8:	0ff7c793          	xori	a5,a5,255
    31ec:	167d                	addi	a2,a2,-1
    31ee:	0ff67613          	andi	a2,a2,255
    31f2:	0027d513          	srli	a0,a5,0x2
    31f6:	8911                	andi	a0,a0,4
    31f8:	0f977713          	andi	a4,a4,249
    31fc:	00163593          	seqz	a1,a2
    3200:	0586                	slli	a1,a1,0x1
    3202:	8f49                	or	a4,a4,a0
    3204:	8f4d                	or	a4,a4,a1
    3206:	9b79                	andi	a4,a4,-2
    3208:	00765593          	srli	a1,a2,0x7
    320c:	1007f793          	andi	a5,a5,256
    3210:	8f4d                	or	a4,a4,a1
    3212:	01079593          	slli	a1,a5,0x10
    3216:	02e401a3          	sb	a4,35(s0)
    321a:	85c1                	srai	a1,a1,0x10
    321c:	4701                	li	a4,0
    321e:	4521                	li	a0,8
    3220:	40e657b3          	sra	a5,a2,a4
    3224:	8b85                	andi	a5,a5,1
    3226:	97b6                	add	a5,a5,a3
    3228:	0705                	addi	a4,a4,1
    322a:	0ff7f693          	andi	a3,a5,255
    322e:	fea719e3          	bne	a4,a0,3220 <i8080_execute+0x1c0c>
    3232:	02344703          	lbu	a4,35(s0)
    3236:	fff6c793          	not	a5,a3
    323a:	8b85                	andi	a5,a5,1
    323c:	0e777693          	andi	a3,a4,231
    3240:	078e                	slli	a5,a5,0x3
    3242:	0015b713          	seqz	a4,a1
    3246:	0712                	slli	a4,a4,0x4
    3248:	8fd5                	or	a5,a5,a3
    324a:	8f5d                	or	a4,a4,a5
    324c:	ac50                	sb	a2,28(s0)
    324e:	02e401a3          	sb	a4,35(s0)
    3252:	c20fe06f          	j	1672 <i8080_execute+0x5e>
    3256:	02144783          	lbu	a5,33(s0)
    325a:	02244583          	lbu	a1,34(s0)
    325e:	4018                	lw	a4,0(s0)
    3260:	4808                	lw	a0,16(s0)
    3262:	07a2                	slli	a5,a5,0x8
    3264:	8ddd                	or	a1,a1,a5
    3266:	9702                	jalr	a4
    3268:	5018                	lw	a4,32(s0)
    326a:	2c54                	lbu	a3,28(s0)
    326c:	fff54793          	not	a5,a0
    3270:	8371                	srli	a4,a4,0x1c
    3272:	8b05                	andi	a4,a4,1
    3274:	00174713          	xori	a4,a4,1
    3278:	00d70633          	add	a2,a4,a3
    327c:	0ff7f793          	andi	a5,a5,255
    3280:	963e                	add	a2,a2,a5
    3282:	02344703          	lbu	a4,35(s0)
    3286:	8fb5                	xor	a5,a5,a3
    3288:	8fb1                	xor	a5,a5,a2
    328a:	0027d593          	srli	a1,a5,0x2
    328e:	0ff67613          	andi	a2,a2,255
    3292:	8991                	andi	a1,a1,4
    3294:	0f977713          	andi	a4,a4,249
    3298:	00163693          	seqz	a3,a2
    329c:	0686                	slli	a3,a3,0x1
    329e:	8f4d                	or	a4,a4,a1
    32a0:	8f55                	or	a4,a4,a3
    32a2:	1007f793          	andi	a5,a5,256
    32a6:	00765693          	srli	a3,a2,0x7
    32aa:	9b79                	andi	a4,a4,-2
    32ac:	8f55                	or	a4,a4,a3
    32ae:	01079593          	slli	a1,a5,0x10
    32b2:	02e401a3          	sb	a4,35(s0)
    32b6:	85c1                	srai	a1,a1,0x10
    32b8:	4781                	li	a5,0
    32ba:	4701                	li	a4,0
    32bc:	4521                	li	a0,8
    32be:	40e656b3          	sra	a3,a2,a4
    32c2:	8a85                	andi	a3,a3,1
    32c4:	97b6                	add	a5,a5,a3
    32c6:	0705                	addi	a4,a4,1
    32c8:	0ff7f793          	andi	a5,a5,255
    32cc:	fea719e3          	bne	a4,a0,32be <i8080_execute+0x1caa>
    32d0:	02344683          	lbu	a3,35(s0)
    32d4:	fff7c793          	not	a5,a5
    32d8:	8b85                	andi	a5,a5,1
    32da:	078e                	slli	a5,a5,0x3
    32dc:	0e76f693          	andi	a3,a3,231
    32e0:	0015b713          	seqz	a4,a1
    32e4:	0712                	slli	a4,a4,0x4
    32e6:	8fd5                	or	a5,a5,a3
    32e8:	8f5d                	or	a4,a4,a5
    32ea:	ac50                	sb	a2,28(s0)
    32ec:	02e401a3          	sb	a4,35(s0)
    32f0:	b82fe06f          	j	1672 <i8080_execute+0x5e>
    32f4:	5014                	lw	a3,32(s0)
    32f6:	02244603          	lbu	a2,34(s0)
    32fa:	2c4c                	lbu	a1,28(s0)
    32fc:	82f1                	srli	a3,a3,0x1c
    32fe:	fff64613          	not	a2,a2
    3302:	8a85                	andi	a3,a3,1
    3304:	0ff67613          	andi	a2,a2,255
    3308:	0016c693          	xori	a3,a3,1
    330c:	00d607b3          	add	a5,a2,a3
    3310:	00b60533          	add	a0,a2,a1
    3314:	02344703          	lbu	a4,35(s0)
    3318:	8e2d                	xor	a2,a2,a1
    331a:	97ae                	add	a5,a5,a1
    331c:	8fb1                	xor	a5,a5,a2
    331e:	96aa                	add	a3,a3,a0
    3320:	0ff6f613          	andi	a2,a3,255
    3324:	0027d593          	srli	a1,a5,0x2
    3328:	8991                	andi	a1,a1,4
    332a:	0f977713          	andi	a4,a4,249
    332e:	00163693          	seqz	a3,a2
    3332:	0686                	slli	a3,a3,0x1
    3334:	8f4d                	or	a4,a4,a1
    3336:	8f55                	or	a4,a4,a3
    3338:	1007f793          	andi	a5,a5,256
    333c:	00765693          	srli	a3,a2,0x7
    3340:	9b79                	andi	a4,a4,-2
    3342:	8f55                	or	a4,a4,a3
    3344:	01079593          	slli	a1,a5,0x10
    3348:	02e401a3          	sb	a4,35(s0)
    334c:	85c1                	srai	a1,a1,0x10
    334e:	4781                	li	a5,0
    3350:	4701                	li	a4,0
    3352:	4521                	li	a0,8
    3354:	40e656b3          	sra	a3,a2,a4
    3358:	8a85                	andi	a3,a3,1
    335a:	97b6                	add	a5,a5,a3
    335c:	0705                	addi	a4,a4,1
    335e:	0ff7f793          	andi	a5,a5,255
    3362:	fea719e3          	bne	a4,a0,3354 <i8080_execute+0x1d40>
    3366:	02344683          	lbu	a3,35(s0)
    336a:	fff7c793          	not	a5,a5
    336e:	8b85                	andi	a5,a5,1
    3370:	078e                	slli	a5,a5,0x3
    3372:	0e76f693          	andi	a3,a3,231
    3376:	0015b713          	seqz	a4,a1
    337a:	0712                	slli	a4,a4,0x4
    337c:	8fd5                	or	a5,a5,a3
    337e:	8f5d                	or	a4,a4,a5
    3380:	ac50                	sb	a2,28(s0)
    3382:	02e401a3          	sb	a4,35(s0)
    3386:	aecfe06f          	j	1672 <i8080_execute+0x5e>
    338a:	5014                	lw	a3,32(s0)
    338c:	02144603          	lbu	a2,33(s0)
    3390:	2c4c                	lbu	a1,28(s0)
    3392:	82f1                	srli	a3,a3,0x1c
    3394:	fff64613          	not	a2,a2
    3398:	8a85                	andi	a3,a3,1
    339a:	0ff67613          	andi	a2,a2,255
    339e:	0016c693          	xori	a3,a3,1
    33a2:	00d607b3          	add	a5,a2,a3
    33a6:	00b60533          	add	a0,a2,a1
    33aa:	02344703          	lbu	a4,35(s0)
    33ae:	8e2d                	xor	a2,a2,a1
    33b0:	97ae                	add	a5,a5,a1
    33b2:	8fb1                	xor	a5,a5,a2
    33b4:	96aa                	add	a3,a3,a0
    33b6:	0ff6f613          	andi	a2,a3,255
    33ba:	0027d593          	srli	a1,a5,0x2
    33be:	8991                	andi	a1,a1,4
    33c0:	0f977713          	andi	a4,a4,249
    33c4:	00163693          	seqz	a3,a2
    33c8:	0686                	slli	a3,a3,0x1
    33ca:	8f4d                	or	a4,a4,a1
    33cc:	8f55                	or	a4,a4,a3
    33ce:	1007f793          	andi	a5,a5,256
    33d2:	00765693          	srli	a3,a2,0x7
    33d6:	9b79                	andi	a4,a4,-2
    33d8:	8f55                	or	a4,a4,a3
    33da:	01079593          	slli	a1,a5,0x10
    33de:	02e401a3          	sb	a4,35(s0)
    33e2:	85c1                	srai	a1,a1,0x10
    33e4:	4781                	li	a5,0
    33e6:	4701                	li	a4,0
    33e8:	4521                	li	a0,8
    33ea:	40e656b3          	sra	a3,a2,a4
    33ee:	8a85                	andi	a3,a3,1
    33f0:	97b6                	add	a5,a5,a3
    33f2:	0705                	addi	a4,a4,1
    33f4:	0ff7f793          	andi	a5,a5,255
    33f8:	fea719e3          	bne	a4,a0,33ea <i8080_execute+0x1dd6>
    33fc:	02344683          	lbu	a3,35(s0)
    3400:	fff7c793          	not	a5,a5
    3404:	8b85                	andi	a5,a5,1
    3406:	078e                	slli	a5,a5,0x3
    3408:	0e76f693          	andi	a3,a3,231
    340c:	0015b713          	seqz	a4,a1
    3410:	0712                	slli	a4,a4,0x4
    3412:	8fd5                	or	a5,a5,a3
    3414:	8f5d                	or	a4,a4,a5
    3416:	ac50                	sb	a2,28(s0)
    3418:	02e401a3          	sb	a4,35(s0)
    341c:	a56fe06f          	j	1672 <i8080_execute+0x5e>
    3420:	5014                	lw	a3,32(s0)
    3422:	02044603          	lbu	a2,32(s0)
    3426:	2c4c                	lbu	a1,28(s0)
    3428:	82f1                	srli	a3,a3,0x1c
    342a:	fff64613          	not	a2,a2
    342e:	8a85                	andi	a3,a3,1
    3430:	0ff67613          	andi	a2,a2,255
    3434:	0016c693          	xori	a3,a3,1
    3438:	00d607b3          	add	a5,a2,a3
    343c:	00b60533          	add	a0,a2,a1
    3440:	02344703          	lbu	a4,35(s0)
    3444:	8e2d                	xor	a2,a2,a1
    3446:	97ae                	add	a5,a5,a1
    3448:	8fb1                	xor	a5,a5,a2
    344a:	96aa                	add	a3,a3,a0
    344c:	0ff6f613          	andi	a2,a3,255
    3450:	0027d593          	srli	a1,a5,0x2
    3454:	8991                	andi	a1,a1,4
    3456:	0f977713          	andi	a4,a4,249
    345a:	00163693          	seqz	a3,a2
    345e:	0686                	slli	a3,a3,0x1
    3460:	8f4d                	or	a4,a4,a1
    3462:	8f55                	or	a4,a4,a3
    3464:	1007f793          	andi	a5,a5,256
    3468:	00765693          	srli	a3,a2,0x7
    346c:	9b79                	andi	a4,a4,-2
    346e:	8f55                	or	a4,a4,a3
    3470:	01079593          	slli	a1,a5,0x10
    3474:	02e401a3          	sb	a4,35(s0)
    3478:	85c1                	srai	a1,a1,0x10
    347a:	4781                	li	a5,0
    347c:	4701                	li	a4,0
    347e:	4521                	li	a0,8
    3480:	40e656b3          	sra	a3,a2,a4
    3484:	8a85                	andi	a3,a3,1
    3486:	97b6                	add	a5,a5,a3
    3488:	0705                	addi	a4,a4,1
    348a:	0ff7f793          	andi	a5,a5,255
    348e:	fea719e3          	bne	a4,a0,3480 <i8080_execute+0x1e6c>
    3492:	02344683          	lbu	a3,35(s0)
    3496:	fff7c793          	not	a5,a5
    349a:	8b85                	andi	a5,a5,1
    349c:	078e                	slli	a5,a5,0x3
    349e:	0e76f693          	andi	a3,a3,231
    34a2:	0015b713          	seqz	a4,a1
    34a6:	0712                	slli	a4,a4,0x4
    34a8:	8fd5                	or	a5,a5,a3
    34aa:	8f5d                	or	a4,a4,a5
    34ac:	ac50                	sb	a2,28(s0)
    34ae:	02e401a3          	sb	a4,35(s0)
    34b2:	9c0fe06f          	j	1672 <i8080_execute+0x5e>
    34b6:	5014                	lw	a3,32(s0)
    34b8:	3c70                	lbu	a2,31(s0)
    34ba:	2c4c                	lbu	a1,28(s0)
    34bc:	82f1                	srli	a3,a3,0x1c
    34be:	fff64613          	not	a2,a2
    34c2:	8a85                	andi	a3,a3,1
    34c4:	0ff67613          	andi	a2,a2,255
    34c8:	0016c693          	xori	a3,a3,1
    34cc:	00d607b3          	add	a5,a2,a3
    34d0:	00b60533          	add	a0,a2,a1
    34d4:	02344703          	lbu	a4,35(s0)
    34d8:	8e2d                	xor	a2,a2,a1
    34da:	97ae                	add	a5,a5,a1
    34dc:	8fb1                	xor	a5,a5,a2
    34de:	96aa                	add	a3,a3,a0
    34e0:	0ff6f613          	andi	a2,a3,255
    34e4:	0027d593          	srli	a1,a5,0x2
    34e8:	8991                	andi	a1,a1,4
    34ea:	0f977713          	andi	a4,a4,249
    34ee:	00163693          	seqz	a3,a2
    34f2:	0686                	slli	a3,a3,0x1
    34f4:	8f4d                	or	a4,a4,a1
    34f6:	8f55                	or	a4,a4,a3
    34f8:	1007f793          	andi	a5,a5,256
    34fc:	00765693          	srli	a3,a2,0x7
    3500:	9b79                	andi	a4,a4,-2
    3502:	8f55                	or	a4,a4,a3
    3504:	01079593          	slli	a1,a5,0x10
    3508:	02e401a3          	sb	a4,35(s0)
    350c:	85c1                	srai	a1,a1,0x10
    350e:	4781                	li	a5,0
    3510:	4701                	li	a4,0
    3512:	4521                	li	a0,8
    3514:	40e656b3          	sra	a3,a2,a4
    3518:	8a85                	andi	a3,a3,1
    351a:	97b6                	add	a5,a5,a3
    351c:	0705                	addi	a4,a4,1
    351e:	0ff7f793          	andi	a5,a5,255
    3522:	fea719e3          	bne	a4,a0,3514 <i8080_execute+0x1f00>
    3526:	02344683          	lbu	a3,35(s0)
    352a:	fff7c793          	not	a5,a5
    352e:	8b85                	andi	a5,a5,1
    3530:	078e                	slli	a5,a5,0x3
    3532:	0e76f693          	andi	a3,a3,231
    3536:	0015b713          	seqz	a4,a1
    353a:	0712                	slli	a4,a4,0x4
    353c:	8fd5                	or	a5,a5,a3
    353e:	8f5d                	or	a4,a4,a5
    3540:	ac50                	sb	a2,28(s0)
    3542:	02e401a3          	sb	a4,35(s0)
    3546:	92cfe06f          	j	1672 <i8080_execute+0x5e>
    354a:	5014                	lw	a3,32(s0)
    354c:	2c70                	lbu	a2,30(s0)
    354e:	2c4c                	lbu	a1,28(s0)
    3550:	82f1                	srli	a3,a3,0x1c
    3552:	fff64613          	not	a2,a2
    3556:	8a85                	andi	a3,a3,1
    3558:	0ff67613          	andi	a2,a2,255
    355c:	0016c693          	xori	a3,a3,1
    3560:	00d607b3          	add	a5,a2,a3
    3564:	00b60533          	add	a0,a2,a1
    3568:	02344703          	lbu	a4,35(s0)
    356c:	8e2d                	xor	a2,a2,a1
    356e:	97ae                	add	a5,a5,a1
    3570:	8fb1                	xor	a5,a5,a2
    3572:	96aa                	add	a3,a3,a0
    3574:	0ff6f613          	andi	a2,a3,255
    3578:	0027d593          	srli	a1,a5,0x2
    357c:	8991                	andi	a1,a1,4
    357e:	0f977713          	andi	a4,a4,249
    3582:	00163693          	seqz	a3,a2
    3586:	0686                	slli	a3,a3,0x1
    3588:	8f4d                	or	a4,a4,a1
    358a:	8f55                	or	a4,a4,a3
    358c:	1007f793          	andi	a5,a5,256
    3590:	00765693          	srli	a3,a2,0x7
    3594:	9b79                	andi	a4,a4,-2
    3596:	8f55                	or	a4,a4,a3
    3598:	01079593          	slli	a1,a5,0x10
    359c:	02e401a3          	sb	a4,35(s0)
    35a0:	85c1                	srai	a1,a1,0x10
    35a2:	4781                	li	a5,0
    35a4:	4701                	li	a4,0
    35a6:	4521                	li	a0,8
    35a8:	40e656b3          	sra	a3,a2,a4
    35ac:	8a85                	andi	a3,a3,1
    35ae:	97b6                	add	a5,a5,a3
    35b0:	0705                	addi	a4,a4,1
    35b2:	0ff7f793          	andi	a5,a5,255
    35b6:	fea719e3          	bne	a4,a0,35a8 <i8080_execute+0x1f94>
    35ba:	02344683          	lbu	a3,35(s0)
    35be:	fff7c793          	not	a5,a5
    35c2:	8b85                	andi	a5,a5,1
    35c4:	078e                	slli	a5,a5,0x3
    35c6:	0e76f693          	andi	a3,a3,231
    35ca:	0015b713          	seqz	a4,a1
    35ce:	0712                	slli	a4,a4,0x4
    35d0:	8fd5                	or	a5,a5,a3
    35d2:	8f5d                	or	a4,a4,a5
    35d4:	ac50                	sb	a2,28(s0)
    35d6:	02e401a3          	sb	a4,35(s0)
    35da:	898fe06f          	j	1672 <i8080_execute+0x5e>
    35de:	5014                	lw	a3,32(s0)
    35e0:	3c50                	lbu	a2,29(s0)
    35e2:	2c4c                	lbu	a1,28(s0)
    35e4:	82f1                	srli	a3,a3,0x1c
    35e6:	fff64613          	not	a2,a2
    35ea:	8a85                	andi	a3,a3,1
    35ec:	0ff67613          	andi	a2,a2,255
    35f0:	0016c693          	xori	a3,a3,1
    35f4:	00d607b3          	add	a5,a2,a3
    35f8:	00b60533          	add	a0,a2,a1
    35fc:	02344703          	lbu	a4,35(s0)
    3600:	8e2d                	xor	a2,a2,a1
    3602:	97ae                	add	a5,a5,a1
    3604:	8fb1                	xor	a5,a5,a2
    3606:	96aa                	add	a3,a3,a0
    3608:	0ff6f613          	andi	a2,a3,255
    360c:	0027d593          	srli	a1,a5,0x2
    3610:	8991                	andi	a1,a1,4
    3612:	0f977713          	andi	a4,a4,249
    3616:	00163693          	seqz	a3,a2
    361a:	0686                	slli	a3,a3,0x1
    361c:	8f4d                	or	a4,a4,a1
    361e:	8f55                	or	a4,a4,a3
    3620:	1007f793          	andi	a5,a5,256
    3624:	00765693          	srli	a3,a2,0x7
    3628:	9b79                	andi	a4,a4,-2
    362a:	8f55                	or	a4,a4,a3
    362c:	01079593          	slli	a1,a5,0x10
    3630:	02e401a3          	sb	a4,35(s0)
    3634:	85c1                	srai	a1,a1,0x10
    3636:	4781                	li	a5,0
    3638:	4701                	li	a4,0
    363a:	4521                	li	a0,8
    363c:	40e656b3          	sra	a3,a2,a4
    3640:	8a85                	andi	a3,a3,1
    3642:	97b6                	add	a5,a5,a3
    3644:	0705                	addi	a4,a4,1
    3646:	0ff7f793          	andi	a5,a5,255
    364a:	fea719e3          	bne	a4,a0,363c <i8080_execute+0x2028>
    364e:	02344683          	lbu	a3,35(s0)
    3652:	fff7c793          	not	a5,a5
    3656:	8b85                	andi	a5,a5,1
    3658:	078e                	slli	a5,a5,0x3
    365a:	0e76f693          	andi	a3,a3,231
    365e:	0015b713          	seqz	a4,a1
    3662:	0712                	slli	a4,a4,0x4
    3664:	8fd5                	or	a5,a5,a3
    3666:	8f5d                	or	a4,a4,a5
    3668:	ac50                	sb	a2,28(s0)
    366a:	02e401a3          	sb	a4,35(s0)
    366e:	804fe06f          	j	1672 <i8080_execute+0x5e>
    3672:	02344783          	lbu	a5,35(s0)
    3676:	00040e23          	sb	zero,28(s0)
    367a:	9b81                	andi	a5,a5,-32
    367c:	00e7e793          	ori	a5,a5,14
    3680:	02f401a3          	sb	a5,35(s0)
    3684:	feffd06f          	j	1672 <i8080_execute+0x5e>
    3688:	02144783          	lbu	a5,33(s0)
    368c:	02244583          	lbu	a1,34(s0)
    3690:	4018                	lw	a4,0(s0)
    3692:	4808                	lw	a0,16(s0)
    3694:	07a2                	slli	a5,a5,0x8
    3696:	8ddd                	or	a1,a1,a5
    3698:	9702                	jalr	a4
    369a:	2c54                	lbu	a3,28(s0)
    369c:	fff54793          	not	a5,a0
    36a0:	0ff7f793          	andi	a5,a5,255
    36a4:	00168593          	addi	a1,a3,1
    36a8:	95be                	add	a1,a1,a5
    36aa:	02344703          	lbu	a4,35(s0)
    36ae:	8fb5                	xor	a5,a5,a3
    36b0:	8fad                	xor	a5,a5,a1
    36b2:	0027d613          	srli	a2,a5,0x2
    36b6:	0ff5f593          	andi	a1,a1,255
    36ba:	8a11                	andi	a2,a2,4
    36bc:	0f977713          	andi	a4,a4,249
    36c0:	0015b693          	seqz	a3,a1
    36c4:	0686                	slli	a3,a3,0x1
    36c6:	8f51                	or	a4,a4,a2
    36c8:	8f55                	or	a4,a4,a3
    36ca:	1007f793          	andi	a5,a5,256
    36ce:	0075d693          	srli	a3,a1,0x7
    36d2:	9b79                	andi	a4,a4,-2
    36d4:	8f55                	or	a4,a4,a3
    36d6:	01079613          	slli	a2,a5,0x10
    36da:	02e401a3          	sb	a4,35(s0)
    36de:	8641                	srai	a2,a2,0x10
    36e0:	4781                	li	a5,0
    36e2:	4701                	li	a4,0
    36e4:	4521                	li	a0,8
    36e6:	40e5d6b3          	sra	a3,a1,a4
    36ea:	8a85                	andi	a3,a3,1
    36ec:	97b6                	add	a5,a5,a3
    36ee:	0705                	addi	a4,a4,1
    36f0:	0ff7f793          	andi	a5,a5,255
    36f4:	fea719e3          	bne	a4,a0,36e6 <i8080_execute+0x20d2>
    36f8:	02344683          	lbu	a3,35(s0)
    36fc:	fff7c793          	not	a5,a5
    3700:	8b85                	andi	a5,a5,1
    3702:	078e                	slli	a5,a5,0x3
    3704:	0e76f693          	andi	a3,a3,231
    3708:	00163713          	seqz	a4,a2
    370c:	0712                	slli	a4,a4,0x4
    370e:	8fd5                	or	a5,a5,a3
    3710:	8f5d                	or	a4,a4,a5
    3712:	ac4c                	sb	a1,28(s0)
    3714:	02e401a3          	sb	a4,35(s0)
    3718:	f5bfd06f          	j	1672 <i8080_execute+0x5e>
    371c:	02244783          	lbu	a5,34(s0)
    3720:	2c54                	lbu	a3,28(s0)
    3722:	02344703          	lbu	a4,35(s0)
    3726:	fff7c793          	not	a5,a5
    372a:	0ff7f793          	andi	a5,a5,255
    372e:	00168593          	addi	a1,a3,1
    3732:	95be                	add	a1,a1,a5
    3734:	8fb5                	xor	a5,a5,a3
    3736:	8fad                	xor	a5,a5,a1
    3738:	0027d613          	srli	a2,a5,0x2
    373c:	0ff5f593          	andi	a1,a1,255
    3740:	8a11                	andi	a2,a2,4
    3742:	0f977713          	andi	a4,a4,249
    3746:	0015b693          	seqz	a3,a1
    374a:	0686                	slli	a3,a3,0x1
    374c:	8f51                	or	a4,a4,a2
    374e:	8f55                	or	a4,a4,a3
    3750:	1007f793          	andi	a5,a5,256
    3754:	0075d693          	srli	a3,a1,0x7
    3758:	9b79                	andi	a4,a4,-2
    375a:	8f55                	or	a4,a4,a3
    375c:	01079613          	slli	a2,a5,0x10
    3760:	02e401a3          	sb	a4,35(s0)
    3764:	8641                	srai	a2,a2,0x10
    3766:	4781                	li	a5,0
    3768:	4701                	li	a4,0
    376a:	4521                	li	a0,8
    376c:	40e5d6b3          	sra	a3,a1,a4
    3770:	8a85                	andi	a3,a3,1
    3772:	97b6                	add	a5,a5,a3
    3774:	0705                	addi	a4,a4,1
    3776:	0ff7f793          	andi	a5,a5,255
    377a:	fea719e3          	bne	a4,a0,376c <i8080_execute+0x2158>
    377e:	02344683          	lbu	a3,35(s0)
    3782:	fff7c793          	not	a5,a5
    3786:	8b85                	andi	a5,a5,1
    3788:	078e                	slli	a5,a5,0x3
    378a:	0e76f693          	andi	a3,a3,231
    378e:	00163713          	seqz	a4,a2
    3792:	0712                	slli	a4,a4,0x4
    3794:	8fd5                	or	a5,a5,a3
    3796:	8f5d                	or	a4,a4,a5
    3798:	ac4c                	sb	a1,28(s0)
    379a:	02e401a3          	sb	a4,35(s0)
    379e:	ed5fd06f          	j	1672 <i8080_execute+0x5e>
    37a2:	02144783          	lbu	a5,33(s0)
    37a6:	2c54                	lbu	a3,28(s0)
    37a8:	02344703          	lbu	a4,35(s0)
    37ac:	fff7c793          	not	a5,a5
    37b0:	0ff7f793          	andi	a5,a5,255
    37b4:	00168593          	addi	a1,a3,1
    37b8:	95be                	add	a1,a1,a5
    37ba:	8fb5                	xor	a5,a5,a3
    37bc:	8fad                	xor	a5,a5,a1
    37be:	0027d613          	srli	a2,a5,0x2
    37c2:	0ff5f593          	andi	a1,a1,255
    37c6:	8a11                	andi	a2,a2,4
    37c8:	0f977713          	andi	a4,a4,249
    37cc:	0015b693          	seqz	a3,a1
    37d0:	0686                	slli	a3,a3,0x1
    37d2:	8f51                	or	a4,a4,a2
    37d4:	8f55                	or	a4,a4,a3
    37d6:	1007f793          	andi	a5,a5,256
    37da:	0075d693          	srli	a3,a1,0x7
    37de:	9b79                	andi	a4,a4,-2
    37e0:	8f55                	or	a4,a4,a3
    37e2:	01079613          	slli	a2,a5,0x10
    37e6:	02e401a3          	sb	a4,35(s0)
    37ea:	8641                	srai	a2,a2,0x10
    37ec:	4781                	li	a5,0
    37ee:	4701                	li	a4,0
    37f0:	4521                	li	a0,8
    37f2:	40e5d6b3          	sra	a3,a1,a4
    37f6:	8a85                	andi	a3,a3,1
    37f8:	97b6                	add	a5,a5,a3
    37fa:	0705                	addi	a4,a4,1
    37fc:	0ff7f793          	andi	a5,a5,255
    3800:	fea719e3          	bne	a4,a0,37f2 <i8080_execute+0x21de>
    3804:	02344683          	lbu	a3,35(s0)
    3808:	fff7c793          	not	a5,a5
    380c:	8b85                	andi	a5,a5,1
    380e:	078e                	slli	a5,a5,0x3
    3810:	0e76f693          	andi	a3,a3,231
    3814:	00163713          	seqz	a4,a2
    3818:	0712                	slli	a4,a4,0x4
    381a:	8fd5                	or	a5,a5,a3
    381c:	8f5d                	or	a4,a4,a5
    381e:	ac4c                	sb	a1,28(s0)
    3820:	02e401a3          	sb	a4,35(s0)
    3824:	e4ffd06f          	j	1672 <i8080_execute+0x5e>
    3828:	02044783          	lbu	a5,32(s0)
    382c:	2c54                	lbu	a3,28(s0)
    382e:	02344703          	lbu	a4,35(s0)
    3832:	fff7c793          	not	a5,a5
    3836:	0ff7f793          	andi	a5,a5,255
    383a:	00168593          	addi	a1,a3,1
    383e:	95be                	add	a1,a1,a5
    3840:	8fb5                	xor	a5,a5,a3
    3842:	8fad                	xor	a5,a5,a1
    3844:	0027d613          	srli	a2,a5,0x2
    3848:	0ff5f593          	andi	a1,a1,255
    384c:	8a11                	andi	a2,a2,4
    384e:	0f977713          	andi	a4,a4,249
    3852:	0015b693          	seqz	a3,a1
    3856:	0686                	slli	a3,a3,0x1
    3858:	8f51                	or	a4,a4,a2
    385a:	8f55                	or	a4,a4,a3
    385c:	1007f793          	andi	a5,a5,256
    3860:	0075d693          	srli	a3,a1,0x7
    3864:	9b79                	andi	a4,a4,-2
    3866:	8f55                	or	a4,a4,a3
    3868:	01079613          	slli	a2,a5,0x10
    386c:	02e401a3          	sb	a4,35(s0)
    3870:	8641                	srai	a2,a2,0x10
    3872:	4781                	li	a5,0
    3874:	4701                	li	a4,0
    3876:	4521                	li	a0,8
    3878:	40e5d6b3          	sra	a3,a1,a4
    387c:	8a85                	andi	a3,a3,1
    387e:	97b6                	add	a5,a5,a3
    3880:	0705                	addi	a4,a4,1
    3882:	0ff7f793          	andi	a5,a5,255
    3886:	fea719e3          	bne	a4,a0,3878 <i8080_execute+0x2264>
    388a:	02344683          	lbu	a3,35(s0)
    388e:	fff7c793          	not	a5,a5
    3892:	8b85                	andi	a5,a5,1
    3894:	078e                	slli	a5,a5,0x3
    3896:	0e76f693          	andi	a3,a3,231
    389a:	00163713          	seqz	a4,a2
    389e:	0712                	slli	a4,a4,0x4
    38a0:	8fd5                	or	a5,a5,a3
    38a2:	8f5d                	or	a4,a4,a5
    38a4:	ac4c                	sb	a1,28(s0)
    38a6:	02e401a3          	sb	a4,35(s0)
    38aa:	dc9fd06f          	j	1672 <i8080_execute+0x5e>
    38ae:	3c7c                	lbu	a5,31(s0)
    38b0:	2c54                	lbu	a3,28(s0)
    38b2:	02344703          	lbu	a4,35(s0)
    38b6:	fff7c793          	not	a5,a5
    38ba:	0ff7f793          	andi	a5,a5,255
    38be:	00168593          	addi	a1,a3,1
    38c2:	95be                	add	a1,a1,a5
    38c4:	8fb5                	xor	a5,a5,a3
    38c6:	8fad                	xor	a5,a5,a1
    38c8:	0027d613          	srli	a2,a5,0x2
    38cc:	0ff5f593          	andi	a1,a1,255
    38d0:	8a11                	andi	a2,a2,4
    38d2:	0f977713          	andi	a4,a4,249
    38d6:	0015b693          	seqz	a3,a1
    38da:	0686                	slli	a3,a3,0x1
    38dc:	8f51                	or	a4,a4,a2
    38de:	8f55                	or	a4,a4,a3
    38e0:	1007f793          	andi	a5,a5,256
    38e4:	0075d693          	srli	a3,a1,0x7
    38e8:	9b79                	andi	a4,a4,-2
    38ea:	8f55                	or	a4,a4,a3
    38ec:	01079613          	slli	a2,a5,0x10
    38f0:	02e401a3          	sb	a4,35(s0)
    38f4:	8641                	srai	a2,a2,0x10
    38f6:	4781                	li	a5,0
    38f8:	4701                	li	a4,0
    38fa:	4521                	li	a0,8
    38fc:	40e5d6b3          	sra	a3,a1,a4
    3900:	8a85                	andi	a3,a3,1
    3902:	97b6                	add	a5,a5,a3
    3904:	0705                	addi	a4,a4,1
    3906:	0ff7f793          	andi	a5,a5,255
    390a:	fea719e3          	bne	a4,a0,38fc <i8080_execute+0x22e8>
    390e:	02344683          	lbu	a3,35(s0)
    3912:	fff7c793          	not	a5,a5
    3916:	8b85                	andi	a5,a5,1
    3918:	078e                	slli	a5,a5,0x3
    391a:	0e76f693          	andi	a3,a3,231
    391e:	00163713          	seqz	a4,a2
    3922:	0712                	slli	a4,a4,0x4
    3924:	8fd5                	or	a5,a5,a3
    3926:	8f5d                	or	a4,a4,a5
    3928:	ac4c                	sb	a1,28(s0)
    392a:	02e401a3          	sb	a4,35(s0)
    392e:	d45fd06f          	j	1672 <i8080_execute+0x5e>
    3932:	2c7c                	lbu	a5,30(s0)
    3934:	2c54                	lbu	a3,28(s0)
    3936:	02344703          	lbu	a4,35(s0)
    393a:	fff7c793          	not	a5,a5
    393e:	0ff7f793          	andi	a5,a5,255
    3942:	00168593          	addi	a1,a3,1
    3946:	95be                	add	a1,a1,a5
    3948:	8fb5                	xor	a5,a5,a3
    394a:	8fad                	xor	a5,a5,a1
    394c:	0027d613          	srli	a2,a5,0x2
    3950:	0ff5f593          	andi	a1,a1,255
    3954:	8a11                	andi	a2,a2,4
    3956:	0f977713          	andi	a4,a4,249
    395a:	0015b693          	seqz	a3,a1
    395e:	0686                	slli	a3,a3,0x1
    3960:	8f51                	or	a4,a4,a2
    3962:	8f55                	or	a4,a4,a3
    3964:	1007f793          	andi	a5,a5,256
    3968:	0075d693          	srli	a3,a1,0x7
    396c:	9b79                	andi	a4,a4,-2
    396e:	8f55                	or	a4,a4,a3
    3970:	01079613          	slli	a2,a5,0x10
    3974:	02e401a3          	sb	a4,35(s0)
    3978:	8641                	srai	a2,a2,0x10
    397a:	4781                	li	a5,0
    397c:	4701                	li	a4,0
    397e:	4521                	li	a0,8
    3980:	40e5d6b3          	sra	a3,a1,a4
    3984:	8a85                	andi	a3,a3,1
    3986:	97b6                	add	a5,a5,a3
    3988:	0705                	addi	a4,a4,1
    398a:	0ff7f793          	andi	a5,a5,255
    398e:	fea719e3          	bne	a4,a0,3980 <i8080_execute+0x236c>
    3992:	02344683          	lbu	a3,35(s0)
    3996:	fff7c793          	not	a5,a5
    399a:	8b85                	andi	a5,a5,1
    399c:	078e                	slli	a5,a5,0x3
    399e:	0e76f693          	andi	a3,a3,231
    39a2:	00163713          	seqz	a4,a2
    39a6:	0712                	slli	a4,a4,0x4
    39a8:	8fd5                	or	a5,a5,a3
    39aa:	8f5d                	or	a4,a4,a5
    39ac:	ac4c                	sb	a1,28(s0)
    39ae:	02e401a3          	sb	a4,35(s0)
    39b2:	cc1fd06f          	j	1672 <i8080_execute+0x5e>
    39b6:	3c5c                	lbu	a5,29(s0)
    39b8:	2c54                	lbu	a3,28(s0)
    39ba:	02344703          	lbu	a4,35(s0)
    39be:	fff7c793          	not	a5,a5
    39c2:	0ff7f793          	andi	a5,a5,255
    39c6:	00168593          	addi	a1,a3,1
    39ca:	95be                	add	a1,a1,a5
    39cc:	8fb5                	xor	a5,a5,a3
    39ce:	8fad                	xor	a5,a5,a1
    39d0:	0027d613          	srli	a2,a5,0x2
    39d4:	0ff5f593          	andi	a1,a1,255
    39d8:	8a11                	andi	a2,a2,4
    39da:	0f977713          	andi	a4,a4,249
    39de:	0015b693          	seqz	a3,a1
    39e2:	0686                	slli	a3,a3,0x1
    39e4:	8f51                	or	a4,a4,a2
    39e6:	8f55                	or	a4,a4,a3
    39e8:	1007f793          	andi	a5,a5,256
    39ec:	0075d693          	srli	a3,a1,0x7
    39f0:	9b79                	andi	a4,a4,-2
    39f2:	8f55                	or	a4,a4,a3
    39f4:	01079613          	slli	a2,a5,0x10
    39f8:	02e401a3          	sb	a4,35(s0)
    39fc:	8641                	srai	a2,a2,0x10
    39fe:	4781                	li	a5,0
    3a00:	4701                	li	a4,0
    3a02:	4521                	li	a0,8
    3a04:	40e5d6b3          	sra	a3,a1,a4
    3a08:	8a85                	andi	a3,a3,1
    3a0a:	97b6                	add	a5,a5,a3
    3a0c:	0705                	addi	a4,a4,1
    3a0e:	0ff7f793          	andi	a5,a5,255
    3a12:	fea719e3          	bne	a4,a0,3a04 <i8080_execute+0x23f0>
    3a16:	02344683          	lbu	a3,35(s0)
    3a1a:	fff7c793          	not	a5,a5
    3a1e:	8b85                	andi	a5,a5,1
    3a20:	078e                	slli	a5,a5,0x3
    3a22:	0e76f693          	andi	a3,a3,231
    3a26:	00163713          	seqz	a4,a2
    3a2a:	0712                	slli	a4,a4,0x4
    3a2c:	8fd5                	or	a5,a5,a3
    3a2e:	8f5d                	or	a4,a4,a5
    3a30:	ac4c                	sb	a1,28(s0)
    3a32:	02e401a3          	sb	a4,35(s0)
    3a36:	c3dfd06f          	j	1672 <i8080_execute+0x5e>
    3a3a:	5010                	lw	a2,32(s0)
    3a3c:	2c58                	lbu	a4,28(s0)
    3a3e:	02344783          	lbu	a5,35(s0)
    3a42:	8271                	srli	a2,a2,0x1c
    3a44:	0706                	slli	a4,a4,0x1
    3a46:	8a05                	andi	a2,a2,1
    3a48:	963a                	add	a2,a2,a4
    3a4a:	00465693          	srli	a3,a2,0x4
    3a4e:	8ac1                	andi	a3,a3,16
    3a50:	00265713          	srli	a4,a2,0x2
    3a54:	0eb7f793          	andi	a5,a5,235
    3a58:	0ff67613          	andi	a2,a2,255
    3a5c:	8b11                	andi	a4,a4,4
    3a5e:	8fd5                	or	a5,a5,a3
    3a60:	8fd9                	or	a5,a5,a4
    3a62:	00163713          	seqz	a4,a2
    3a66:	0706                	slli	a4,a4,0x1
    3a68:	0fc7f793          	andi	a5,a5,252
    3a6c:	8fd9                	or	a5,a5,a4
    3a6e:	00765693          	srli	a3,a2,0x7
    3a72:	8fd5                	or	a5,a5,a3
    3a74:	02f401a3          	sb	a5,35(s0)
    3a78:	4701                	li	a4,0
    3a7a:	4781                	li	a5,0
    3a7c:	45a1                	li	a1,8
    3a7e:	40e656b3          	sra	a3,a2,a4
    3a82:	8a85                	andi	a3,a3,1
    3a84:	97b6                	add	a5,a5,a3
    3a86:	0705                	addi	a4,a4,1
    3a88:	0ff7f793          	andi	a5,a5,255
    3a8c:	feb719e3          	bne	a4,a1,3a7e <i8080_execute+0x246a>
    3a90:	02344703          	lbu	a4,35(s0)
    3a94:	fff7c793          	not	a5,a5
    3a98:	8b85                	andi	a5,a5,1
    3a9a:	078e                	slli	a5,a5,0x3
    3a9c:	9b5d                	andi	a4,a4,-9
    3a9e:	8fd9                	or	a5,a5,a4
    3aa0:	02f401a3          	sb	a5,35(s0)
    3aa4:	ac50                	sb	a2,28(s0)
    3aa6:	bcdfd06f          	j	1672 <i8080_execute+0x5e>
    3aaa:	02144783          	lbu	a5,33(s0)
    3aae:	02244583          	lbu	a1,34(s0)
    3ab2:	4018                	lw	a4,0(s0)
    3ab4:	4808                	lw	a0,16(s0)
    3ab6:	07a2                	slli	a5,a5,0x8
    3ab8:	8ddd                	or	a1,a1,a5
    3aba:	9702                	jalr	a4
    3abc:	5010                	lw	a2,32(s0)
    3abe:	2c5c                	lbu	a5,28(s0)
    3ac0:	02344703          	lbu	a4,35(s0)
    3ac4:	8271                	srli	a2,a2,0x1c
    3ac6:	8a05                	andi	a2,a2,1
    3ac8:	963e                	add	a2,a2,a5
    3aca:	8fa9                	xor	a5,a5,a0
    3acc:	962a                	add	a2,a2,a0
    3ace:	0ff7f793          	andi	a5,a5,255
    3ad2:	8fb1                	xor	a5,a5,a2
    3ad4:	07c2                	slli	a5,a5,0x10
    3ad6:	83c1                	srli	a5,a5,0x10
    3ad8:	0047d693          	srli	a3,a5,0x4
    3adc:	8ac1                	andi	a3,a3,16
    3ade:	0eb77713          	andi	a4,a4,235
    3ae2:	8389                	srli	a5,a5,0x2
    3ae4:	8f55                	or	a4,a4,a3
    3ae6:	0ff67613          	andi	a2,a2,255
    3aea:	8b91                	andi	a5,a5,4
    3aec:	8fd9                	or	a5,a5,a4
    3aee:	00163713          	seqz	a4,a2
    3af2:	0706                	slli	a4,a4,0x1
    3af4:	0fc7f793          	andi	a5,a5,252
    3af8:	8fd9                	or	a5,a5,a4
    3afa:	00765693          	srli	a3,a2,0x7
    3afe:	8fd5                	or	a5,a5,a3
    3b00:	02f401a3          	sb	a5,35(s0)
    3b04:	4701                	li	a4,0
    3b06:	4781                	li	a5,0
    3b08:	45a1                	li	a1,8
    3b0a:	40e656b3          	sra	a3,a2,a4
    3b0e:	8a85                	andi	a3,a3,1
    3b10:	97b6                	add	a5,a5,a3
    3b12:	0705                	addi	a4,a4,1
    3b14:	0ff7f793          	andi	a5,a5,255
    3b18:	feb719e3          	bne	a4,a1,3b0a <i8080_execute+0x24f6>
    3b1c:	02344703          	lbu	a4,35(s0)
    3b20:	fff7c793          	not	a5,a5
    3b24:	8b85                	andi	a5,a5,1
    3b26:	078e                	slli	a5,a5,0x3
    3b28:	9b5d                	andi	a4,a4,-9
    3b2a:	8fd9                	or	a5,a5,a4
    3b2c:	02f401a3          	sb	a5,35(s0)
    3b30:	ac50                	sb	a2,28(s0)
    3b32:	b41fd06f          	j	1672 <i8080_execute+0x5e>
    3b36:	5010                	lw	a2,32(s0)
    3b38:	2c54                	lbu	a3,28(s0)
    3b3a:	02244703          	lbu	a4,34(s0)
    3b3e:	8271                	srli	a2,a2,0x1c
    3b40:	8a05                	andi	a2,a2,1
    3b42:	00d707b3          	add	a5,a4,a3
    3b46:	963e                	add	a2,a2,a5
    3b48:	8f35                	xor	a4,a4,a3
    3b4a:	02344783          	lbu	a5,35(s0)
    3b4e:	8f31                	xor	a4,a4,a2
    3b50:	00475693          	srli	a3,a4,0x4
    3b54:	8ac1                	andi	a3,a3,16
    3b56:	0eb7f793          	andi	a5,a5,235
    3b5a:	8309                	srli	a4,a4,0x2
    3b5c:	0ff67613          	andi	a2,a2,255
    3b60:	8b11                	andi	a4,a4,4
    3b62:	8fd5                	or	a5,a5,a3
    3b64:	8fd9                	or	a5,a5,a4
    3b66:	00163713          	seqz	a4,a2
    3b6a:	0706                	slli	a4,a4,0x1
    3b6c:	0fc7f793          	andi	a5,a5,252
    3b70:	8fd9                	or	a5,a5,a4
    3b72:	00765693          	srli	a3,a2,0x7
    3b76:	8fd5                	or	a5,a5,a3
    3b78:	02f401a3          	sb	a5,35(s0)
    3b7c:	4701                	li	a4,0
    3b7e:	4781                	li	a5,0
    3b80:	45a1                	li	a1,8
    3b82:	40e656b3          	sra	a3,a2,a4
    3b86:	8a85                	andi	a3,a3,1
    3b88:	97b6                	add	a5,a5,a3
    3b8a:	0705                	addi	a4,a4,1
    3b8c:	0ff7f793          	andi	a5,a5,255
    3b90:	feb719e3          	bne	a4,a1,3b82 <i8080_execute+0x256e>
    3b94:	02344703          	lbu	a4,35(s0)
    3b98:	fff7c793          	not	a5,a5
    3b9c:	8b85                	andi	a5,a5,1
    3b9e:	078e                	slli	a5,a5,0x3
    3ba0:	9b5d                	andi	a4,a4,-9
    3ba2:	8fd9                	or	a5,a5,a4
    3ba4:	02f401a3          	sb	a5,35(s0)
    3ba8:	ac50                	sb	a2,28(s0)
    3baa:	ac9fd06f          	j	1672 <i8080_execute+0x5e>
    3bae:	5010                	lw	a2,32(s0)
    3bb0:	2c54                	lbu	a3,28(s0)
    3bb2:	02144703          	lbu	a4,33(s0)
    3bb6:	8271                	srli	a2,a2,0x1c
    3bb8:	8a05                	andi	a2,a2,1
    3bba:	00d707b3          	add	a5,a4,a3
    3bbe:	963e                	add	a2,a2,a5
    3bc0:	8f35                	xor	a4,a4,a3
    3bc2:	02344783          	lbu	a5,35(s0)
    3bc6:	8f31                	xor	a4,a4,a2
    3bc8:	00475693          	srli	a3,a4,0x4
    3bcc:	8ac1                	andi	a3,a3,16
    3bce:	0eb7f793          	andi	a5,a5,235
    3bd2:	8309                	srli	a4,a4,0x2
    3bd4:	0ff67613          	andi	a2,a2,255
    3bd8:	8b11                	andi	a4,a4,4
    3bda:	8fd5                	or	a5,a5,a3
    3bdc:	8fd9                	or	a5,a5,a4
    3bde:	00163713          	seqz	a4,a2
    3be2:	0706                	slli	a4,a4,0x1
    3be4:	0fc7f793          	andi	a5,a5,252
    3be8:	8fd9                	or	a5,a5,a4
    3bea:	00765693          	srli	a3,a2,0x7
    3bee:	8fd5                	or	a5,a5,a3
    3bf0:	02f401a3          	sb	a5,35(s0)
    3bf4:	4701                	li	a4,0
    3bf6:	4781                	li	a5,0
    3bf8:	45a1                	li	a1,8
    3bfa:	40e656b3          	sra	a3,a2,a4
    3bfe:	8a85                	andi	a3,a3,1
    3c00:	97b6                	add	a5,a5,a3
    3c02:	0705                	addi	a4,a4,1
    3c04:	0ff7f793          	andi	a5,a5,255
    3c08:	feb719e3          	bne	a4,a1,3bfa <i8080_execute+0x25e6>
    3c0c:	02344703          	lbu	a4,35(s0)
    3c10:	fff7c793          	not	a5,a5
    3c14:	8b85                	andi	a5,a5,1
    3c16:	078e                	slli	a5,a5,0x3
    3c18:	9b5d                	andi	a4,a4,-9
    3c1a:	8fd9                	or	a5,a5,a4
    3c1c:	02f401a3          	sb	a5,35(s0)
    3c20:	ac50                	sb	a2,28(s0)
    3c22:	a51fd06f          	j	1672 <i8080_execute+0x5e>
    3c26:	5010                	lw	a2,32(s0)
    3c28:	2c54                	lbu	a3,28(s0)
    3c2a:	02044703          	lbu	a4,32(s0)
    3c2e:	8271                	srli	a2,a2,0x1c
    3c30:	8a05                	andi	a2,a2,1
    3c32:	00d707b3          	add	a5,a4,a3
    3c36:	963e                	add	a2,a2,a5
    3c38:	8f35                	xor	a4,a4,a3
    3c3a:	02344783          	lbu	a5,35(s0)
    3c3e:	8f31                	xor	a4,a4,a2
    3c40:	00475693          	srli	a3,a4,0x4
    3c44:	8ac1                	andi	a3,a3,16
    3c46:	0eb7f793          	andi	a5,a5,235
    3c4a:	8309                	srli	a4,a4,0x2
    3c4c:	0ff67613          	andi	a2,a2,255
    3c50:	8b11                	andi	a4,a4,4
    3c52:	8fd5                	or	a5,a5,a3
    3c54:	8fd9                	or	a5,a5,a4
    3c56:	00163713          	seqz	a4,a2
    3c5a:	0706                	slli	a4,a4,0x1
    3c5c:	0fc7f793          	andi	a5,a5,252
    3c60:	8fd9                	or	a5,a5,a4
    3c62:	00765693          	srli	a3,a2,0x7
    3c66:	8fd5                	or	a5,a5,a3
    3c68:	02f401a3          	sb	a5,35(s0)
    3c6c:	4701                	li	a4,0
    3c6e:	4781                	li	a5,0
    3c70:	45a1                	li	a1,8
    3c72:	40e656b3          	sra	a3,a2,a4
    3c76:	8a85                	andi	a3,a3,1
    3c78:	97b6                	add	a5,a5,a3
    3c7a:	0705                	addi	a4,a4,1
    3c7c:	0ff7f793          	andi	a5,a5,255
    3c80:	feb719e3          	bne	a4,a1,3c72 <i8080_execute+0x265e>
    3c84:	02344703          	lbu	a4,35(s0)
    3c88:	fff7c793          	not	a5,a5
    3c8c:	8b85                	andi	a5,a5,1
    3c8e:	078e                	slli	a5,a5,0x3
    3c90:	9b5d                	andi	a4,a4,-9
    3c92:	8fd9                	or	a5,a5,a4
    3c94:	02f401a3          	sb	a5,35(s0)
    3c98:	ac50                	sb	a2,28(s0)
    3c9a:	9d9fd06f          	j	1672 <i8080_execute+0x5e>
    3c9e:	5010                	lw	a2,32(s0)
    3ca0:	2c54                	lbu	a3,28(s0)
    3ca2:	3c78                	lbu	a4,31(s0)
    3ca4:	8271                	srli	a2,a2,0x1c
    3ca6:	8a05                	andi	a2,a2,1
    3ca8:	00d707b3          	add	a5,a4,a3
    3cac:	963e                	add	a2,a2,a5
    3cae:	8f35                	xor	a4,a4,a3
    3cb0:	02344783          	lbu	a5,35(s0)
    3cb4:	8f31                	xor	a4,a4,a2
    3cb6:	00475693          	srli	a3,a4,0x4
    3cba:	8ac1                	andi	a3,a3,16
    3cbc:	0eb7f793          	andi	a5,a5,235
    3cc0:	8309                	srli	a4,a4,0x2
    3cc2:	0ff67613          	andi	a2,a2,255
    3cc6:	8b11                	andi	a4,a4,4
    3cc8:	8fd5                	or	a5,a5,a3
    3cca:	8fd9                	or	a5,a5,a4
    3ccc:	00163713          	seqz	a4,a2
    3cd0:	0706                	slli	a4,a4,0x1
    3cd2:	0fc7f793          	andi	a5,a5,252
    3cd6:	8fd9                	or	a5,a5,a4
    3cd8:	00765693          	srli	a3,a2,0x7
    3cdc:	8fd5                	or	a5,a5,a3
    3cde:	02f401a3          	sb	a5,35(s0)
    3ce2:	4701                	li	a4,0
    3ce4:	4781                	li	a5,0
    3ce6:	45a1                	li	a1,8
    3ce8:	40e656b3          	sra	a3,a2,a4
    3cec:	8a85                	andi	a3,a3,1
    3cee:	97b6                	add	a5,a5,a3
    3cf0:	0705                	addi	a4,a4,1
    3cf2:	0ff7f793          	andi	a5,a5,255
    3cf6:	feb719e3          	bne	a4,a1,3ce8 <i8080_execute+0x26d4>
    3cfa:	02344703          	lbu	a4,35(s0)
    3cfe:	fff7c793          	not	a5,a5
    3d02:	8b85                	andi	a5,a5,1
    3d04:	078e                	slli	a5,a5,0x3
    3d06:	9b5d                	andi	a4,a4,-9
    3d08:	8fd9                	or	a5,a5,a4
    3d0a:	02f401a3          	sb	a5,35(s0)
    3d0e:	ac50                	sb	a2,28(s0)
    3d10:	963fd06f          	j	1672 <i8080_execute+0x5e>
    3d14:	5010                	lw	a2,32(s0)
    3d16:	2c54                	lbu	a3,28(s0)
    3d18:	2c78                	lbu	a4,30(s0)
    3d1a:	8271                	srli	a2,a2,0x1c
    3d1c:	8a05                	andi	a2,a2,1
    3d1e:	00d707b3          	add	a5,a4,a3
    3d22:	963e                	add	a2,a2,a5
    3d24:	8f35                	xor	a4,a4,a3
    3d26:	02344783          	lbu	a5,35(s0)
    3d2a:	8f31                	xor	a4,a4,a2
    3d2c:	00475693          	srli	a3,a4,0x4
    3d30:	8ac1                	andi	a3,a3,16
    3d32:	0eb7f793          	andi	a5,a5,235
    3d36:	8309                	srli	a4,a4,0x2
    3d38:	0ff67613          	andi	a2,a2,255
    3d3c:	8b11                	andi	a4,a4,4
    3d3e:	8fd5                	or	a5,a5,a3
    3d40:	8fd9                	or	a5,a5,a4
    3d42:	00163713          	seqz	a4,a2
    3d46:	0706                	slli	a4,a4,0x1
    3d48:	0fc7f793          	andi	a5,a5,252
    3d4c:	8fd9                	or	a5,a5,a4
    3d4e:	00765693          	srli	a3,a2,0x7
    3d52:	8fd5                	or	a5,a5,a3
    3d54:	02f401a3          	sb	a5,35(s0)
    3d58:	4701                	li	a4,0
    3d5a:	4781                	li	a5,0
    3d5c:	45a1                	li	a1,8
    3d5e:	40e656b3          	sra	a3,a2,a4
    3d62:	8a85                	andi	a3,a3,1
    3d64:	97b6                	add	a5,a5,a3
    3d66:	0705                	addi	a4,a4,1
    3d68:	0ff7f793          	andi	a5,a5,255
    3d6c:	feb719e3          	bne	a4,a1,3d5e <i8080_execute+0x274a>
    3d70:	02344703          	lbu	a4,35(s0)
    3d74:	fff7c793          	not	a5,a5
    3d78:	8b85                	andi	a5,a5,1
    3d7a:	078e                	slli	a5,a5,0x3
    3d7c:	9b5d                	andi	a4,a4,-9
    3d7e:	8fd9                	or	a5,a5,a4
    3d80:	02f401a3          	sb	a5,35(s0)
    3d84:	ac50                	sb	a2,28(s0)
    3d86:	8edfd06f          	j	1672 <i8080_execute+0x5e>
    3d8a:	5010                	lw	a2,32(s0)
    3d8c:	2c54                	lbu	a3,28(s0)
    3d8e:	3c58                	lbu	a4,29(s0)
    3d90:	8271                	srli	a2,a2,0x1c
    3d92:	8a05                	andi	a2,a2,1
    3d94:	00d707b3          	add	a5,a4,a3
    3d98:	963e                	add	a2,a2,a5
    3d9a:	8f35                	xor	a4,a4,a3
    3d9c:	02344783          	lbu	a5,35(s0)
    3da0:	8f31                	xor	a4,a4,a2
    3da2:	00475693          	srli	a3,a4,0x4
    3da6:	8ac1                	andi	a3,a3,16
    3da8:	0eb7f793          	andi	a5,a5,235
    3dac:	8309                	srli	a4,a4,0x2
    3dae:	0ff67613          	andi	a2,a2,255
    3db2:	8b11                	andi	a4,a4,4
    3db4:	8fd5                	or	a5,a5,a3
    3db6:	8fd9                	or	a5,a5,a4
    3db8:	00163713          	seqz	a4,a2
    3dbc:	0706                	slli	a4,a4,0x1
    3dbe:	0fc7f793          	andi	a5,a5,252
    3dc2:	8fd9                	or	a5,a5,a4
    3dc4:	00765693          	srli	a3,a2,0x7
    3dc8:	8fd5                	or	a5,a5,a3
    3dca:	02f401a3          	sb	a5,35(s0)
    3dce:	4701                	li	a4,0
    3dd0:	4781                	li	a5,0
    3dd2:	45a1                	li	a1,8
    3dd4:	40e656b3          	sra	a3,a2,a4
    3dd8:	8a85                	andi	a3,a3,1
    3dda:	97b6                	add	a5,a5,a3
    3ddc:	0705                	addi	a4,a4,1
    3dde:	0ff7f793          	andi	a5,a5,255
    3de2:	feb719e3          	bne	a4,a1,3dd4 <i8080_execute+0x27c0>
    3de6:	02344703          	lbu	a4,35(s0)
    3dea:	fff7c793          	not	a5,a5
    3dee:	8b85                	andi	a5,a5,1
    3df0:	078e                	slli	a5,a5,0x3
    3df2:	9b5d                	andi	a4,a4,-9
    3df4:	8fd9                	or	a5,a5,a4
    3df6:	02f401a3          	sb	a5,35(s0)
    3dfa:	ac50                	sb	a2,28(s0)
    3dfc:	877fd06f          	j	1672 <i8080_execute+0x5e>
    3e00:	2c50                	lbu	a2,28(s0)
    3e02:	02344703          	lbu	a4,35(s0)
    3e06:	4781                	li	a5,0
    3e08:	0606                	slli	a2,a2,0x1
    3e0a:	00865593          	srli	a1,a2,0x8
    3e0e:	0592                	slli	a1,a1,0x4
    3e10:	00265693          	srli	a3,a2,0x2
    3e14:	0eb77713          	andi	a4,a4,235
    3e18:	0ff67613          	andi	a2,a2,255
    3e1c:	8a91                	andi	a3,a3,4
    3e1e:	8f4d                	or	a4,a4,a1
    3e20:	8f55                	or	a4,a4,a3
    3e22:	00163693          	seqz	a3,a2
    3e26:	0686                	slli	a3,a3,0x1
    3e28:	0fc77713          	andi	a4,a4,252
    3e2c:	00765593          	srli	a1,a2,0x7
    3e30:	8f55                	or	a4,a4,a3
    3e32:	8f4d                	or	a4,a4,a1
    3e34:	02e401a3          	sb	a4,35(s0)
    3e38:	45a1                	li	a1,8
    3e3a:	4701                	li	a4,0
    3e3c:	40e656b3          	sra	a3,a2,a4
    3e40:	8a85                	andi	a3,a3,1
    3e42:	97b6                	add	a5,a5,a3
    3e44:	0705                	addi	a4,a4,1
    3e46:	0ff7f793          	andi	a5,a5,255
    3e4a:	feb719e3          	bne	a4,a1,3e3c <i8080_execute+0x2828>
    3e4e:	02344703          	lbu	a4,35(s0)
    3e52:	fff7c793          	not	a5,a5
    3e56:	8b85                	andi	a5,a5,1
    3e58:	078e                	slli	a5,a5,0x3
    3e5a:	9b5d                	andi	a4,a4,-9
    3e5c:	8fd9                	or	a5,a5,a4
    3e5e:	02f401a3          	sb	a5,35(s0)
    3e62:	ac50                	sb	a2,28(s0)
    3e64:	80ffd06f          	j	1672 <i8080_execute+0x5e>
    3e68:	02144783          	lbu	a5,33(s0)
    3e6c:	02244583          	lbu	a1,34(s0)
    3e70:	4018                	lw	a4,0(s0)
    3e72:	4808                	lw	a0,16(s0)
    3e74:	07a2                	slli	a5,a5,0x8
    3e76:	8ddd                	or	a1,a1,a5
    3e78:	9702                	jalr	a4
    3e7a:	2c50                	lbu	a2,28(s0)
    3e7c:	02344783          	lbu	a5,35(s0)
    3e80:	4681                	li	a3,0
    3e82:	00c54733          	xor	a4,a0,a2
    3e86:	0ff77713          	andi	a4,a4,255
    3e8a:	962a                	add	a2,a2,a0
    3e8c:	8f31                	xor	a4,a4,a2
    3e8e:	0742                	slli	a4,a4,0x10
    3e90:	8341                	srli	a4,a4,0x10
    3e92:	00475593          	srli	a1,a4,0x4
    3e96:	89c1                	andi	a1,a1,16
    3e98:	0eb7f793          	andi	a5,a5,235
    3e9c:	8309                	srli	a4,a4,0x2
    3e9e:	0ff67613          	andi	a2,a2,255
    3ea2:	8b11                	andi	a4,a4,4
    3ea4:	8fcd                	or	a5,a5,a1
    3ea6:	8fd9                	or	a5,a5,a4
    3ea8:	00163713          	seqz	a4,a2
    3eac:	0706                	slli	a4,a4,0x1
    3eae:	0fc7f793          	andi	a5,a5,252
    3eb2:	00765593          	srli	a1,a2,0x7
    3eb6:	8fd9                	or	a5,a5,a4
    3eb8:	8fcd                	or	a5,a5,a1
    3eba:	02f401a3          	sb	a5,35(s0)
    3ebe:	4701                	li	a4,0
    3ec0:	45a1                	li	a1,8
    3ec2:	40e657b3          	sra	a5,a2,a4
    3ec6:	8b85                	andi	a5,a5,1
    3ec8:	97b6                	add	a5,a5,a3
    3eca:	0705                	addi	a4,a4,1
    3ecc:	0ff7f693          	andi	a3,a5,255
    3ed0:	feb719e3          	bne	a4,a1,3ec2 <i8080_execute+0x28ae>
    3ed4:	02344703          	lbu	a4,35(s0)
    3ed8:	fff6c793          	not	a5,a3
    3edc:	8b85                	andi	a5,a5,1
    3ede:	078e                	slli	a5,a5,0x3
    3ee0:	9b5d                	andi	a4,a4,-9
    3ee2:	8fd9                	or	a5,a5,a4
    3ee4:	02f401a3          	sb	a5,35(s0)
    3ee8:	ac50                	sb	a2,28(s0)
    3eea:	f88fd06f          	j	1672 <i8080_execute+0x5e>
    3eee:	2c4c                	lbu	a1,28(s0)
    3ef0:	02244683          	lbu	a3,34(s0)
    3ef4:	02344703          	lbu	a4,35(s0)
    3ef8:	4781                	li	a5,0
    3efa:	00b68633          	add	a2,a3,a1
    3efe:	8ead                	xor	a3,a3,a1
    3f00:	8eb1                	xor	a3,a3,a2
    3f02:	0086d593          	srli	a1,a3,0x8
    3f06:	0592                	slli	a1,a1,0x4
    3f08:	0eb77713          	andi	a4,a4,235
    3f0c:	8289                	srli	a3,a3,0x2
    3f0e:	0ff67613          	andi	a2,a2,255
    3f12:	8a91                	andi	a3,a3,4
    3f14:	8f4d                	or	a4,a4,a1
    3f16:	8f55                	or	a4,a4,a3
    3f18:	00163693          	seqz	a3,a2
    3f1c:	0686                	slli	a3,a3,0x1
    3f1e:	0fc77713          	andi	a4,a4,252
    3f22:	00765593          	srli	a1,a2,0x7
    3f26:	8f55                	or	a4,a4,a3
    3f28:	8f4d                	or	a4,a4,a1
    3f2a:	02e401a3          	sb	a4,35(s0)
    3f2e:	45a1                	li	a1,8
    3f30:	4701                	li	a4,0
    3f32:	40e656b3          	sra	a3,a2,a4
    3f36:	8a85                	andi	a3,a3,1
    3f38:	97b6                	add	a5,a5,a3
    3f3a:	0705                	addi	a4,a4,1
    3f3c:	0ff7f793          	andi	a5,a5,255
    3f40:	feb719e3          	bne	a4,a1,3f32 <i8080_execute+0x291e>
    3f44:	02344703          	lbu	a4,35(s0)
    3f48:	fff7c793          	not	a5,a5
    3f4c:	8b85                	andi	a5,a5,1
    3f4e:	078e                	slli	a5,a5,0x3
    3f50:	9b5d                	andi	a4,a4,-9
    3f52:	8fd9                	or	a5,a5,a4
    3f54:	02f401a3          	sb	a5,35(s0)
    3f58:	ac50                	sb	a2,28(s0)
    3f5a:	f18fd06f          	j	1672 <i8080_execute+0x5e>
    3f5e:	2c4c                	lbu	a1,28(s0)
    3f60:	02144683          	lbu	a3,33(s0)
    3f64:	02344703          	lbu	a4,35(s0)
    3f68:	4781                	li	a5,0
    3f6a:	00b68633          	add	a2,a3,a1
    3f6e:	8ead                	xor	a3,a3,a1
    3f70:	8eb1                	xor	a3,a3,a2
    3f72:	0086d593          	srli	a1,a3,0x8
    3f76:	0592                	slli	a1,a1,0x4
    3f78:	0eb77713          	andi	a4,a4,235
    3f7c:	8289                	srli	a3,a3,0x2
    3f7e:	0ff67613          	andi	a2,a2,255
    3f82:	8a91                	andi	a3,a3,4
    3f84:	8f4d                	or	a4,a4,a1
    3f86:	8f55                	or	a4,a4,a3
    3f88:	00163693          	seqz	a3,a2
    3f8c:	0686                	slli	a3,a3,0x1
    3f8e:	0fc77713          	andi	a4,a4,252
    3f92:	00765593          	srli	a1,a2,0x7
    3f96:	8f55                	or	a4,a4,a3
    3f98:	8f4d                	or	a4,a4,a1
    3f9a:	02e401a3          	sb	a4,35(s0)
    3f9e:	45a1                	li	a1,8
    3fa0:	4701                	li	a4,0
    3fa2:	40e656b3          	sra	a3,a2,a4
    3fa6:	8a85                	andi	a3,a3,1
    3fa8:	97b6                	add	a5,a5,a3
    3faa:	0705                	addi	a4,a4,1
    3fac:	0ff7f793          	andi	a5,a5,255
    3fb0:	feb719e3          	bne	a4,a1,3fa2 <i8080_execute+0x298e>
    3fb4:	02344703          	lbu	a4,35(s0)
    3fb8:	fff7c793          	not	a5,a5
    3fbc:	8b85                	andi	a5,a5,1
    3fbe:	078e                	slli	a5,a5,0x3
    3fc0:	9b5d                	andi	a4,a4,-9
    3fc2:	8fd9                	or	a5,a5,a4
    3fc4:	02f401a3          	sb	a5,35(s0)
    3fc8:	ac50                	sb	a2,28(s0)
    3fca:	ea8fd06f          	j	1672 <i8080_execute+0x5e>
    3fce:	2c4c                	lbu	a1,28(s0)
    3fd0:	02044683          	lbu	a3,32(s0)
    3fd4:	02344703          	lbu	a4,35(s0)
    3fd8:	4781                	li	a5,0
    3fda:	00b68633          	add	a2,a3,a1
    3fde:	8ead                	xor	a3,a3,a1
    3fe0:	8eb1                	xor	a3,a3,a2
    3fe2:	0086d593          	srli	a1,a3,0x8
    3fe6:	0592                	slli	a1,a1,0x4
    3fe8:	0eb77713          	andi	a4,a4,235
    3fec:	8289                	srli	a3,a3,0x2
    3fee:	0ff67613          	andi	a2,a2,255
    3ff2:	8a91                	andi	a3,a3,4
    3ff4:	8f4d                	or	a4,a4,a1
    3ff6:	8f55                	or	a4,a4,a3
    3ff8:	00163693          	seqz	a3,a2
    3ffc:	0686                	slli	a3,a3,0x1
    3ffe:	0fc77713          	andi	a4,a4,252
    4002:	00765593          	srli	a1,a2,0x7
    4006:	8f55                	or	a4,a4,a3
    4008:	8f4d                	or	a4,a4,a1
    400a:	02e401a3          	sb	a4,35(s0)
    400e:	45a1                	li	a1,8
    4010:	4701                	li	a4,0
    4012:	40e656b3          	sra	a3,a2,a4
    4016:	8a85                	andi	a3,a3,1
    4018:	97b6                	add	a5,a5,a3
    401a:	0705                	addi	a4,a4,1
    401c:	0ff7f793          	andi	a5,a5,255
    4020:	feb719e3          	bne	a4,a1,4012 <i8080_execute+0x29fe>
    4024:	02344703          	lbu	a4,35(s0)
    4028:	fff7c793          	not	a5,a5
    402c:	8b85                	andi	a5,a5,1
    402e:	078e                	slli	a5,a5,0x3
    4030:	9b5d                	andi	a4,a4,-9
    4032:	8fd9                	or	a5,a5,a4
    4034:	02f401a3          	sb	a5,35(s0)
    4038:	ac50                	sb	a2,28(s0)
    403a:	e38fd06f          	j	1672 <i8080_execute+0x5e>
    403e:	2c4c                	lbu	a1,28(s0)
    4040:	3c74                	lbu	a3,31(s0)
    4042:	02344703          	lbu	a4,35(s0)
    4046:	4781                	li	a5,0
    4048:	00b68633          	add	a2,a3,a1
    404c:	8ead                	xor	a3,a3,a1
    404e:	8eb1                	xor	a3,a3,a2
    4050:	0086d593          	srli	a1,a3,0x8
    4054:	0592                	slli	a1,a1,0x4
    4056:	0eb77713          	andi	a4,a4,235
    405a:	8289                	srli	a3,a3,0x2
    405c:	0ff67613          	andi	a2,a2,255
    4060:	8a91                	andi	a3,a3,4
    4062:	8f4d                	or	a4,a4,a1
    4064:	8f55                	or	a4,a4,a3
    4066:	00163693          	seqz	a3,a2
    406a:	0686                	slli	a3,a3,0x1
    406c:	0fc77713          	andi	a4,a4,252
    4070:	00765593          	srli	a1,a2,0x7
    4074:	8f55                	or	a4,a4,a3
    4076:	8f4d                	or	a4,a4,a1
    4078:	02e401a3          	sb	a4,35(s0)
    407c:	45a1                	li	a1,8
    407e:	4701                	li	a4,0
    4080:	40e656b3          	sra	a3,a2,a4
    4084:	8a85                	andi	a3,a3,1
    4086:	97b6                	add	a5,a5,a3
    4088:	0705                	addi	a4,a4,1
    408a:	0ff7f793          	andi	a5,a5,255
    408e:	feb719e3          	bne	a4,a1,4080 <i8080_execute+0x2a6c>
    4092:	02344703          	lbu	a4,35(s0)
    4096:	fff7c793          	not	a5,a5
    409a:	8b85                	andi	a5,a5,1
    409c:	078e                	slli	a5,a5,0x3
    409e:	9b5d                	andi	a4,a4,-9
    40a0:	8fd9                	or	a5,a5,a4
    40a2:	02f401a3          	sb	a5,35(s0)
    40a6:	ac50                	sb	a2,28(s0)
    40a8:	dcafd06f          	j	1672 <i8080_execute+0x5e>
    40ac:	2c4c                	lbu	a1,28(s0)
    40ae:	2c74                	lbu	a3,30(s0)
    40b0:	02344703          	lbu	a4,35(s0)
    40b4:	4781                	li	a5,0
    40b6:	00b68633          	add	a2,a3,a1
    40ba:	8ead                	xor	a3,a3,a1
    40bc:	8eb1                	xor	a3,a3,a2
    40be:	0086d593          	srli	a1,a3,0x8
    40c2:	0592                	slli	a1,a1,0x4
    40c4:	0eb77713          	andi	a4,a4,235
    40c8:	8289                	srli	a3,a3,0x2
    40ca:	0ff67613          	andi	a2,a2,255
    40ce:	8a91                	andi	a3,a3,4
    40d0:	8f4d                	or	a4,a4,a1
    40d2:	8f55                	or	a4,a4,a3
    40d4:	00163693          	seqz	a3,a2
    40d8:	0686                	slli	a3,a3,0x1
    40da:	0fc77713          	andi	a4,a4,252
    40de:	00765593          	srli	a1,a2,0x7
    40e2:	8f55                	or	a4,a4,a3
    40e4:	8f4d                	or	a4,a4,a1
    40e6:	02e401a3          	sb	a4,35(s0)
    40ea:	45a1                	li	a1,8
    40ec:	4701                	li	a4,0
    40ee:	40e656b3          	sra	a3,a2,a4
    40f2:	8a85                	andi	a3,a3,1
    40f4:	97b6                	add	a5,a5,a3
    40f6:	0705                	addi	a4,a4,1
    40f8:	0ff7f793          	andi	a5,a5,255
    40fc:	feb719e3          	bne	a4,a1,40ee <i8080_execute+0x2ada>
    4100:	02344703          	lbu	a4,35(s0)
    4104:	fff7c793          	not	a5,a5
    4108:	8b85                	andi	a5,a5,1
    410a:	078e                	slli	a5,a5,0x3
    410c:	9b5d                	andi	a4,a4,-9
    410e:	8fd9                	or	a5,a5,a4
    4110:	02f401a3          	sb	a5,35(s0)
    4114:	ac50                	sb	a2,28(s0)
    4116:	d5cfd06f          	j	1672 <i8080_execute+0x5e>
    411a:	2c4c                	lbu	a1,28(s0)
    411c:	3c54                	lbu	a3,29(s0)
    411e:	02344703          	lbu	a4,35(s0)
    4122:	4781                	li	a5,0
    4124:	00b68633          	add	a2,a3,a1
    4128:	8ead                	xor	a3,a3,a1
    412a:	8eb1                	xor	a3,a3,a2
    412c:	0086d593          	srli	a1,a3,0x8
    4130:	0592                	slli	a1,a1,0x4
    4132:	0eb77713          	andi	a4,a4,235
    4136:	8289                	srli	a3,a3,0x2
    4138:	0ff67613          	andi	a2,a2,255
    413c:	8a91                	andi	a3,a3,4
    413e:	8f4d                	or	a4,a4,a1
    4140:	8f55                	or	a4,a4,a3
    4142:	00163693          	seqz	a3,a2
    4146:	0686                	slli	a3,a3,0x1
    4148:	0fc77713          	andi	a4,a4,252
    414c:	00765593          	srli	a1,a2,0x7
    4150:	8f55                	or	a4,a4,a3
    4152:	8f4d                	or	a4,a4,a1
    4154:	02e401a3          	sb	a4,35(s0)
    4158:	45a1                	li	a1,8
    415a:	4701                	li	a4,0
    415c:	40e656b3          	sra	a3,a2,a4
    4160:	8a85                	andi	a3,a3,1
    4162:	97b6                	add	a5,a5,a3
    4164:	0705                	addi	a4,a4,1
    4166:	0ff7f793          	andi	a5,a5,255
    416a:	feb719e3          	bne	a4,a1,415c <i8080_execute+0x2b48>
    416e:	02344703          	lbu	a4,35(s0)
    4172:	fff7c793          	not	a5,a5
    4176:	8b85                	andi	a5,a5,1
    4178:	078e                	slli	a5,a5,0x3
    417a:	9b5d                	andi	a4,a4,-9
    417c:	8fd9                	or	a5,a5,a4
    417e:	02f401a3          	sb	a5,35(s0)
    4182:	ac50                	sb	a2,28(s0)
    4184:	ceefd06f          	j	1672 <i8080_execute+0x5e>
    4188:	2c0e                	lhu	a1,24(s0)
    418a:	401c                	lw	a5,0(s0)
    418c:	4808                	lw	a0,16(s0)
    418e:	00158713          	addi	a4,a1,1
    4192:	ac1a                	sh	a4,24(s0)
    4194:	9782                	jalr	a5
    4196:	2c58                	lbu	a4,28(s0)
    4198:	02344683          	lbu	a3,35(s0)
    419c:	4601                	li	a2,0
    419e:	40a707b3          	sub	a5,a4,a0
    41a2:	01079593          	slli	a1,a5,0x10
    41a6:	81c1                	srli	a1,a1,0x10
    41a8:	8f29                	xor	a4,a4,a0
    41aa:	01059813          	slli	a6,a1,0x10
    41ae:	41085813          	srai	a6,a6,0x10
    41b2:	0ff77713          	andi	a4,a4,255
    41b6:	40885513          	srai	a0,a6,0x8
    41ba:	01074733          	xor	a4,a4,a6
    41be:	00a03533          	snez	a0,a0
    41c2:	fff74713          	not	a4,a4
    41c6:	0512                	slli	a0,a0,0x4
    41c8:	0eb6f693          	andi	a3,a3,235
    41cc:	8309                	srli	a4,a4,0x2
    41ce:	8ec9                	or	a3,a3,a0
    41d0:	8b11                	andi	a4,a4,4
    41d2:	0ff5f513          	andi	a0,a1,255
    41d6:	8f55                	or	a4,a4,a3
    41d8:	00153513          	seqz	a0,a0
    41dc:	4075d693          	srai	a3,a1,0x7
    41e0:	0506                	slli	a0,a0,0x1
    41e2:	0fc77713          	andi	a4,a4,252
    41e6:	8a85                	andi	a3,a3,1
    41e8:	8f49                	or	a4,a4,a0
    41ea:	8f55                	or	a4,a4,a3
    41ec:	02e401a3          	sb	a4,35(s0)
    41f0:	0ff7f693          	andi	a3,a5,255
    41f4:	4701                	li	a4,0
    41f6:	45a1                	li	a1,8
    41f8:	40e6d7b3          	sra	a5,a3,a4
    41fc:	8b85                	andi	a5,a5,1
    41fe:	97b2                	add	a5,a5,a2
    4200:	0705                	addi	a4,a4,1
    4202:	0ff7f613          	andi	a2,a5,255
    4206:	feb719e3          	bne	a4,a1,41f8 <i8080_execute+0x2be4>
    420a:	02344703          	lbu	a4,35(s0)
    420e:	fff64793          	not	a5,a2
    4212:	8b85                	andi	a5,a5,1
    4214:	078e                	slli	a5,a5,0x3
    4216:	9b5d                	andi	a4,a4,-9
    4218:	8fd9                	or	a5,a5,a4
    421a:	02f401a3          	sb	a5,35(s0)
    421e:	c54fd06f          	j	1672 <i8080_execute+0x5e>
    4222:	02144783          	lbu	a5,33(s0)
    4226:	02244583          	lbu	a1,34(s0)
    422a:	4018                	lw	a4,0(s0)
    422c:	4808                	lw	a0,16(s0)
    422e:	07a2                	slli	a5,a5,0x8
    4230:	8ddd                	or	a1,a1,a5
    4232:	9702                	jalr	a4
    4234:	ac48                	sb	a0,28(s0)
    4236:	c3cfd06f          	j	1672 <i8080_execute+0x5e>
    423a:	02244783          	lbu	a5,34(s0)
    423e:	ac5c                	sb	a5,28(s0)
    4240:	c32fd06f          	j	1672 <i8080_execute+0x5e>
    4244:	02144783          	lbu	a5,33(s0)
    4248:	ac5c                	sb	a5,28(s0)
    424a:	c28fd06f          	j	1672 <i8080_execute+0x5e>
    424e:	02044783          	lbu	a5,32(s0)
    4252:	ac5c                	sb	a5,28(s0)
    4254:	c1efd06f          	j	1672 <i8080_execute+0x5e>
    4258:	3c7c                	lbu	a5,31(s0)
    425a:	ac5c                	sb	a5,28(s0)
    425c:	c16fd06f          	j	1672 <i8080_execute+0x5e>
    4260:	2c7c                	lbu	a5,30(s0)
    4262:	ac5c                	sb	a5,28(s0)
    4264:	c0efd06f          	j	1672 <i8080_execute+0x5e>
    4268:	3c5c                	lbu	a5,29(s0)
    426a:	ac5c                	sb	a5,28(s0)
    426c:	c06fd06f          	j	1672 <i8080_execute+0x5e>
    4270:	02144783          	lbu	a5,33(s0)
    4274:	02244583          	lbu	a1,34(s0)
    4278:	4058                	lw	a4,4(s0)
    427a:	2c50                	lbu	a2,28(s0)
    427c:	4808                	lw	a0,16(s0)
    427e:	07a2                	slli	a5,a5,0x8
    4280:	8ddd                	or	a1,a1,a5
    4282:	9702                	jalr	a4
    4284:	beefd06f          	j	1672 <i8080_execute+0x5e>
    4288:	02344783          	lbu	a5,35(s0)
    428c:	0407e793          	ori	a5,a5,64
    4290:	02f401a3          	sb	a5,35(s0)
    4294:	bdefd06f          	j	1672 <i8080_execute+0x5e>
    4298:	02144583          	lbu	a1,33(s0)
    429c:	02244603          	lbu	a2,34(s0)
    42a0:	405c                	lw	a5,4(s0)
    42a2:	4808                	lw	a0,16(s0)
    42a4:	05a2                	slli	a1,a1,0x8
    42a6:	8dd1                	or	a1,a1,a2
    42a8:	9782                	jalr	a5
    42aa:	bc8fd06f          	j	1672 <i8080_execute+0x5e>
    42ae:	02144603          	lbu	a2,33(s0)
    42b2:	02244703          	lbu	a4,34(s0)
    42b6:	405c                	lw	a5,4(s0)
    42b8:	4808                	lw	a0,16(s0)
    42ba:	00861593          	slli	a1,a2,0x8
    42be:	8dd9                	or	a1,a1,a4
    42c0:	9782                	jalr	a5
    42c2:	bb0fd06f          	j	1672 <i8080_execute+0x5e>
    42c6:	02144783          	lbu	a5,33(s0)
    42ca:	02244583          	lbu	a1,34(s0)
    42ce:	4058                	lw	a4,4(s0)
    42d0:	02044603          	lbu	a2,32(s0)
    42d4:	4808                	lw	a0,16(s0)
    42d6:	07a2                	slli	a5,a5,0x8
    42d8:	8ddd                	or	a1,a1,a5
    42da:	9702                	jalr	a4
    42dc:	b96fd06f          	j	1672 <i8080_execute+0x5e>
    42e0:	02144783          	lbu	a5,33(s0)
    42e4:	02244583          	lbu	a1,34(s0)
    42e8:	4058                	lw	a4,4(s0)
    42ea:	3c70                	lbu	a2,31(s0)
    42ec:	4808                	lw	a0,16(s0)
    42ee:	07a2                	slli	a5,a5,0x8
    42f0:	8ddd                	or	a1,a1,a5
    42f2:	9702                	jalr	a4
    42f4:	b7efd06f          	j	1672 <i8080_execute+0x5e>
    42f8:	02144783          	lbu	a5,33(s0)
    42fc:	02244583          	lbu	a1,34(s0)
    4300:	4058                	lw	a4,4(s0)
    4302:	2c70                	lbu	a2,30(s0)
    4304:	4808                	lw	a0,16(s0)
    4306:	07a2                	slli	a5,a5,0x8
    4308:	8ddd                	or	a1,a1,a5
    430a:	9702                	jalr	a4
    430c:	b66fd06f          	j	1672 <i8080_execute+0x5e>
    4310:	02144783          	lbu	a5,33(s0)
    4314:	02244583          	lbu	a1,34(s0)
    4318:	4058                	lw	a4,4(s0)
    431a:	3c50                	lbu	a2,29(s0)
    431c:	4808                	lw	a0,16(s0)
    431e:	07a2                	slli	a5,a5,0x8
    4320:	8ddd                	or	a1,a1,a5
    4322:	9702                	jalr	a4
    4324:	b4efd06f          	j	1672 <i8080_execute+0x5e>
    4328:	2c5c                	lbu	a5,28(s0)
    432a:	02f40123          	sb	a5,34(s0)
    432e:	b44fd06f          	j	1672 <i8080_execute+0x5e>
    4332:	02144783          	lbu	a5,33(s0)
    4336:	02244583          	lbu	a1,34(s0)
    433a:	4018                	lw	a4,0(s0)
    433c:	4808                	lw	a0,16(s0)
    433e:	07a2                	slli	a5,a5,0x8
    4340:	8ddd                	or	a1,a1,a5
    4342:	9702                	jalr	a4
    4344:	02a40123          	sb	a0,34(s0)
    4348:	b2afd06f          	j	1672 <i8080_execute+0x5e>
    434c:	2c26                	lhu	s1,26(s0)
    434e:	01845903          	lhu	s2,24(s0)
    4352:	4808                	lw	a0,16(s0)
    4354:	ffe48793          	addi	a5,s1,-2
    4358:	4058                	lw	a4,4(s0)
    435a:	07c2                	slli	a5,a5,0x10
    435c:	83c1                	srli	a5,a5,0x10
    435e:	85be                	mv	a1,a5
    4360:	0ff97613          	andi	a2,s2,255
    4364:	ac3e                	sh	a5,26(s0)
    4366:	9702                	jalr	a4
    4368:	405c                	lw	a5,4(s0)
    436a:	4808                	lw	a0,16(s0)
    436c:	fff48593          	addi	a1,s1,-1
    4370:	05c2                	slli	a1,a1,0x10
    4372:	00895613          	srli	a2,s2,0x8
    4376:	81c1                	srli	a1,a1,0x10
    4378:	9782                	jalr	a5
    437a:	03000793          	li	a5,48
    437e:	ac1e                	sh	a5,24(s0)
    4380:	af2fd06f          	j	1672 <i8080_execute+0x5e>
    4384:	02144783          	lbu	a5,33(s0)
    4388:	02f40123          	sb	a5,34(s0)
    438c:	ae6fd06f          	j	1672 <i8080_execute+0x5e>
    4390:	02044783          	lbu	a5,32(s0)
    4394:	02f40123          	sb	a5,34(s0)
    4398:	adafd06f          	j	1672 <i8080_execute+0x5e>
    439c:	3c7c                	lbu	a5,31(s0)
    439e:	02f40123          	sb	a5,34(s0)
    43a2:	ad0fd06f          	j	1672 <i8080_execute+0x5e>
    43a6:	2c7c                	lbu	a5,30(s0)
    43a8:	02f40123          	sb	a5,34(s0)
    43ac:	ac6fd06f          	j	1672 <i8080_execute+0x5e>
    43b0:	3c5c                	lbu	a5,29(s0)
    43b2:	02f40123          	sb	a5,34(s0)
    43b6:	abcfd06f          	j	1672 <i8080_execute+0x5e>
    43ba:	2c5c                	lbu	a5,28(s0)
    43bc:	02f400a3          	sb	a5,33(s0)
    43c0:	ab2fd06f          	j	1672 <i8080_execute+0x5e>
    43c4:	02144783          	lbu	a5,33(s0)
    43c8:	02244583          	lbu	a1,34(s0)
    43cc:	4018                	lw	a4,0(s0)
    43ce:	4808                	lw	a0,16(s0)
    43d0:	07a2                	slli	a5,a5,0x8
    43d2:	8ddd                	or	a1,a1,a5
    43d4:	9702                	jalr	a4
    43d6:	02a400a3          	sb	a0,33(s0)
    43da:	a98fd06f          	j	1672 <i8080_execute+0x5e>
    43de:	02244783          	lbu	a5,34(s0)
    43e2:	02f400a3          	sb	a5,33(s0)
    43e6:	a8cfd06f          	j	1672 <i8080_execute+0x5e>
    43ea:	02344783          	lbu	a5,35(s0)
    43ee:	8b85                	andi	a5,a5,1
    43f0:	e399                	bnez	a5,43f6 <i8080_execute+0x2de2>
    43f2:	a80fd06f          	j	1672 <i8080_execute+0x5e>
    43f6:	01a45903          	lhu	s2,26(s0)
    43fa:	401c                	lw	a5,0(s0)
    43fc:	4808                	lw	a0,16(s0)
    43fe:	00190593          	addi	a1,s2,1
    4402:	05c2                	slli	a1,a1,0x10
    4404:	81c1                	srli	a1,a1,0x10
    4406:	9782                	jalr	a5
    4408:	84aa                	mv	s1,a0
    440a:	401c                	lw	a5,0(s0)
    440c:	4808                	lw	a0,16(s0)
    440e:	85ca                	mv	a1,s2
    4410:	04a2                	slli	s1,s1,0x8
    4412:	9782                	jalr	a5
    4414:	2c3a                	lhu	a4,26(s0)
    4416:	485c                	lw	a5,20(s0)
    4418:	8cc9                	or	s1,s1,a0
    441a:	0709                	addi	a4,a4,2
    441c:	0799                	addi	a5,a5,6
    441e:	ac3a                	sh	a4,26(s0)
    4420:	ac06                	sh	s1,24(s0)
    4422:	c85c                	sw	a5,20(s0)
    4424:	a4efd06f          	j	1672 <i8080_execute+0x5e>
    4428:	02044783          	lbu	a5,32(s0)
    442c:	02f400a3          	sb	a5,33(s0)
    4430:	a42fd06f          	j	1672 <i8080_execute+0x5e>
    4434:	3c7c                	lbu	a5,31(s0)
    4436:	02f400a3          	sb	a5,33(s0)
    443a:	a38fd06f          	j	1672 <i8080_execute+0x5e>
    443e:	2c7c                	lbu	a5,30(s0)
    4440:	02f400a3          	sb	a5,33(s0)
    4444:	a2efd06f          	j	1672 <i8080_execute+0x5e>
    4448:	3c5c                	lbu	a5,29(s0)
    444a:	02f400a3          	sb	a5,33(s0)
    444e:	a24fd06f          	j	1672 <i8080_execute+0x5e>
    4452:	2c5c                	lbu	a5,28(s0)
    4454:	02f40023          	sb	a5,32(s0)
    4458:	a1afd06f          	j	1672 <i8080_execute+0x5e>
    445c:	02144783          	lbu	a5,33(s0)
    4460:	02244583          	lbu	a1,34(s0)
    4464:	4018                	lw	a4,0(s0)
    4466:	4808                	lw	a0,16(s0)
    4468:	07a2                	slli	a5,a5,0x8
    446a:	8ddd                	or	a1,a1,a5
    446c:	9702                	jalr	a4
    446e:	02a40023          	sb	a0,32(s0)
    4472:	a00fd06f          	j	1672 <i8080_execute+0x5e>
    4476:	02244783          	lbu	a5,34(s0)
    447a:	02f40023          	sb	a5,32(s0)
    447e:	9f4fd06f          	j	1672 <i8080_execute+0x5e>
    4482:	02144783          	lbu	a5,33(s0)
    4486:	02f40023          	sb	a5,32(s0)
    448a:	9e8fd06f          	j	1672 <i8080_execute+0x5e>
    448e:	02144783          	lbu	a5,33(s0)
    4492:	02244703          	lbu	a4,34(s0)
    4496:	07a2                	slli	a5,a5,0x8
    4498:	8fd9                	or	a5,a5,a4
    449a:	ac3e                	sh	a5,26(s0)
    449c:	9d6fd06f          	j	1672 <i8080_execute+0x5e>
    44a0:	3c7c                	lbu	a5,31(s0)
    44a2:	02f40023          	sb	a5,32(s0)
    44a6:	9ccfd06f          	j	1672 <i8080_execute+0x5e>
    44aa:	2c7c                	lbu	a5,30(s0)
    44ac:	02f40023          	sb	a5,32(s0)
    44b0:	9c2fd06f          	j	1672 <i8080_execute+0x5e>
    44b4:	3c5c                	lbu	a5,29(s0)
    44b6:	02f40023          	sb	a5,32(s0)
    44ba:	9b8fd06f          	j	1672 <i8080_execute+0x5e>
    44be:	2c5c                	lbu	a5,28(s0)
    44c0:	bc7c                	sb	a5,31(s0)
    44c2:	9b0fd06f          	j	1672 <i8080_execute+0x5e>
    44c6:	02144783          	lbu	a5,33(s0)
    44ca:	02244583          	lbu	a1,34(s0)
    44ce:	4018                	lw	a4,0(s0)
    44d0:	4808                	lw	a0,16(s0)
    44d2:	07a2                	slli	a5,a5,0x8
    44d4:	8ddd                	or	a1,a1,a5
    44d6:	9702                	jalr	a4
    44d8:	bc68                	sb	a0,31(s0)
    44da:	998fd06f          	j	1672 <i8080_execute+0x5e>
    44de:	02244783          	lbu	a5,34(s0)
    44e2:	bc7c                	sb	a5,31(s0)
    44e4:	98efd06f          	j	1672 <i8080_execute+0x5e>
    44e8:	02144783          	lbu	a5,33(s0)
    44ec:	bc7c                	sb	a5,31(s0)
    44ee:	984fd06f          	j	1672 <i8080_execute+0x5e>
    44f2:	02044783          	lbu	a5,32(s0)
    44f6:	bc7c                	sb	a5,31(s0)
    44f8:	97afd06f          	j	1672 <i8080_execute+0x5e>
    44fc:	01845983          	lhu	s3,24(s0)
    4500:	401c                	lw	a5,0(s0)
    4502:	4808                	lw	a0,16(s0)
    4504:	00198593          	addi	a1,s3,1
    4508:	05c2                	slli	a1,a1,0x10
    450a:	81c1                	srli	a1,a1,0x10
    450c:	02344483          	lbu	s1,35(s0)
    4510:	9782                	jalr	a5
    4512:	892a                	mv	s2,a0
    4514:	401c                	lw	a5,0(s0)
    4516:	4808                	lw	a0,16(s0)
    4518:	8885                	andi	s1,s1,1
    451a:	85ce                	mv	a1,s3
    451c:	9782                	jalr	a5
    451e:	660494e3          	bnez	s1,5386 <i8080_execute+0x3d72>
    4522:	2c1e                	lhu	a5,24(s0)
    4524:	0789                	addi	a5,a5,2
    4526:	ac1e                	sh	a5,24(s0)
    4528:	94afd06f          	j	1672 <i8080_execute+0x5e>
    452c:	2c7c                	lbu	a5,30(s0)
    452e:	bc7c                	sb	a5,31(s0)
    4530:	942fd06f          	j	1672 <i8080_execute+0x5e>
    4534:	02144783          	lbu	a5,33(s0)
    4538:	02244583          	lbu	a1,34(s0)
    453c:	4018                	lw	a4,0(s0)
    453e:	4808                	lw	a0,16(s0)
    4540:	07a2                	slli	a5,a5,0x8
    4542:	8ddd                	or	a1,a1,a5
    4544:	9702                	jalr	a4
    4546:	ac68                	sb	a0,30(s0)
    4548:	92afd06f          	j	1672 <i8080_execute+0x5e>
    454c:	02244783          	lbu	a5,34(s0)
    4550:	ac7c                	sb	a5,30(s0)
    4552:	920fd06f          	j	1672 <i8080_execute+0x5e>
    4556:	02144783          	lbu	a5,33(s0)
    455a:	ac7c                	sb	a5,30(s0)
    455c:	916fd06f          	j	1672 <i8080_execute+0x5e>
    4560:	02044783          	lbu	a5,32(s0)
    4564:	ac7c                	sb	a5,30(s0)
    4566:	90cfd06f          	j	1672 <i8080_execute+0x5e>
    456a:	3c7c                	lbu	a5,31(s0)
    456c:	ac7c                	sb	a5,30(s0)
    456e:	904fd06f          	j	1672 <i8080_execute+0x5e>
    4572:	02344783          	lbu	a5,35(s0)
    4576:	4705                	li	a4,1
    4578:	02e402a3          	sb	a4,37(s0)
    457c:	0207e793          	ori	a5,a5,32
    4580:	02f401a3          	sb	a5,35(s0)
    4584:	8eefd06f          	j	1672 <i8080_execute+0x5e>
    4588:	3c5c                	lbu	a5,29(s0)
    458a:	ac7c                	sb	a5,30(s0)
    458c:	8e6fd06f          	j	1672 <i8080_execute+0x5e>
    4590:	2c5c                	lbu	a5,28(s0)
    4592:	bc5c                	sb	a5,29(s0)
    4594:	8defd06f          	j	1672 <i8080_execute+0x5e>
    4598:	3c5c                	lbu	a5,29(s0)
    459a:	bc7c                	sb	a5,31(s0)
    459c:	8d6fd06f          	j	1672 <i8080_execute+0x5e>
    45a0:	2c5c                	lbu	a5,28(s0)
    45a2:	ac7c                	sb	a5,30(s0)
    45a4:	8cefd06f          	j	1672 <i8080_execute+0x5e>
    45a8:	02144783          	lbu	a5,33(s0)
    45ac:	02244583          	lbu	a1,34(s0)
    45b0:	4018                	lw	a4,0(s0)
    45b2:	4808                	lw	a0,16(s0)
    45b4:	07a2                	slli	a5,a5,0x8
    45b6:	8ddd                	or	a1,a1,a5
    45b8:	9702                	jalr	a4
    45ba:	bc48                	sb	a0,29(s0)
    45bc:	8b6fd06f          	j	1672 <i8080_execute+0x5e>
    45c0:	02244783          	lbu	a5,34(s0)
    45c4:	bc5c                	sb	a5,29(s0)
    45c6:	8acfd06f          	j	1672 <i8080_execute+0x5e>
    45ca:	02144783          	lbu	a5,33(s0)
    45ce:	bc5c                	sb	a5,29(s0)
    45d0:	8a2fd06f          	j	1672 <i8080_execute+0x5e>
    45d4:	02044783          	lbu	a5,32(s0)
    45d8:	bc5c                	sb	a5,29(s0)
    45da:	898fd06f          	j	1672 <i8080_execute+0x5e>
    45de:	3c7c                	lbu	a5,31(s0)
    45e0:	bc5c                	sb	a5,29(s0)
    45e2:	890fd06f          	j	1672 <i8080_execute+0x5e>
    45e6:	2c7c                	lbu	a5,30(s0)
    45e8:	bc5c                	sb	a5,29(s0)
    45ea:	888fd06f          	j	1672 <i8080_execute+0x5e>
    45ee:	2c06                	lhu	s1,24(s0)
    45f0:	401c                	lw	a5,0(s0)
    45f2:	4808                	lw	a0,16(s0)
    45f4:	00148593          	addi	a1,s1,1
    45f8:	05c2                	slli	a1,a1,0x10
    45fa:	81c1                	srli	a1,a1,0x10
    45fc:	02344903          	lbu	s2,35(s0)
    4600:	9782                	jalr	a5
    4602:	89aa                	mv	s3,a0
    4604:	401c                	lw	a5,0(s0)
    4606:	4808                	lw	a0,16(s0)
    4608:	85a6                	mv	a1,s1
    460a:	00197913          	andi	s2,s2,1
    460e:	9782                	jalr	a5
    4610:	2c06                	lhu	s1,24(s0)
    4612:	8a2a                	mv	s4,a0
    4614:	0489                	addi	s1,s1,2
    4616:	04c2                	slli	s1,s1,0x10
    4618:	80c1                	srli	s1,s1,0x10
    461a:	ac06                	sh	s1,24(s0)
    461c:	00091463          	bnez	s2,4624 <i8080_execute+0x3010>
    4620:	852fd06f          	j	1672 <i8080_execute+0x5e>
    4624:	01a45903          	lhu	s2,26(s0)
    4628:	4058                	lw	a4,4(s0)
    462a:	4808                	lw	a0,16(s0)
    462c:	ffe90793          	addi	a5,s2,-2
    4630:	07c2                	slli	a5,a5,0x10
    4632:	83c1                	srli	a5,a5,0x10
    4634:	85be                	mv	a1,a5
    4636:	0ff4f613          	andi	a2,s1,255
    463a:	ac3e                	sh	a5,26(s0)
    463c:	9702                	jalr	a4
    463e:	405c                	lw	a5,4(s0)
    4640:	4808                	lw	a0,16(s0)
    4642:	fff90593          	addi	a1,s2,-1
    4646:	05c2                	slli	a1,a1,0x10
    4648:	0084d613          	srli	a2,s1,0x8
    464c:	81c1                	srli	a1,a1,0x10
    464e:	9782                	jalr	a5
    4650:	4858                	lw	a4,20(s0)
    4652:	00899793          	slli	a5,s3,0x8
    4656:	0147e7b3          	or	a5,a5,s4
    465a:	0719                	addi	a4,a4,6
    465c:	ac1e                	sh	a5,24(s0)
    465e:	c858                	sw	a4,20(s0)
    4660:	812fd06f          	j	1672 <i8080_execute+0x5e>
    4664:	501c                	lw	a5,32(s0)
    4666:	02344703          	lbu	a4,35(s0)
    466a:	83f1                	srli	a5,a5,0x1c
    466c:	8b85                	andi	a5,a5,1
    466e:	0017c793          	xori	a5,a5,1
    4672:	0792                	slli	a5,a5,0x4
    4674:	9b3d                	andi	a4,a4,-17
    4676:	8fd9                	or	a5,a5,a4
    4678:	02f401a3          	sb	a5,35(s0)
    467c:	ff7fc06f          	j	1672 <i8080_execute+0x5e>
    4680:	2c0e                	lhu	a1,24(s0)
    4682:	401c                	lw	a5,0(s0)
    4684:	4808                	lw	a0,16(s0)
    4686:	00158713          	addi	a4,a1,1
    468a:	ac1a                	sh	a4,24(s0)
    468c:	9782                	jalr	a5
    468e:	ac48                	sb	a0,28(s0)
    4690:	fe3fc06f          	j	1672 <i8080_execute+0x5e>
    4694:	2c50                	lbu	a2,28(s0)
    4696:	02344703          	lbu	a4,35(s0)
    469a:	4781                	li	a5,0
    469c:	167d                	addi	a2,a2,-1
    469e:	0ff67613          	andi	a2,a2,255
    46a2:	00f67693          	andi	a3,a2,15
    46a6:	16c5                	addi	a3,a3,-15
    46a8:	00d036b3          	snez	a3,a3
    46ac:	068a                	slli	a3,a3,0x2
    46ae:	0f977713          	andi	a4,a4,249
    46b2:	00163593          	seqz	a1,a2
    46b6:	0586                	slli	a1,a1,0x1
    46b8:	8f55                	or	a4,a4,a3
    46ba:	8f4d                	or	a4,a4,a1
    46bc:	00765693          	srli	a3,a2,0x7
    46c0:	9b79                	andi	a4,a4,-2
    46c2:	8f55                	or	a4,a4,a3
    46c4:	02e401a3          	sb	a4,35(s0)
    46c8:	45a1                	li	a1,8
    46ca:	4701                	li	a4,0
    46cc:	40e656b3          	sra	a3,a2,a4
    46d0:	8a85                	andi	a3,a3,1
    46d2:	97b6                	add	a5,a5,a3
    46d4:	0705                	addi	a4,a4,1
    46d6:	0ff7f793          	andi	a5,a5,255
    46da:	feb719e3          	bne	a4,a1,46cc <i8080_execute+0x30b8>
    46de:	02344703          	lbu	a4,35(s0)
    46e2:	fff7c793          	not	a5,a5
    46e6:	8b85                	andi	a5,a5,1
    46e8:	078e                	slli	a5,a5,0x3
    46ea:	9b5d                	andi	a4,a4,-9
    46ec:	8fd9                	or	a5,a5,a4
    46ee:	02f401a3          	sb	a5,35(s0)
    46f2:	ac50                	sb	a2,28(s0)
    46f4:	f7ffc06f          	j	1672 <i8080_execute+0x5e>
    46f8:	2c50                	lbu	a2,28(s0)
    46fa:	02344703          	lbu	a4,35(s0)
    46fe:	4781                	li	a5,0
    4700:	0605                	addi	a2,a2,1
    4702:	0ff67613          	andi	a2,a2,255
    4706:	00f67693          	andi	a3,a2,15
    470a:	0016b693          	seqz	a3,a3
    470e:	068a                	slli	a3,a3,0x2
    4710:	0f977713          	andi	a4,a4,249
    4714:	00163593          	seqz	a1,a2
    4718:	0586                	slli	a1,a1,0x1
    471a:	8f55                	or	a4,a4,a3
    471c:	8f4d                	or	a4,a4,a1
    471e:	00765693          	srli	a3,a2,0x7
    4722:	9b79                	andi	a4,a4,-2
    4724:	8f55                	or	a4,a4,a3
    4726:	02e401a3          	sb	a4,35(s0)
    472a:	45a1                	li	a1,8
    472c:	4701                	li	a4,0
    472e:	40e656b3          	sra	a3,a2,a4
    4732:	8a85                	andi	a3,a3,1
    4734:	97b6                	add	a5,a5,a3
    4736:	0705                	addi	a4,a4,1
    4738:	0ff7f793          	andi	a5,a5,255
    473c:	feb719e3          	bne	a4,a1,472e <i8080_execute+0x311a>
    4740:	02344703          	lbu	a4,35(s0)
    4744:	fff7c793          	not	a5,a5
    4748:	8b85                	andi	a5,a5,1
    474a:	078e                	slli	a5,a5,0x3
    474c:	9b5d                	andi	a4,a4,-9
    474e:	8fd9                	or	a5,a5,a4
    4750:	02f401a3          	sb	a5,35(s0)
    4754:	ac50                	sb	a2,28(s0)
    4756:	f1dfc06f          	j	1672 <i8080_execute+0x5e>
    475a:	2c3e                	lhu	a5,26(s0)
    475c:	17fd                	addi	a5,a5,-1
    475e:	ac3e                	sh	a5,26(s0)
    4760:	f13fc06f          	j	1672 <i8080_execute+0x5e>
    4764:	01845903          	lhu	s2,24(s0)
    4768:	401c                	lw	a5,0(s0)
    476a:	4808                	lw	a0,16(s0)
    476c:	00190593          	addi	a1,s2,1
    4770:	05c2                	slli	a1,a1,0x10
    4772:	81c1                	srli	a1,a1,0x10
    4774:	9782                	jalr	a5
    4776:	84aa                	mv	s1,a0
    4778:	401c                	lw	a5,0(s0)
    477a:	4808                	lw	a0,16(s0)
    477c:	85ca                	mv	a1,s2
    477e:	9782                	jalr	a5
    4780:	2c1e                	lhu	a5,24(s0)
    4782:	00849593          	slli	a1,s1,0x8
    4786:	8dc9                	or	a1,a1,a0
    4788:	4018                	lw	a4,0(s0)
    478a:	4808                	lw	a0,16(s0)
    478c:	0789                	addi	a5,a5,2
    478e:	05c2                	slli	a1,a1,0x10
    4790:	ac1e                	sh	a5,24(s0)
    4792:	81c1                	srli	a1,a1,0x10
    4794:	9702                	jalr	a4
    4796:	ac48                	sb	a0,28(s0)
    4798:	edbfc06f          	j	1672 <i8080_execute+0x5e>
    479c:	02144783          	lbu	a5,33(s0)
    47a0:	02244603          	lbu	a2,34(s0)
    47a4:	2c36                	lhu	a3,26(s0)
    47a6:	07a2                	slli	a5,a5,0x8
    47a8:	02344703          	lbu	a4,35(s0)
    47ac:	8fd1                	or	a5,a5,a2
    47ae:	97b6                	add	a5,a5,a3
    47b0:	0107d693          	srli	a3,a5,0x10
    47b4:	07c2                	slli	a5,a5,0x10
    47b6:	83c1                	srli	a5,a5,0x10
    47b8:	0692                	slli	a3,a3,0x4
    47ba:	9b3d                	andi	a4,a4,-17
    47bc:	8f55                	or	a4,a4,a3
    47be:	0087d693          	srli	a3,a5,0x8
    47c2:	02e401a3          	sb	a4,35(s0)
    47c6:	02d400a3          	sb	a3,33(s0)
    47ca:	02f40123          	sb	a5,34(s0)
    47ce:	ea5fc06f          	j	1672 <i8080_execute+0x5e>
    47d2:	02344783          	lbu	a5,35(s0)
    47d6:	0107e793          	ori	a5,a5,16
    47da:	02f401a3          	sb	a5,35(s0)
    47de:	e95fc06f          	j	1672 <i8080_execute+0x5e>
    47e2:	2c0e                	lhu	a1,24(s0)
    47e4:	02144483          	lbu	s1,33(s0)
    47e8:	02244703          	lbu	a4,34(s0)
    47ec:	401c                	lw	a5,0(s0)
    47ee:	4808                	lw	a0,16(s0)
    47f0:	00158693          	addi	a3,a1,1
    47f4:	ac16                	sh	a3,24(s0)
    47f6:	04a2                	slli	s1,s1,0x8
    47f8:	8cd9                	or	s1,s1,a4
    47fa:	9782                	jalr	a5
    47fc:	862a                	mv	a2,a0
    47fe:	405c                	lw	a5,4(s0)
    4800:	4808                	lw	a0,16(s0)
    4802:	85a6                	mv	a1,s1
    4804:	9782                	jalr	a5
    4806:	e6dfc06f          	j	1672 <i8080_execute+0x5e>
    480a:	02144483          	lbu	s1,33(s0)
    480e:	02244703          	lbu	a4,34(s0)
    4812:	401c                	lw	a5,0(s0)
    4814:	04a2                	slli	s1,s1,0x8
    4816:	4808                	lw	a0,16(s0)
    4818:	8cd9                	or	s1,s1,a4
    481a:	85a6                	mv	a1,s1
    481c:	9782                	jalr	a5
    481e:	fff50613          	addi	a2,a0,-1
    4822:	0ff67613          	andi	a2,a2,255
    4826:	02344783          	lbu	a5,35(s0)
    482a:	00f67713          	andi	a4,a2,15
    482e:	1745                	addi	a4,a4,-15
    4830:	00e03733          	snez	a4,a4
    4834:	070a                	slli	a4,a4,0x2
    4836:	0f97f793          	andi	a5,a5,249
    483a:	00163693          	seqz	a3,a2
    483e:	8fd9                	or	a5,a5,a4
    4840:	0686                	slli	a3,a3,0x1
    4842:	8fd5                	or	a5,a5,a3
    4844:	00765713          	srli	a4,a2,0x7
    4848:	9bf9                	andi	a5,a5,-2
    484a:	8fd9                	or	a5,a5,a4
    484c:	02f401a3          	sb	a5,35(s0)
    4850:	4701                	li	a4,0
    4852:	4781                	li	a5,0
    4854:	45a1                	li	a1,8
    4856:	40e656b3          	sra	a3,a2,a4
    485a:	8a85                	andi	a3,a3,1
    485c:	97b6                	add	a5,a5,a3
    485e:	0705                	addi	a4,a4,1
    4860:	0ff7f793          	andi	a5,a5,255
    4864:	feb719e3          	bne	a4,a1,4856 <i8080_execute+0x3242>
    4868:	02344703          	lbu	a4,35(s0)
    486c:	fff7c793          	not	a5,a5
    4870:	8b85                	andi	a5,a5,1
    4872:	9b5d                	andi	a4,a4,-9
    4874:	078e                	slli	a5,a5,0x3
    4876:	4054                	lw	a3,4(s0)
    4878:	4808                	lw	a0,16(s0)
    487a:	8fd9                	or	a5,a5,a4
    487c:	02f401a3          	sb	a5,35(s0)
    4880:	85a6                	mv	a1,s1
    4882:	9682                	jalr	a3
    4884:	deffc06f          	j	1672 <i8080_execute+0x5e>
    4888:	02144483          	lbu	s1,33(s0)
    488c:	02244703          	lbu	a4,34(s0)
    4890:	401c                	lw	a5,0(s0)
    4892:	04a2                	slli	s1,s1,0x8
    4894:	4808                	lw	a0,16(s0)
    4896:	8cd9                	or	s1,s1,a4
    4898:	85a6                	mv	a1,s1
    489a:	9782                	jalr	a5
    489c:	00150613          	addi	a2,a0,1
    48a0:	0ff67613          	andi	a2,a2,255
    48a4:	02344783          	lbu	a5,35(s0)
    48a8:	00f67713          	andi	a4,a2,15
    48ac:	00173713          	seqz	a4,a4
    48b0:	070a                	slli	a4,a4,0x2
    48b2:	0f97f793          	andi	a5,a5,249
    48b6:	00163693          	seqz	a3,a2
    48ba:	8fd9                	or	a5,a5,a4
    48bc:	0686                	slli	a3,a3,0x1
    48be:	8fd5                	or	a5,a5,a3
    48c0:	00765713          	srli	a4,a2,0x7
    48c4:	9bf9                	andi	a5,a5,-2
    48c6:	8fd9                	or	a5,a5,a4
    48c8:	02f401a3          	sb	a5,35(s0)
    48cc:	4701                	li	a4,0
    48ce:	4781                	li	a5,0
    48d0:	45a1                	li	a1,8
    48d2:	40e656b3          	sra	a3,a2,a4
    48d6:	8a85                	andi	a3,a3,1
    48d8:	97b6                	add	a5,a5,a3
    48da:	0705                	addi	a4,a4,1
    48dc:	0ff7f793          	andi	a5,a5,255
    48e0:	feb719e3          	bne	a4,a1,48d2 <i8080_execute+0x32be>
    48e4:	02344703          	lbu	a4,35(s0)
    48e8:	fff7c793          	not	a5,a5
    48ec:	8b85                	andi	a5,a5,1
    48ee:	9b5d                	andi	a4,a4,-9
    48f0:	078e                	slli	a5,a5,0x3
    48f2:	4054                	lw	a3,4(s0)
    48f4:	4808                	lw	a0,16(s0)
    48f6:	8fd9                	or	a5,a5,a4
    48f8:	02f401a3          	sb	a5,35(s0)
    48fc:	85a6                	mv	a1,s1
    48fe:	9682                	jalr	a3
    4900:	d73fc06f          	j	1672 <i8080_execute+0x5e>
    4904:	2c3e                	lhu	a5,26(s0)
    4906:	0785                	addi	a5,a5,1
    4908:	ac3e                	sh	a5,26(s0)
    490a:	d69fc06f          	j	1672 <i8080_execute+0x5e>
    490e:	01845903          	lhu	s2,24(s0)
    4912:	401c                	lw	a5,0(s0)
    4914:	4808                	lw	a0,16(s0)
    4916:	00190593          	addi	a1,s2,1
    491a:	05c2                	slli	a1,a1,0x10
    491c:	81c1                	srli	a1,a1,0x10
    491e:	9782                	jalr	a5
    4920:	84aa                	mv	s1,a0
    4922:	401c                	lw	a5,0(s0)
    4924:	4808                	lw	a0,16(s0)
    4926:	85ca                	mv	a1,s2
    4928:	9782                	jalr	a5
    492a:	2c1e                	lhu	a5,24(s0)
    492c:	00849593          	slli	a1,s1,0x8
    4930:	8dc9                	or	a1,a1,a0
    4932:	4058                	lw	a4,4(s0)
    4934:	2c50                	lbu	a2,28(s0)
    4936:	4808                	lw	a0,16(s0)
    4938:	0789                	addi	a5,a5,2
    493a:	05c2                	slli	a1,a1,0x10
    493c:	ac1e                	sh	a5,24(s0)
    493e:	81c1                	srli	a1,a1,0x10
    4940:	9702                	jalr	a4
    4942:	d31fc06f          	j	1672 <i8080_execute+0x5e>
    4946:	01845903          	lhu	s2,24(s0)
    494a:	401c                	lw	a5,0(s0)
    494c:	4808                	lw	a0,16(s0)
    494e:	00190593          	addi	a1,s2,1
    4952:	05c2                	slli	a1,a1,0x10
    4954:	81c1                	srli	a1,a1,0x10
    4956:	9782                	jalr	a5
    4958:	84aa                	mv	s1,a0
    495a:	401c                	lw	a5,0(s0)
    495c:	4808                	lw	a0,16(s0)
    495e:	85ca                	mv	a1,s2
    4960:	04a2                	slli	s1,s1,0x8
    4962:	9782                	jalr	a5
    4964:	2c1e                	lhu	a5,24(s0)
    4966:	8cc9                	or	s1,s1,a0
    4968:	ac26                	sh	s1,26(s0)
    496a:	0789                	addi	a5,a5,2
    496c:	ac1e                	sh	a5,24(s0)
    496e:	d05fc06f          	j	1672 <i8080_execute+0x5e>
    4972:	2c5c                	lbu	a5,28(s0)
    4974:	fff7c793          	not	a5,a5
    4978:	ac5c                	sb	a5,28(s0)
    497a:	cf9fc06f          	j	1672 <i8080_execute+0x5e>
    497e:	2c0e                	lhu	a1,24(s0)
    4980:	401c                	lw	a5,0(s0)
    4982:	4808                	lw	a0,16(s0)
    4984:	00158713          	addi	a4,a1,1
    4988:	ac1a                	sh	a4,24(s0)
    498a:	9782                	jalr	a5
    498c:	02a40123          	sb	a0,34(s0)
    4990:	ce3fc06f          	j	1672 <i8080_execute+0x5e>
    4994:	02244603          	lbu	a2,34(s0)
    4998:	02344703          	lbu	a4,35(s0)
    499c:	4781                	li	a5,0
    499e:	167d                	addi	a2,a2,-1
    49a0:	0ff67613          	andi	a2,a2,255
    49a4:	00f67693          	andi	a3,a2,15
    49a8:	16c5                	addi	a3,a3,-15
    49aa:	00d036b3          	snez	a3,a3
    49ae:	068a                	slli	a3,a3,0x2
    49b0:	0f977713          	andi	a4,a4,249
    49b4:	00163593          	seqz	a1,a2
    49b8:	0586                	slli	a1,a1,0x1
    49ba:	8f55                	or	a4,a4,a3
    49bc:	8f4d                	or	a4,a4,a1
    49be:	00765693          	srli	a3,a2,0x7
    49c2:	9b79                	andi	a4,a4,-2
    49c4:	8f55                	or	a4,a4,a3
    49c6:	02e401a3          	sb	a4,35(s0)
    49ca:	45a1                	li	a1,8
    49cc:	4701                	li	a4,0
    49ce:	40e656b3          	sra	a3,a2,a4
    49d2:	8a85                	andi	a3,a3,1
    49d4:	97b6                	add	a5,a5,a3
    49d6:	0705                	addi	a4,a4,1
    49d8:	0ff7f793          	andi	a5,a5,255
    49dc:	feb719e3          	bne	a4,a1,49ce <i8080_execute+0x33ba>
    49e0:	02344703          	lbu	a4,35(s0)
    49e4:	fff7c793          	not	a5,a5
    49e8:	8b85                	andi	a5,a5,1
    49ea:	078e                	slli	a5,a5,0x3
    49ec:	9b5d                	andi	a4,a4,-9
    49ee:	8fd9                	or	a5,a5,a4
    49f0:	02f401a3          	sb	a5,35(s0)
    49f4:	02c40123          	sb	a2,34(s0)
    49f8:	c7bfc06f          	j	1672 <i8080_execute+0x5e>
    49fc:	02244603          	lbu	a2,34(s0)
    4a00:	02344703          	lbu	a4,35(s0)
    4a04:	4781                	li	a5,0
    4a06:	0605                	addi	a2,a2,1
    4a08:	0ff67613          	andi	a2,a2,255
    4a0c:	00f67693          	andi	a3,a2,15
    4a10:	0016b693          	seqz	a3,a3
    4a14:	068a                	slli	a3,a3,0x2
    4a16:	0f977713          	andi	a4,a4,249
    4a1a:	00163593          	seqz	a1,a2
    4a1e:	0586                	slli	a1,a1,0x1
    4a20:	8f55                	or	a4,a4,a3
    4a22:	8f4d                	or	a4,a4,a1
    4a24:	00765693          	srli	a3,a2,0x7
    4a28:	9b79                	andi	a4,a4,-2
    4a2a:	8f55                	or	a4,a4,a3
    4a2c:	02e401a3          	sb	a4,35(s0)
    4a30:	45a1                	li	a1,8
    4a32:	4701                	li	a4,0
    4a34:	40e656b3          	sra	a3,a2,a4
    4a38:	8a85                	andi	a3,a3,1
    4a3a:	97b6                	add	a5,a5,a3
    4a3c:	0705                	addi	a4,a4,1
    4a3e:	0ff7f793          	andi	a5,a5,255
    4a42:	feb719e3          	bne	a4,a1,4a34 <i8080_execute+0x3420>
    4a46:	02344703          	lbu	a4,35(s0)
    4a4a:	fff7c793          	not	a5,a5
    4a4e:	8b85                	andi	a5,a5,1
    4a50:	078e                	slli	a5,a5,0x3
    4a52:	9b5d                	andi	a4,a4,-9
    4a54:	8fd9                	or	a5,a5,a4
    4a56:	02f401a3          	sb	a5,35(s0)
    4a5a:	02c40123          	sb	a2,34(s0)
    4a5e:	c15fc06f          	j	1672 <i8080_execute+0x5e>
    4a62:	02144783          	lbu	a5,33(s0)
    4a66:	02244703          	lbu	a4,34(s0)
    4a6a:	07a2                	slli	a5,a5,0x8
    4a6c:	8fd9                	or	a5,a5,a4
    4a6e:	17fd                	addi	a5,a5,-1
    4a70:	07c2                	slli	a5,a5,0x10
    4a72:	83c1                	srli	a5,a5,0x10
    4a74:	0087d713          	srli	a4,a5,0x8
    4a78:	02e400a3          	sb	a4,33(s0)
    4a7c:	02f40123          	sb	a5,34(s0)
    4a80:	bf3fc06f          	j	1672 <i8080_execute+0x5e>
    4a84:	01845903          	lhu	s2,24(s0)
    4a88:	401c                	lw	a5,0(s0)
    4a8a:	4808                	lw	a0,16(s0)
    4a8c:	00190593          	addi	a1,s2,1
    4a90:	05c2                	slli	a1,a1,0x10
    4a92:	81c1                	srli	a1,a1,0x10
    4a94:	9782                	jalr	a5
    4a96:	84aa                	mv	s1,a0
    4a98:	401c                	lw	a5,0(s0)
    4a9a:	4808                	lw	a0,16(s0)
    4a9c:	85ca                	mv	a1,s2
    4a9e:	04a2                	slli	s1,s1,0x8
    4aa0:	9782                	jalr	a5
    4aa2:	8cc9                	or	s1,s1,a0
    4aa4:	2c1e                	lhu	a5,24(s0)
    4aa6:	01049913          	slli	s2,s1,0x10
    4aaa:	01095913          	srli	s2,s2,0x10
    4aae:	4018                	lw	a4,0(s0)
    4ab0:	4808                	lw	a0,16(s0)
    4ab2:	00190593          	addi	a1,s2,1
    4ab6:	0789                	addi	a5,a5,2
    4ab8:	05c2                	slli	a1,a1,0x10
    4aba:	81c1                	srli	a1,a1,0x10
    4abc:	ac1e                	sh	a5,24(s0)
    4abe:	9702                	jalr	a4
    4ac0:	84aa                	mv	s1,a0
    4ac2:	401c                	lw	a5,0(s0)
    4ac4:	4808                	lw	a0,16(s0)
    4ac6:	85ca                	mv	a1,s2
    4ac8:	04a2                	slli	s1,s1,0x8
    4aca:	9782                	jalr	a5
    4acc:	8cc9                	or	s1,s1,a0
    4ace:	01049793          	slli	a5,s1,0x10
    4ad2:	87c1                	srai	a5,a5,0x10
    4ad4:	01079713          	slli	a4,a5,0x10
    4ad8:	8341                	srli	a4,a4,0x10
    4ada:	8321                	srli	a4,a4,0x8
    4adc:	02e400a3          	sb	a4,33(s0)
    4ae0:	02f40123          	sb	a5,34(s0)
    4ae4:	b8ffc06f          	j	1672 <i8080_execute+0x5e>
    4ae8:	02144783          	lbu	a5,33(s0)
    4aec:	02244683          	lbu	a3,34(s0)
    4af0:	02344703          	lbu	a4,35(s0)
    4af4:	07a2                	slli	a5,a5,0x8
    4af6:	8fd5                	or	a5,a5,a3
    4af8:	0786                	slli	a5,a5,0x1
    4afa:	0107d693          	srli	a3,a5,0x10
    4afe:	07c2                	slli	a5,a5,0x10
    4b00:	83c1                	srli	a5,a5,0x10
    4b02:	0692                	slli	a3,a3,0x4
    4b04:	9b3d                	andi	a4,a4,-17
    4b06:	8f55                	or	a4,a4,a3
    4b08:	0087d693          	srli	a3,a5,0x8
    4b0c:	02e401a3          	sb	a4,35(s0)
    4b10:	02d400a3          	sb	a3,33(s0)
    4b14:	02f40123          	sb	a5,34(s0)
    4b18:	b5bfc06f          	j	1672 <i8080_execute+0x5e>
    4b1c:	500c                	lw	a1,32(s0)
    4b1e:	02344703          	lbu	a4,35(s0)
    4b22:	2c5c                	lbu	a5,28(s0)
    4b24:	81f1                	srli	a1,a1,0x1c
    4b26:	00477613          	andi	a2,a4,4
    4b2a:	8985                	andi	a1,a1,1
    4b2c:	00f7f513          	andi	a0,a5,15
    4b30:	4699                	li	a3,6
    4b32:	e611                	bnez	a2,4b3e <i8080_execute+0x352a>
    4b34:	4625                	li	a2,9
    4b36:	4681                	li	a3,0
    4b38:	00a67363          	bgeu	a2,a0,4b3e <i8080_execute+0x352a>
    4b3c:	4699                	li	a3,6
    4b3e:	8b41                	andi	a4,a4,16
    4b40:	eb11                	bnez	a4,4b54 <i8080_execute+0x3540>
    4b42:	0047d713          	srli	a4,a5,0x4
    4b46:	4625                	li	a2,9
    4b48:	00e66663          	bltu	a2,a4,4b54 <i8080_execute+0x3540>
    4b4c:	00c71963          	bne	a4,a2,4b5e <i8080_execute+0x354a>
    4b50:	00a77763          	bgeu	a4,a0,4b5e <i8080_execute+0x354a>
    4b54:	06068693          	addi	a3,a3,96
    4b58:	0ff6f693          	andi	a3,a3,255
    4b5c:	4585                	li	a1,1
    4b5e:	00d78533          	add	a0,a5,a3
    4b62:	02344703          	lbu	a4,35(s0)
    4b66:	8fb5                	xor	a5,a5,a3
    4b68:	8fa9                	xor	a5,a5,a0
    4b6a:	8389                	srli	a5,a5,0x2
    4b6c:	0ff57513          	andi	a0,a0,255
    4b70:	0f977713          	andi	a4,a4,249
    4b74:	8b91                	andi	a5,a5,4
    4b76:	00153693          	seqz	a3,a0
    4b7a:	8fd9                	or	a5,a5,a4
    4b7c:	0686                	slli	a3,a3,0x1
    4b7e:	8fd5                	or	a5,a5,a3
    4b80:	00755713          	srli	a4,a0,0x7
    4b84:	9bf9                	andi	a5,a5,-2
    4b86:	8fd9                	or	a5,a5,a4
    4b88:	02f401a3          	sb	a5,35(s0)
    4b8c:	4701                	li	a4,0
    4b8e:	4781                	li	a5,0
    4b90:	4621                	li	a2,8
    4b92:	40e556b3          	sra	a3,a0,a4
    4b96:	8a85                	andi	a3,a3,1
    4b98:	97b6                	add	a5,a5,a3
    4b9a:	0705                	addi	a4,a4,1
    4b9c:	0ff7f793          	andi	a5,a5,255
    4ba0:	fec719e3          	bne	a4,a2,4b92 <i8080_execute+0x357e>
    4ba4:	02344703          	lbu	a4,35(s0)
    4ba8:	fff7c793          	not	a5,a5
    4bac:	8b85                	andi	a5,a5,1
    4bae:	078e                	slli	a5,a5,0x3
    4bb0:	0e777713          	andi	a4,a4,231
    4bb4:	0592                	slli	a1,a1,0x4
    4bb6:	8fd9                	or	a5,a5,a4
    4bb8:	8fcd                	or	a5,a5,a1
    4bba:	ac48                	sb	a0,28(s0)
    4bbc:	02f401a3          	sb	a5,35(s0)
    4bc0:	ab3fc06f          	j	1672 <i8080_execute+0x5e>
    4bc4:	02144603          	lbu	a2,33(s0)
    4bc8:	02344703          	lbu	a4,35(s0)
    4bcc:	4781                	li	a5,0
    4bce:	167d                	addi	a2,a2,-1
    4bd0:	0ff67613          	andi	a2,a2,255
    4bd4:	00f67693          	andi	a3,a2,15
    4bd8:	16c5                	addi	a3,a3,-15
    4bda:	00d036b3          	snez	a3,a3
    4bde:	068a                	slli	a3,a3,0x2
    4be0:	0f977713          	andi	a4,a4,249
    4be4:	00163593          	seqz	a1,a2
    4be8:	0586                	slli	a1,a1,0x1
    4bea:	8f55                	or	a4,a4,a3
    4bec:	8f4d                	or	a4,a4,a1
    4bee:	00765693          	srli	a3,a2,0x7
    4bf2:	9b79                	andi	a4,a4,-2
    4bf4:	8f55                	or	a4,a4,a3
    4bf6:	02e401a3          	sb	a4,35(s0)
    4bfa:	45a1                	li	a1,8
    4bfc:	4701                	li	a4,0
    4bfe:	40e656b3          	sra	a3,a2,a4
    4c02:	8a85                	andi	a3,a3,1
    4c04:	97b6                	add	a5,a5,a3
    4c06:	0705                	addi	a4,a4,1
    4c08:	0ff7f793          	andi	a5,a5,255
    4c0c:	feb719e3          	bne	a4,a1,4bfe <i8080_execute+0x35ea>
    4c10:	02344703          	lbu	a4,35(s0)
    4c14:	fff7c793          	not	a5,a5
    4c18:	8b85                	andi	a5,a5,1
    4c1a:	078e                	slli	a5,a5,0x3
    4c1c:	9b5d                	andi	a4,a4,-9
    4c1e:	8fd9                	or	a5,a5,a4
    4c20:	02f401a3          	sb	a5,35(s0)
    4c24:	02c400a3          	sb	a2,33(s0)
    4c28:	a4bfc06f          	j	1672 <i8080_execute+0x5e>
    4c2c:	2c0e                	lhu	a1,24(s0)
    4c2e:	401c                	lw	a5,0(s0)
    4c30:	4808                	lw	a0,16(s0)
    4c32:	00158713          	addi	a4,a1,1
    4c36:	ac1a                	sh	a4,24(s0)
    4c38:	9782                	jalr	a5
    4c3a:	02a400a3          	sb	a0,33(s0)
    4c3e:	a35fc06f          	j	1672 <i8080_execute+0x5e>
    4c42:	02144603          	lbu	a2,33(s0)
    4c46:	02344703          	lbu	a4,35(s0)
    4c4a:	4781                	li	a5,0
    4c4c:	0605                	addi	a2,a2,1
    4c4e:	0ff67613          	andi	a2,a2,255
    4c52:	00f67693          	andi	a3,a2,15
    4c56:	0016b693          	seqz	a3,a3
    4c5a:	068a                	slli	a3,a3,0x2
    4c5c:	0f977713          	andi	a4,a4,249
    4c60:	00163593          	seqz	a1,a2
    4c64:	0586                	slli	a1,a1,0x1
    4c66:	8f55                	or	a4,a4,a3
    4c68:	8f4d                	or	a4,a4,a1
    4c6a:	00765693          	srli	a3,a2,0x7
    4c6e:	9b79                	andi	a4,a4,-2
    4c70:	8f55                	or	a4,a4,a3
    4c72:	02e401a3          	sb	a4,35(s0)
    4c76:	45a1                	li	a1,8
    4c78:	4701                	li	a4,0
    4c7a:	40e656b3          	sra	a3,a2,a4
    4c7e:	8a85                	andi	a3,a3,1
    4c80:	97b6                	add	a5,a5,a3
    4c82:	0705                	addi	a4,a4,1
    4c84:	0ff7f793          	andi	a5,a5,255
    4c88:	feb719e3          	bne	a4,a1,4c7a <i8080_execute+0x3666>
    4c8c:	02344703          	lbu	a4,35(s0)
    4c90:	fff7c793          	not	a5,a5
    4c94:	8b85                	andi	a5,a5,1
    4c96:	078e                	slli	a5,a5,0x3
    4c98:	9b5d                	andi	a4,a4,-9
    4c9a:	8fd9                	or	a5,a5,a4
    4c9c:	02f401a3          	sb	a5,35(s0)
    4ca0:	02c400a3          	sb	a2,33(s0)
    4ca4:	9cffc06f          	j	1672 <i8080_execute+0x5e>
    4ca8:	02144783          	lbu	a5,33(s0)
    4cac:	02244703          	lbu	a4,34(s0)
    4cb0:	07a2                	slli	a5,a5,0x8
    4cb2:	8fd9                	or	a5,a5,a4
    4cb4:	0785                	addi	a5,a5,1
    4cb6:	07c2                	slli	a5,a5,0x10
    4cb8:	83c1                	srli	a5,a5,0x10
    4cba:	0087d713          	srli	a4,a5,0x8
    4cbe:	02e400a3          	sb	a4,33(s0)
    4cc2:	02f40123          	sb	a5,34(s0)
    4cc6:	9adfc06f          	j	1672 <i8080_execute+0x5e>
    4cca:	01845903          	lhu	s2,24(s0)
    4cce:	401c                	lw	a5,0(s0)
    4cd0:	4808                	lw	a0,16(s0)
    4cd2:	00190593          	addi	a1,s2,1
    4cd6:	05c2                	slli	a1,a1,0x10
    4cd8:	81c1                	srli	a1,a1,0x10
    4cda:	9782                	jalr	a5
    4cdc:	401c                	lw	a5,0(s0)
    4cde:	84aa                	mv	s1,a0
    4ce0:	4808                	lw	a0,16(s0)
    4ce2:	85ca                	mv	a1,s2
    4ce4:	04a2                	slli	s1,s1,0x8
    4ce6:	9782                	jalr	a5
    4ce8:	02144903          	lbu	s2,33(s0)
    4cec:	02244703          	lbu	a4,34(s0)
    4cf0:	2c1e                	lhu	a5,24(s0)
    4cf2:	0922                	slli	s2,s2,0x8
    4cf4:	8cc9                	or	s1,s1,a0
    4cf6:	00e96933          	or	s2,s2,a4
    4cfa:	4808                	lw	a0,16(s0)
    4cfc:	4058                	lw	a4,4(s0)
    4cfe:	04c2                	slli	s1,s1,0x10
    4d00:	0942                	slli	s2,s2,0x10
    4d02:	80c1                	srli	s1,s1,0x10
    4d04:	41095913          	srai	s2,s2,0x10
    4d08:	0789                	addi	a5,a5,2
    4d0a:	0ff97613          	andi	a2,s2,255
    4d0e:	85a6                	mv	a1,s1
    4d10:	ac1e                	sh	a5,24(s0)
    4d12:	9702                	jalr	a4
    4d14:	01091613          	slli	a2,s2,0x10
    4d18:	00148593          	addi	a1,s1,1
    4d1c:	4808                	lw	a0,16(s0)
    4d1e:	405c                	lw	a5,4(s0)
    4d20:	8241                	srli	a2,a2,0x10
    4d22:	05c2                	slli	a1,a1,0x10
    4d24:	8221                	srli	a2,a2,0x8
    4d26:	81c1                	srli	a1,a1,0x10
    4d28:	9782                	jalr	a5
    4d2a:	949fc06f          	j	1672 <i8080_execute+0x5e>
    4d2e:	01845903          	lhu	s2,24(s0)
    4d32:	401c                	lw	a5,0(s0)
    4d34:	4808                	lw	a0,16(s0)
    4d36:	00190593          	addi	a1,s2,1
    4d3a:	05c2                	slli	a1,a1,0x10
    4d3c:	81c1                	srli	a1,a1,0x10
    4d3e:	9782                	jalr	a5
    4d40:	84aa                	mv	s1,a0
    4d42:	401c                	lw	a5,0(s0)
    4d44:	4808                	lw	a0,16(s0)
    4d46:	85ca                	mv	a1,s2
    4d48:	04a2                	slli	s1,s1,0x8
    4d4a:	9782                	jalr	a5
    4d4c:	8cc9                	or	s1,s1,a0
    4d4e:	01049793          	slli	a5,s1,0x10
    4d52:	2c16                	lhu	a3,24(s0)
    4d54:	87c1                	srai	a5,a5,0x10
    4d56:	01079713          	slli	a4,a5,0x10
    4d5a:	8341                	srli	a4,a4,0x10
    4d5c:	0689                	addi	a3,a3,2
    4d5e:	8321                	srli	a4,a4,0x8
    4d60:	ac16                	sh	a3,24(s0)
    4d62:	02e400a3          	sb	a4,33(s0)
    4d66:	02f40123          	sb	a5,34(s0)
    4d6a:	909fc06f          	j	1672 <i8080_execute+0x5e>
    4d6e:	2c5c                	lbu	a5,28(s0)
    4d70:	5014                	lw	a3,32(s0)
    4d72:	02344703          	lbu	a4,35(s0)
    4d76:	0017f613          	andi	a2,a5,1
    4d7a:	82d5                	srli	a3,a3,0x15
    4d7c:	0612                	slli	a2,a2,0x4
    4d7e:	9b3d                	andi	a4,a4,-17
    4d80:	8385                	srli	a5,a5,0x1
    4d82:	0806f693          	andi	a3,a3,128
    4d86:	8f51                	or	a4,a4,a2
    4d88:	8fd5                	or	a5,a5,a3
    4d8a:	02e401a3          	sb	a4,35(s0)
    4d8e:	ac5c                	sb	a5,28(s0)
    4d90:	8e3fc06f          	j	1672 <i8080_execute+0x5e>
    4d94:	2c0e                	lhu	a1,24(s0)
    4d96:	401c                	lw	a5,0(s0)
    4d98:	4808                	lw	a0,16(s0)
    4d9a:	00158713          	addi	a4,a1,1
    4d9e:	ac1a                	sh	a4,24(s0)
    4da0:	9782                	jalr	a5
    4da2:	02a40023          	sb	a0,32(s0)
    4da6:	8cdfc06f          	j	1672 <i8080_execute+0x5e>
    4daa:	02044603          	lbu	a2,32(s0)
    4dae:	02344703          	lbu	a4,35(s0)
    4db2:	4781                	li	a5,0
    4db4:	167d                	addi	a2,a2,-1
    4db6:	0ff67613          	andi	a2,a2,255
    4dba:	00f67693          	andi	a3,a2,15
    4dbe:	16c5                	addi	a3,a3,-15
    4dc0:	00d036b3          	snez	a3,a3
    4dc4:	068a                	slli	a3,a3,0x2
    4dc6:	0f977713          	andi	a4,a4,249
    4dca:	00163593          	seqz	a1,a2
    4dce:	0586                	slli	a1,a1,0x1
    4dd0:	8f55                	or	a4,a4,a3
    4dd2:	8f4d                	or	a4,a4,a1
    4dd4:	00765693          	srli	a3,a2,0x7
    4dd8:	9b79                	andi	a4,a4,-2
    4dda:	8f55                	or	a4,a4,a3
    4ddc:	02e401a3          	sb	a4,35(s0)
    4de0:	45a1                	li	a1,8
    4de2:	4701                	li	a4,0
    4de4:	40e656b3          	sra	a3,a2,a4
    4de8:	8a85                	andi	a3,a3,1
    4dea:	97b6                	add	a5,a5,a3
    4dec:	0705                	addi	a4,a4,1
    4dee:	0ff7f793          	andi	a5,a5,255
    4df2:	feb719e3          	bne	a4,a1,4de4 <i8080_execute+0x37d0>
    4df6:	02344703          	lbu	a4,35(s0)
    4dfa:	fff7c793          	not	a5,a5
    4dfe:	8b85                	andi	a5,a5,1
    4e00:	078e                	slli	a5,a5,0x3
    4e02:	9b5d                	andi	a4,a4,-9
    4e04:	8fd9                	or	a5,a5,a4
    4e06:	02f401a3          	sb	a5,35(s0)
    4e0a:	02c40023          	sb	a2,32(s0)
    4e0e:	865fc06f          	j	1672 <i8080_execute+0x5e>
    4e12:	02044603          	lbu	a2,32(s0)
    4e16:	02344703          	lbu	a4,35(s0)
    4e1a:	4781                	li	a5,0
    4e1c:	0605                	addi	a2,a2,1
    4e1e:	0ff67613          	andi	a2,a2,255
    4e22:	00f67693          	andi	a3,a2,15
    4e26:	0016b693          	seqz	a3,a3
    4e2a:	068a                	slli	a3,a3,0x2
    4e2c:	0f977713          	andi	a4,a4,249
    4e30:	00163593          	seqz	a1,a2
    4e34:	0586                	slli	a1,a1,0x1
    4e36:	8f55                	or	a4,a4,a3
    4e38:	8f4d                	or	a4,a4,a1
    4e3a:	00765693          	srli	a3,a2,0x7
    4e3e:	9b79                	andi	a4,a4,-2
    4e40:	8f55                	or	a4,a4,a3
    4e42:	02e401a3          	sb	a4,35(s0)
    4e46:	45a1                	li	a1,8
    4e48:	4701                	li	a4,0
    4e4a:	40e656b3          	sra	a3,a2,a4
    4e4e:	8a85                	andi	a3,a3,1
    4e50:	97b6                	add	a5,a5,a3
    4e52:	0705                	addi	a4,a4,1
    4e54:	0ff7f793          	andi	a5,a5,255
    4e58:	feb719e3          	bne	a4,a1,4e4a <i8080_execute+0x3836>
    4e5c:	02344703          	lbu	a4,35(s0)
    4e60:	fff7c793          	not	a5,a5
    4e64:	8b85                	andi	a5,a5,1
    4e66:	078e                	slli	a5,a5,0x3
    4e68:	9b5d                	andi	a4,a4,-9
    4e6a:	8fd9                	or	a5,a5,a4
    4e6c:	02f401a3          	sb	a5,35(s0)
    4e70:	02c40023          	sb	a2,32(s0)
    4e74:	ffefc06f          	j	1672 <i8080_execute+0x5e>
    4e78:	3c7c                	lbu	a5,31(s0)
    4e7a:	02044703          	lbu	a4,32(s0)
    4e7e:	07a2                	slli	a5,a5,0x8
    4e80:	8fd9                	or	a5,a5,a4
    4e82:	17fd                	addi	a5,a5,-1
    4e84:	07c2                	slli	a5,a5,0x10
    4e86:	83c1                	srli	a5,a5,0x10
    4e88:	0087d713          	srli	a4,a5,0x8
    4e8c:	bc78                	sb	a4,31(s0)
    4e8e:	02f40023          	sb	a5,32(s0)
    4e92:	fe0fc06f          	j	1672 <i8080_execute+0x5e>
    4e96:	3c7c                	lbu	a5,31(s0)
    4e98:	02044583          	lbu	a1,32(s0)
    4e9c:	4018                	lw	a4,0(s0)
    4e9e:	4808                	lw	a0,16(s0)
    4ea0:	07a2                	slli	a5,a5,0x8
    4ea2:	8ddd                	or	a1,a1,a5
    4ea4:	9702                	jalr	a4
    4ea6:	ac48                	sb	a0,28(s0)
    4ea8:	fcafc06f          	j	1672 <i8080_execute+0x5e>
    4eac:	02144783          	lbu	a5,33(s0)
    4eb0:	3c74                	lbu	a3,31(s0)
    4eb2:	02244603          	lbu	a2,34(s0)
    4eb6:	02044583          	lbu	a1,32(s0)
    4eba:	06a2                	slli	a3,a3,0x8
    4ebc:	07a2                	slli	a5,a5,0x8
    4ebe:	02344703          	lbu	a4,35(s0)
    4ec2:	8ecd                	or	a3,a3,a1
    4ec4:	8fd1                	or	a5,a5,a2
    4ec6:	97b6                	add	a5,a5,a3
    4ec8:	0107d693          	srli	a3,a5,0x10
    4ecc:	07c2                	slli	a5,a5,0x10
    4ece:	83c1                	srli	a5,a5,0x10
    4ed0:	0692                	slli	a3,a3,0x4
    4ed2:	9b3d                	andi	a4,a4,-17
    4ed4:	8f55                	or	a4,a4,a3
    4ed6:	0087d693          	srli	a3,a5,0x8
    4eda:	02e401a3          	sb	a4,35(s0)
    4ede:	02d400a3          	sb	a3,33(s0)
    4ee2:	02f40123          	sb	a5,34(s0)
    4ee6:	f8cfc06f          	j	1672 <i8080_execute+0x5e>
    4eea:	2c5c                	lbu	a5,28(s0)
    4eec:	5014                	lw	a3,32(s0)
    4eee:	02344703          	lbu	a4,35(s0)
    4ef2:	0077d613          	srli	a2,a5,0x7
    4ef6:	82f1                	srli	a3,a3,0x1c
    4ef8:	8a85                	andi	a3,a3,1
    4efa:	0612                	slli	a2,a2,0x4
    4efc:	9b3d                	andi	a4,a4,-17
    4efe:	0786                	slli	a5,a5,0x1
    4f00:	8f51                	or	a4,a4,a2
    4f02:	8fd5                	or	a5,a5,a3
    4f04:	02e401a3          	sb	a4,35(s0)
    4f08:	ac5c                	sb	a5,28(s0)
    4f0a:	f68fc06f          	j	1672 <i8080_execute+0x5e>
    4f0e:	2c0e                	lhu	a1,24(s0)
    4f10:	401c                	lw	a5,0(s0)
    4f12:	4808                	lw	a0,16(s0)
    4f14:	00158713          	addi	a4,a1,1
    4f18:	ac1a                	sh	a4,24(s0)
    4f1a:	9782                	jalr	a5
    4f1c:	bc68                	sb	a0,31(s0)
    4f1e:	f54fc06f          	j	1672 <i8080_execute+0x5e>
    4f22:	3c70                	lbu	a2,31(s0)
    4f24:	02344703          	lbu	a4,35(s0)
    4f28:	4781                	li	a5,0
    4f2a:	167d                	addi	a2,a2,-1
    4f2c:	0ff67613          	andi	a2,a2,255
    4f30:	00f67693          	andi	a3,a2,15
    4f34:	16c5                	addi	a3,a3,-15
    4f36:	00d036b3          	snez	a3,a3
    4f3a:	068a                	slli	a3,a3,0x2
    4f3c:	0f977713          	andi	a4,a4,249
    4f40:	00163593          	seqz	a1,a2
    4f44:	0586                	slli	a1,a1,0x1
    4f46:	8f55                	or	a4,a4,a3
    4f48:	8f4d                	or	a4,a4,a1
    4f4a:	00765693          	srli	a3,a2,0x7
    4f4e:	9b79                	andi	a4,a4,-2
    4f50:	8f55                	or	a4,a4,a3
    4f52:	02e401a3          	sb	a4,35(s0)
    4f56:	45a1                	li	a1,8
    4f58:	4701                	li	a4,0
    4f5a:	40e656b3          	sra	a3,a2,a4
    4f5e:	8a85                	andi	a3,a3,1
    4f60:	97b6                	add	a5,a5,a3
    4f62:	0705                	addi	a4,a4,1
    4f64:	0ff7f793          	andi	a5,a5,255
    4f68:	feb719e3          	bne	a4,a1,4f5a <i8080_execute+0x3946>
    4f6c:	02344703          	lbu	a4,35(s0)
    4f70:	fff7c793          	not	a5,a5
    4f74:	8b85                	andi	a5,a5,1
    4f76:	078e                	slli	a5,a5,0x3
    4f78:	9b5d                	andi	a4,a4,-9
    4f7a:	8fd9                	or	a5,a5,a4
    4f7c:	02f401a3          	sb	a5,35(s0)
    4f80:	bc70                	sb	a2,31(s0)
    4f82:	ef0fc06f          	j	1672 <i8080_execute+0x5e>
    4f86:	3c70                	lbu	a2,31(s0)
    4f88:	02344703          	lbu	a4,35(s0)
    4f8c:	4781                	li	a5,0
    4f8e:	0605                	addi	a2,a2,1
    4f90:	0ff67613          	andi	a2,a2,255
    4f94:	00f67693          	andi	a3,a2,15
    4f98:	0016b693          	seqz	a3,a3
    4f9c:	068a                	slli	a3,a3,0x2
    4f9e:	0f977713          	andi	a4,a4,249
    4fa2:	00163593          	seqz	a1,a2
    4fa6:	0586                	slli	a1,a1,0x1
    4fa8:	8f55                	or	a4,a4,a3
    4faa:	8f4d                	or	a4,a4,a1
    4fac:	00765693          	srli	a3,a2,0x7
    4fb0:	9b79                	andi	a4,a4,-2
    4fb2:	8f55                	or	a4,a4,a3
    4fb4:	02e401a3          	sb	a4,35(s0)
    4fb8:	45a1                	li	a1,8
    4fba:	4701                	li	a4,0
    4fbc:	40e656b3          	sra	a3,a2,a4
    4fc0:	8a85                	andi	a3,a3,1
    4fc2:	97b6                	add	a5,a5,a3
    4fc4:	0705                	addi	a4,a4,1
    4fc6:	0ff7f793          	andi	a5,a5,255
    4fca:	feb719e3          	bne	a4,a1,4fbc <i8080_execute+0x39a8>
    4fce:	02344703          	lbu	a4,35(s0)
    4fd2:	fff7c793          	not	a5,a5
    4fd6:	8b85                	andi	a5,a5,1
    4fd8:	078e                	slli	a5,a5,0x3
    4fda:	9b5d                	andi	a4,a4,-9
    4fdc:	8fd9                	or	a5,a5,a4
    4fde:	02f401a3          	sb	a5,35(s0)
    4fe2:	bc70                	sb	a2,31(s0)
    4fe4:	e8efc06f          	j	1672 <i8080_execute+0x5e>
    4fe8:	3c7c                	lbu	a5,31(s0)
    4fea:	02044703          	lbu	a4,32(s0)
    4fee:	07a2                	slli	a5,a5,0x8
    4ff0:	8fd9                	or	a5,a5,a4
    4ff2:	0785                	addi	a5,a5,1
    4ff4:	07c2                	slli	a5,a5,0x10
    4ff6:	83c1                	srli	a5,a5,0x10
    4ff8:	0087d713          	srli	a4,a5,0x8
    4ffc:	bc78                	sb	a4,31(s0)
    4ffe:	02f40023          	sb	a5,32(s0)
    5002:	e70fc06f          	j	1672 <i8080_execute+0x5e>
    5006:	3c7c                	lbu	a5,31(s0)
    5008:	02044583          	lbu	a1,32(s0)
    500c:	4058                	lw	a4,4(s0)
    500e:	2c50                	lbu	a2,28(s0)
    5010:	4808                	lw	a0,16(s0)
    5012:	07a2                	slli	a5,a5,0x8
    5014:	8ddd                	or	a1,a1,a5
    5016:	9702                	jalr	a4
    5018:	e5afc06f          	j	1672 <i8080_execute+0x5e>
    501c:	01845903          	lhu	s2,24(s0)
    5020:	401c                	lw	a5,0(s0)
    5022:	4808                	lw	a0,16(s0)
    5024:	00190593          	addi	a1,s2,1
    5028:	05c2                	slli	a1,a1,0x10
    502a:	81c1                	srli	a1,a1,0x10
    502c:	9782                	jalr	a5
    502e:	84aa                	mv	s1,a0
    5030:	401c                	lw	a5,0(s0)
    5032:	4808                	lw	a0,16(s0)
    5034:	85ca                	mv	a1,s2
    5036:	04a2                	slli	s1,s1,0x8
    5038:	9782                	jalr	a5
    503a:	8cc9                	or	s1,s1,a0
    503c:	01049793          	slli	a5,s1,0x10
    5040:	2c16                	lhu	a3,24(s0)
    5042:	87c1                	srai	a5,a5,0x10
    5044:	01079713          	slli	a4,a5,0x10
    5048:	8341                	srli	a4,a4,0x10
    504a:	0689                	addi	a3,a3,2
    504c:	8321                	srli	a4,a4,0x8
    504e:	ac16                	sh	a3,24(s0)
    5050:	bc78                	sb	a4,31(s0)
    5052:	02f40023          	sb	a5,32(s0)
    5056:	e1cfc06f          	j	1672 <i8080_execute+0x5e>
    505a:	2c5c                	lbu	a5,28(s0)
    505c:	02344703          	lbu	a4,35(s0)
    5060:	0017f693          	andi	a3,a5,1
    5064:	00469613          	slli	a2,a3,0x4
    5068:	9b3d                	andi	a4,a4,-17
    506a:	8385                	srli	a5,a5,0x1
    506c:	069e                	slli	a3,a3,0x7
    506e:	8f51                	or	a4,a4,a2
    5070:	8fd5                	or	a5,a5,a3
    5072:	02e401a3          	sb	a4,35(s0)
    5076:	ac5c                	sb	a5,28(s0)
    5078:	dfafc06f          	j	1672 <i8080_execute+0x5e>
    507c:	2c0e                	lhu	a1,24(s0)
    507e:	401c                	lw	a5,0(s0)
    5080:	4808                	lw	a0,16(s0)
    5082:	00158713          	addi	a4,a1,1
    5086:	ac1a                	sh	a4,24(s0)
    5088:	9782                	jalr	a5
    508a:	ac68                	sb	a0,30(s0)
    508c:	de6fc06f          	j	1672 <i8080_execute+0x5e>
    5090:	2c70                	lbu	a2,30(s0)
    5092:	02344703          	lbu	a4,35(s0)
    5096:	4781                	li	a5,0
    5098:	167d                	addi	a2,a2,-1
    509a:	0ff67613          	andi	a2,a2,255
    509e:	00f67693          	andi	a3,a2,15
    50a2:	16c5                	addi	a3,a3,-15
    50a4:	00d036b3          	snez	a3,a3
    50a8:	068a                	slli	a3,a3,0x2
    50aa:	0f977713          	andi	a4,a4,249
    50ae:	00163593          	seqz	a1,a2
    50b2:	0586                	slli	a1,a1,0x1
    50b4:	8f55                	or	a4,a4,a3
    50b6:	8f4d                	or	a4,a4,a1
    50b8:	00765693          	srli	a3,a2,0x7
    50bc:	9b79                	andi	a4,a4,-2
    50be:	8f55                	or	a4,a4,a3
    50c0:	02e401a3          	sb	a4,35(s0)
    50c4:	45a1                	li	a1,8
    50c6:	4701                	li	a4,0
    50c8:	40e656b3          	sra	a3,a2,a4
    50cc:	8a85                	andi	a3,a3,1
    50ce:	97b6                	add	a5,a5,a3
    50d0:	0705                	addi	a4,a4,1
    50d2:	0ff7f793          	andi	a5,a5,255
    50d6:	feb719e3          	bne	a4,a1,50c8 <i8080_execute+0x3ab4>
    50da:	02344703          	lbu	a4,35(s0)
    50de:	fff7c793          	not	a5,a5
    50e2:	8b85                	andi	a5,a5,1
    50e4:	078e                	slli	a5,a5,0x3
    50e6:	9b5d                	andi	a4,a4,-9
    50e8:	8fd9                	or	a5,a5,a4
    50ea:	02f401a3          	sb	a5,35(s0)
    50ee:	ac70                	sb	a2,30(s0)
    50f0:	d82fc06f          	j	1672 <i8080_execute+0x5e>
    50f4:	2c70                	lbu	a2,30(s0)
    50f6:	02344703          	lbu	a4,35(s0)
    50fa:	4781                	li	a5,0
    50fc:	0605                	addi	a2,a2,1
    50fe:	0ff67613          	andi	a2,a2,255
    5102:	00f67693          	andi	a3,a2,15
    5106:	0016b693          	seqz	a3,a3
    510a:	068a                	slli	a3,a3,0x2
    510c:	0f977713          	andi	a4,a4,249
    5110:	00163593          	seqz	a1,a2
    5114:	0586                	slli	a1,a1,0x1
    5116:	8f55                	or	a4,a4,a3
    5118:	8f4d                	or	a4,a4,a1
    511a:	00765693          	srli	a3,a2,0x7
    511e:	9b79                	andi	a4,a4,-2
    5120:	8f55                	or	a4,a4,a3
    5122:	02e401a3          	sb	a4,35(s0)
    5126:	45a1                	li	a1,8
    5128:	4701                	li	a4,0
    512a:	40e656b3          	sra	a3,a2,a4
    512e:	8a85                	andi	a3,a3,1
    5130:	97b6                	add	a5,a5,a3
    5132:	0705                	addi	a4,a4,1
    5134:	0ff7f793          	andi	a5,a5,255
    5138:	feb719e3          	bne	a4,a1,512a <i8080_execute+0x3b16>
    513c:	02344703          	lbu	a4,35(s0)
    5140:	fff7c793          	not	a5,a5
    5144:	8b85                	andi	a5,a5,1
    5146:	078e                	slli	a5,a5,0x3
    5148:	9b5d                	andi	a4,a4,-9
    514a:	8fd9                	or	a5,a5,a4
    514c:	02f401a3          	sb	a5,35(s0)
    5150:	ac70                	sb	a2,30(s0)
    5152:	d20fc06f          	j	1672 <i8080_execute+0x5e>
    5156:	3c5c                	lbu	a5,29(s0)
    5158:	2c78                	lbu	a4,30(s0)
    515a:	07a2                	slli	a5,a5,0x8
    515c:	8fd9                	or	a5,a5,a4
    515e:	17fd                	addi	a5,a5,-1
    5160:	07c2                	slli	a5,a5,0x10
    5162:	83c1                	srli	a5,a5,0x10
    5164:	0087d713          	srli	a4,a5,0x8
    5168:	bc58                	sb	a4,29(s0)
    516a:	ac7c                	sb	a5,30(s0)
    516c:	d06fc06f          	j	1672 <i8080_execute+0x5e>
    5170:	3c5c                	lbu	a5,29(s0)
    5172:	2c6c                	lbu	a1,30(s0)
    5174:	4018                	lw	a4,0(s0)
    5176:	4808                	lw	a0,16(s0)
    5178:	07a2                	slli	a5,a5,0x8
    517a:	8ddd                	or	a1,a1,a5
    517c:	9702                	jalr	a4
    517e:	ac48                	sb	a0,28(s0)
    5180:	cf2fc06f          	j	1672 <i8080_execute+0x5e>
    5184:	02144783          	lbu	a5,33(s0)
    5188:	3c54                	lbu	a3,29(s0)
    518a:	02244603          	lbu	a2,34(s0)
    518e:	2c6c                	lbu	a1,30(s0)
    5190:	06a2                	slli	a3,a3,0x8
    5192:	07a2                	slli	a5,a5,0x8
    5194:	02344703          	lbu	a4,35(s0)
    5198:	8ecd                	or	a3,a3,a1
    519a:	8fd1                	or	a5,a5,a2
    519c:	97b6                	add	a5,a5,a3
    519e:	0107d693          	srli	a3,a5,0x10
    51a2:	07c2                	slli	a5,a5,0x10
    51a4:	83c1                	srli	a5,a5,0x10
    51a6:	0692                	slli	a3,a3,0x4
    51a8:	9b3d                	andi	a4,a4,-17
    51aa:	8f55                	or	a4,a4,a3
    51ac:	0087d693          	srli	a3,a5,0x8
    51b0:	02e401a3          	sb	a4,35(s0)
    51b4:	02d400a3          	sb	a3,33(s0)
    51b8:	02f40123          	sb	a5,34(s0)
    51bc:	cb6fc06f          	j	1672 <i8080_execute+0x5e>
    51c0:	2c26                	lhu	s1,26(s0)
    51c2:	01845903          	lhu	s2,24(s0)
    51c6:	4808                	lw	a0,16(s0)
    51c8:	ffe48793          	addi	a5,s1,-2
    51cc:	4058                	lw	a4,4(s0)
    51ce:	07c2                	slli	a5,a5,0x10
    51d0:	83c1                	srli	a5,a5,0x10
    51d2:	85be                	mv	a1,a5
    51d4:	0ff97613          	andi	a2,s2,255
    51d8:	ac3e                	sh	a5,26(s0)
    51da:	9702                	jalr	a4
    51dc:	405c                	lw	a5,4(s0)
    51de:	4808                	lw	a0,16(s0)
    51e0:	fff48593          	addi	a1,s1,-1
    51e4:	05c2                	slli	a1,a1,0x10
    51e6:	00895613          	srli	a2,s2,0x8
    51ea:	81c1                	srli	a1,a1,0x10
    51ec:	9782                	jalr	a5
    51ee:	03800793          	li	a5,56
    51f2:	ac1e                	sh	a5,24(s0)
    51f4:	c7efc06f          	j	1672 <i8080_execute+0x5e>
    51f8:	2c5c                	lbu	a5,28(s0)
    51fa:	02344703          	lbu	a4,35(s0)
    51fe:	0077d693          	srli	a3,a5,0x7
    5202:	00469613          	slli	a2,a3,0x4
    5206:	9b3d                	andi	a4,a4,-17
    5208:	0786                	slli	a5,a5,0x1
    520a:	8f51                	or	a4,a4,a2
    520c:	8fd5                	or	a5,a5,a3
    520e:	02e401a3          	sb	a4,35(s0)
    5212:	ac5c                	sb	a5,28(s0)
    5214:	c5efc06f          	j	1672 <i8080_execute+0x5e>
    5218:	2c0e                	lhu	a1,24(s0)
    521a:	401c                	lw	a5,0(s0)
    521c:	4808                	lw	a0,16(s0)
    521e:	00158713          	addi	a4,a1,1
    5222:	ac1a                	sh	a4,24(s0)
    5224:	9782                	jalr	a5
    5226:	bc48                	sb	a0,29(s0)
    5228:	c4afc06f          	j	1672 <i8080_execute+0x5e>
    522c:	3c50                	lbu	a2,29(s0)
    522e:	02344703          	lbu	a4,35(s0)
    5232:	4781                	li	a5,0
    5234:	167d                	addi	a2,a2,-1
    5236:	0ff67613          	andi	a2,a2,255
    523a:	00f67693          	andi	a3,a2,15
    523e:	16c5                	addi	a3,a3,-15
    5240:	00d036b3          	snez	a3,a3
    5244:	068a                	slli	a3,a3,0x2
    5246:	0f977713          	andi	a4,a4,249
    524a:	00163593          	seqz	a1,a2
    524e:	0586                	slli	a1,a1,0x1
    5250:	8f55                	or	a4,a4,a3
    5252:	8f4d                	or	a4,a4,a1
    5254:	00765693          	srli	a3,a2,0x7
    5258:	9b79                	andi	a4,a4,-2
    525a:	8f55                	or	a4,a4,a3
    525c:	02e401a3          	sb	a4,35(s0)
    5260:	45a1                	li	a1,8
    5262:	4701                	li	a4,0
    5264:	40e656b3          	sra	a3,a2,a4
    5268:	8a85                	andi	a3,a3,1
    526a:	97b6                	add	a5,a5,a3
    526c:	0705                	addi	a4,a4,1
    526e:	0ff7f793          	andi	a5,a5,255
    5272:	feb719e3          	bne	a4,a1,5264 <i8080_execute+0x3c50>
    5276:	02344703          	lbu	a4,35(s0)
    527a:	fff7c793          	not	a5,a5
    527e:	8b85                	andi	a5,a5,1
    5280:	078e                	slli	a5,a5,0x3
    5282:	9b5d                	andi	a4,a4,-9
    5284:	8fd9                	or	a5,a5,a4
    5286:	02f401a3          	sb	a5,35(s0)
    528a:	bc50                	sb	a2,29(s0)
    528c:	be6fc06f          	j	1672 <i8080_execute+0x5e>
    5290:	3c50                	lbu	a2,29(s0)
    5292:	02344703          	lbu	a4,35(s0)
    5296:	4781                	li	a5,0
    5298:	0605                	addi	a2,a2,1
    529a:	0ff67613          	andi	a2,a2,255
    529e:	00f67693          	andi	a3,a2,15
    52a2:	0016b693          	seqz	a3,a3
    52a6:	068a                	slli	a3,a3,0x2
    52a8:	0f977713          	andi	a4,a4,249
    52ac:	00163593          	seqz	a1,a2
    52b0:	0586                	slli	a1,a1,0x1
    52b2:	8f55                	or	a4,a4,a3
    52b4:	8f4d                	or	a4,a4,a1
    52b6:	00765693          	srli	a3,a2,0x7
    52ba:	9b79                	andi	a4,a4,-2
    52bc:	8f55                	or	a4,a4,a3
    52be:	02e401a3          	sb	a4,35(s0)
    52c2:	45a1                	li	a1,8
    52c4:	4701                	li	a4,0
    52c6:	40e656b3          	sra	a3,a2,a4
    52ca:	8a85                	andi	a3,a3,1
    52cc:	97b6                	add	a5,a5,a3
    52ce:	0705                	addi	a4,a4,1
    52d0:	0ff7f793          	andi	a5,a5,255
    52d4:	feb719e3          	bne	a4,a1,52c6 <i8080_execute+0x3cb2>
    52d8:	02344703          	lbu	a4,35(s0)
    52dc:	fff7c793          	not	a5,a5
    52e0:	8b85                	andi	a5,a5,1
    52e2:	078e                	slli	a5,a5,0x3
    52e4:	9b5d                	andi	a4,a4,-9
    52e6:	8fd9                	or	a5,a5,a4
    52e8:	02f401a3          	sb	a5,35(s0)
    52ec:	bc50                	sb	a2,29(s0)
    52ee:	b84fc06f          	j	1672 <i8080_execute+0x5e>
    52f2:	3c5c                	lbu	a5,29(s0)
    52f4:	2c78                	lbu	a4,30(s0)
    52f6:	07a2                	slli	a5,a5,0x8
    52f8:	8fd9                	or	a5,a5,a4
    52fa:	0785                	addi	a5,a5,1
    52fc:	07c2                	slli	a5,a5,0x10
    52fe:	83c1                	srli	a5,a5,0x10
    5300:	0087d713          	srli	a4,a5,0x8
    5304:	bc58                	sb	a4,29(s0)
    5306:	ac7c                	sb	a5,30(s0)
    5308:	b6afc06f          	j	1672 <i8080_execute+0x5e>
    530c:	3c5c                	lbu	a5,29(s0)
    530e:	2c6c                	lbu	a1,30(s0)
    5310:	4058                	lw	a4,4(s0)
    5312:	2c50                	lbu	a2,28(s0)
    5314:	4808                	lw	a0,16(s0)
    5316:	07a2                	slli	a5,a5,0x8
    5318:	8ddd                	or	a1,a1,a5
    531a:	9702                	jalr	a4
    531c:	b56fc06f          	j	1672 <i8080_execute+0x5e>
    5320:	01845903          	lhu	s2,24(s0)
    5324:	401c                	lw	a5,0(s0)
    5326:	4808                	lw	a0,16(s0)
    5328:	00190593          	addi	a1,s2,1
    532c:	05c2                	slli	a1,a1,0x10
    532e:	81c1                	srli	a1,a1,0x10
    5330:	9782                	jalr	a5
    5332:	84aa                	mv	s1,a0
    5334:	401c                	lw	a5,0(s0)
    5336:	4808                	lw	a0,16(s0)
    5338:	85ca                	mv	a1,s2
    533a:	04a2                	slli	s1,s1,0x8
    533c:	9782                	jalr	a5
    533e:	8cc9                	or	s1,s1,a0
    5340:	01049793          	slli	a5,s1,0x10
    5344:	2c16                	lhu	a3,24(s0)
    5346:	87c1                	srai	a5,a5,0x10
    5348:	01079713          	slli	a4,a5,0x10
    534c:	8341                	srli	a4,a4,0x10
    534e:	0689                	addi	a3,a3,2
    5350:	8321                	srli	a4,a4,0x8
    5352:	ac16                	sh	a3,24(s0)
    5354:	bc58                	sb	a4,29(s0)
    5356:	ac7c                	sb	a5,30(s0)
    5358:	b1afc06f          	j	1672 <i8080_execute+0x5e>
    535c:	0922                	slli	s2,s2,0x8
    535e:	00a96933          	or	s2,s2,a0
    5362:	01241c23          	sh	s2,24(s0)
    5366:	b0cfc06f          	j	1672 <i8080_execute+0x5e>
    536a:	0922                	slli	s2,s2,0x8
    536c:	00a96933          	or	s2,s2,a0
    5370:	01241c23          	sh	s2,24(s0)
    5374:	afefc06f          	j	1672 <i8080_execute+0x5e>
    5378:	0922                	slli	s2,s2,0x8
    537a:	00a96933          	or	s2,s2,a0
    537e:	01241c23          	sh	s2,24(s0)
    5382:	af0fc06f          	j	1672 <i8080_execute+0x5e>
    5386:	0922                	slli	s2,s2,0x8
    5388:	00a96933          	or	s2,s2,a0
    538c:	01241c23          	sh	s2,24(s0)
    5390:	ae2fc06f          	j	1672 <i8080_execute+0x5e>
    5394:	0922                	slli	s2,s2,0x8
    5396:	00a96933          	or	s2,s2,a0
    539a:	01241c23          	sh	s2,24(s0)
    539e:	ad4fc06f          	j	1672 <i8080_execute+0x5e>
    53a2:	0922                	slli	s2,s2,0x8
    53a4:	00a96933          	or	s2,s2,a0
    53a8:	01241c23          	sh	s2,24(s0)
    53ac:	ac6fc06f          	j	1672 <i8080_execute+0x5e>
    53b0:	0922                	slli	s2,s2,0x8
    53b2:	00a96933          	or	s2,s2,a0
    53b6:	01241c23          	sh	s2,24(s0)
    53ba:	ab8fc06f          	j	1672 <i8080_execute+0x5e>
    53be:	0922                	slli	s2,s2,0x8
    53c0:	00a96933          	or	s2,s2,a0
    53c4:	01241c23          	sh	s2,24(s0)
    53c8:	aaafc06f          	j	1672 <i8080_execute+0x5e>

000053cc <i8080_init>:
    53cc:	00052023          	sw	zero,0(a0)
    53d0:	00052223          	sw	zero,4(a0)
    53d4:	00052423          	sw	zero,8(a0)
    53d8:	00052623          	sw	zero,12(a0)
    53dc:	00052823          	sw	zero,16(a0)
    53e0:	00052a23          	sw	zero,20(a0)
    53e4:	00052c23          	sw	zero,24(a0)
    53e8:	00052e23          	sw	zero,28(a0)
    53ec:	02052023          	sw	zero,32(a0)
    53f0:	02051223          	sh	zero,36(a0)
    53f4:	8082                	ret

000053f6 <i8080_step>:
    53f6:	d7bfa2ef          	jal	t0,170 <__riscv_save_0>
    53fa:	5118                	lw	a4,32(a0)
    53fc:	a00007b7          	lui	a5,0xa0000
    5400:	842a                	mv	s0,a0
    5402:	00e7f6b3          	and	a3,a5,a4
    5406:	02f68363          	beq	a3,a5,542c <i8080_step+0x36>
    540a:	00171793          	slli	a5,a4,0x1
    540e:	0007cd63          	bltz	a5,5428 <i8080_step+0x32>
    5412:	2c0e                	lhu	a1,24(s0)
    5414:	401c                	lw	a5,0(s0)
    5416:	4808                	lw	a0,16(s0)
    5418:	00158713          	addi	a4,a1,1
    541c:	ac1a                	sh	a4,24(s0)
    541e:	9782                	jalr	a5
    5420:	85aa                	mv	a1,a0
    5422:	8522                	mv	a0,s0
    5424:	9f0fc0ef          	jal	ra,1614 <i8080_execute>
    5428:	d6dfa06f          	j	194 <__riscv_restore_0>
    542c:	02554783          	lbu	a5,37(a0)
    5430:	ffe9                	bnez	a5,540a <i8080_step+0x14>
    5432:	02354783          	lbu	a5,35(a0)
    5436:	02454583          	lbu	a1,36(a0)
    543a:	8bfd                	andi	a5,a5,31
    543c:	02f501a3          	sb	a5,35(a0)
    5440:	9d4fc0ef          	jal	ra,1614 <i8080_execute>
    5444:	d51fa06f          	j	194 <__riscv_restore_0>

00005448 <i8080_interrupt>:
    5448:	02354783          	lbu	a5,35(a0)
    544c:	02b50223          	sb	a1,36(a0)
    5450:	f807e793          	ori	a5,a5,-128
    5454:	02f501a3          	sb	a5,35(a0)
    5458:	8082                	ret

0000545a <ioread>:
    545a:	898d                	andi	a1,a1,3
    545c:	c991                	beqz	a1,5470 <ioread+0x16>
    545e:	4789                	li	a5,2
    5460:	00f59563          	bne	a1,a5,546a <ioread+0x10>
    5464:	8ae1c503          	lbu	a0,-1874(gp) # 2000011e <tk80ppi+0x2>
    5468:	8082                	ret
    546a:	0ff00513          	li	a0,255
    546e:	8082                	ret
    5470:	8ae1c783          	lbu	a5,-1874(gp) # 2000011e <tk80ppi+0x2>
    5474:	0107f713          	andi	a4,a5,16
    5478:	cf19                	beqz	a4,5496 <ioread+0x3c>
    547a:	0207f713          	andi	a4,a5,32
    547e:	cb09                	beqz	a4,5490 <ioread+0x36>
    5480:	0407f793          	andi	a5,a5,64
    5484:	0ff00513          	li	a0,255
    5488:	f3e5                	bnez	a5,5468 <ioread+0xe>
    548a:	8aa1c503          	lbu	a0,-1878(gp) # 2000011a <tk80keypad+0x2>
    548e:	8082                	ret
    5490:	8a91c503          	lbu	a0,-1879(gp) # 20000119 <tk80keypad+0x1>
    5494:	8082                	ret
    5496:	8a81c503          	lbu	a0,-1880(gp) # 20000118 <tk80keypad>
    549a:	8082                	ret

0000549c <memread>:
    549c:	2ff00793          	li	a5,767
    54a0:	0ab7fb63          	bgeu	a5,a1,5556 <memread+0xba>
    54a4:	76fd                	lui	a3,0xfffff
    54a6:	40068793          	addi	a5,a3,1024 # fffff400 <_eusrstack+0xdfffa400>
    54aa:	97ae                	add	a5,a5,a1
    54ac:	07c2                	slli	a5,a5,0x10
    54ae:	6705                	lui	a4,0x1
    54b0:	83c1                	srli	a5,a5,0x10
    54b2:	dff70713          	addi	a4,a4,-513 # dff <USBH_EnumHidDevice+0x93>
    54b6:	02f77f63          	bgeu	a4,a5,54f4 <memread+0x58>
    54ba:	7761                	lui	a4,0xffff8
    54bc:	20870793          	addi	a5,a4,520 # ffff8208 <_eusrstack+0xdfff3208>
    54c0:	97ae                	add	a5,a5,a1
    54c2:	07c2                	slli	a5,a5,0x10
    54c4:	83c1                	srli	a5,a5,0x10
    54c6:	469d                	li	a3,7
    54c8:	08f6ee63          	bltu	a3,a5,5564 <memread+0xc8>
    54cc:	ca5fa2ef          	jal	t0,170 <__riscv_save_0>
    54d0:	67a1                	lui	a5,0x8
    54d2:	df978713          	addi	a4,a5,-519 # 7df9 <__sflush_r+0x12d>
    54d6:	0ee58463          	beq	a1,a4,55be <memread+0x122>
    54da:	02b77663          	bgeu	a4,a1,5506 <memread+0x6a>
    54de:	dfc78713          	addi	a4,a5,-516
    54e2:	0ce58663          	beq	a1,a4,55ae <memread+0x112>
    54e6:	dfe78793          	addi	a5,a5,-514
    54ea:	0af59e63          	bne	a1,a5,55a6 <memread+0x10a>
    54ee:	88e1c783          	lbu	a5,-1906(gp) # 200000fe <bsppi+0x2>
    54f2:	a85d                	j	55a8 <memread+0x10c>
    54f4:	67a1                	lui	a5,0x8
    54f6:	56878793          	addi	a5,a5,1384 # 8568 <bsext_rom>
    54fa:	95be                	add	a1,a1,a5
    54fc:	96ae                	add	a3,a3,a1
    54fe:	4006c783          	lbu	a5,1024(a3)
    5502:	853e                	mv	a0,a5
    5504:	8082                	ret
    5506:	df878793          	addi	a5,a5,-520
    550a:	08f59e63          	bne	a1,a5,55a6 <memread+0x10a>
    550e:	40020537          	lui	a0,0x40020
    5512:	06c50513          	addi	a0,a0,108 # 4002006c <_eusrstack+0x2001b06c>
    5516:	746010ef          	jal	ra,6c5c <DMA_GetCurrDataCounter>
    551a:	200006b7          	lui	a3,0x20000
    551e:	07068693          	addi	a3,a3,112 # 20000070 <lastptr>
    5522:	4290                	lw	a2,0(a3)
    5524:	08c50163          	beq	a0,a2,55a6 <memread+0x10a>
    5528:	89a18593          	addi	a1,gp,-1894 # 2000010a <rxptr>
    552c:	2198                	lbu	a4,0(a1)
    552e:	24018793          	addi	a5,gp,576 # 20000ab0 <rxbuff>
    5532:	97ba                	add	a5,a5,a4
    5534:	239c                	lbu	a5,0(a5)
    5536:	167d                	addi	a2,a2,-1
    5538:	0ff7f793          	andi	a5,a5,255
    553c:	e219                	bnez	a2,5542 <memread+0xa6>
    553e:	04000613          	li	a2,64
    5542:	0705                	addi	a4,a4,1
    5544:	c290                	sw	a2,0(a3)
    5546:	0ff77713          	andi	a4,a4,255
    554a:	03f00693          	li	a3,63
    554e:	0ae6ef63          	bltu	a3,a4,560c <memread+0x170>
    5552:	a198                	sb	a4,0(a1)
    5554:	a891                	j	55a8 <memread+0x10c>
    5556:	67b9                	lui	a5,0xe
    5558:	b6078793          	addi	a5,a5,-1184 # db60 <tk80rom>
    555c:	95be                	add	a1,a1,a5
    555e:	219c                	lbu	a5,0(a1)
    5560:	853e                	mv	a0,a5
    5562:	8082                	ret
    5564:	20070793          	addi	a5,a4,512
    5568:	97ae                	add	a5,a5,a1
    556a:	07c2                	slli	a5,a5,0x10
    556c:	83c1                	srli	a5,a5,0x10
    556e:	1ff00693          	li	a3,511
    5572:	02f6f363          	bgeu	a3,a5,5598 <memread+0xfc>
    5576:	67a1                	lui	a5,0x8
    5578:	8fad                	xor	a5,a5,a1
    557a:	6691                	lui	a3,0x4
    557c:	06d7e863          	bltu	a5,a3,55ec <memread+0x150>
    5580:	678d                	lui	a5,0x3
    5582:	97ae                	add	a5,a5,a1
    5584:	07c2                	slli	a5,a5,0x10
    5586:	83c1                	srli	a5,a5,0x10
    5588:	6709                	lui	a4,0x2
    558a:	06e7e963          	bltu	a5,a4,55fc <memread+0x160>
    558e:	67bd                	lui	a5,0xf
    5590:	04f5f663          	bgeu	a1,a5,55dc <memread+0x140>
    5594:	4781                	li	a5,0
    5596:	b7b5                	j	5502 <memread+0x66>
    5598:	01818793          	addi	a5,gp,24 # 20000888 <bsvram>
    559c:	95be                	add	a1,a1,a5
    559e:	972e                	add	a4,a4,a1
    55a0:	20074783          	lbu	a5,512(a4) # 2200 <i8080_execute+0xbec>
    55a4:	bfb9                	j	5502 <memread+0x66>
    55a6:	4781                	li	a5,0
    55a8:	853e                	mv	a0,a5
    55aa:	bebfa06f          	j	194 <__riscv_restore_0>
    55ae:	88c18713          	addi	a4,gp,-1908 # 200000fc <bsppi>
    55b2:	2334                	lbu	a3,2(a4)
    55b4:	231c                	lbu	a5,0(a4)
    55b6:	fdf6f693          	andi	a3,a3,-33
    55ba:	a334                	sb	a3,2(a4)
    55bc:	b7f5                	j	55a8 <memread+0x10c>
    55be:	40020537          	lui	a0,0x40020
    55c2:	06c50513          	addi	a0,a0,108 # 4002006c <_eusrstack+0x2001b06c>
    55c6:	696010ef          	jal	ra,6c5c <DMA_GetCurrDataCounter>
    55ca:	200007b7          	lui	a5,0x20000
    55ce:	0707a703          	lw	a4,112(a5) # 20000070 <lastptr>
    55d2:	479d                	li	a5,7
    55d4:	fce51ae3          	bne	a0,a4,55a8 <memread+0x10c>
    55d8:	4795                	li	a5,5
    55da:	b7f9                	j	55a8 <memread+0x10c>
    55dc:	67a9                	lui	a5,0xa
    55de:	36078793          	addi	a5,a5,864 # a360 <bsmonitor_rom>
    55e2:	95be                	add	a1,a1,a5
    55e4:	77c5                	lui	a5,0xffff1
    55e6:	95be                	add	a1,a1,a5
    55e8:	219c                	lbu	a5,0(a1)
    55ea:	bf21                	j	5502 <memread+0x66>
    55ec:	200017b7          	lui	a5,0x20001
    55f0:	af078793          	addi	a5,a5,-1296 # 20000af0 <tk80ram>
    55f4:	95be                	add	a1,a1,a5
    55f6:	972e                	add	a4,a4,a1
    55f8:	231c                	lbu	a5,0(a4)
    55fa:	b721                	j	5502 <memread+0x66>
    55fc:	67ad                	lui	a5,0xb
    55fe:	36078793          	addi	a5,a5,864 # b360 <l2basic_rom>
    5602:	95be                	add	a1,a1,a5
    5604:	77cd                	lui	a5,0xffff3
    5606:	95be                	add	a1,a1,a5
    5608:	219c                	lbu	a5,0(a1)
    560a:	bde5                	j	5502 <memread+0x66>
    560c:	00058023          	sb	zero,0(a1)
    5610:	bf61                	j	55a8 <memread+0x10c>

00005612 <memwrite>:
    5612:	7761                	lui	a4,0xffff8
    5614:	20870793          	addi	a5,a4,520 # ffff8208 <_eusrstack+0xdfff3208>
    5618:	97ae                	add	a5,a5,a1
    561a:	07c2                	slli	a5,a5,0x10
    561c:	83c1                	srli	a5,a5,0x10
    561e:	469d                	li	a3,7
    5620:	02f6e063          	bltu	a3,a5,5640 <memwrite+0x2e>
    5624:	67a1                	lui	a5,0x8
    5626:	dfe78713          	addi	a4,a5,-514 # 7dfe <_fflush_r>
    562a:	04e58f63          	beq	a1,a4,5688 <memwrite+0x76>
    562e:	dff78713          	addi	a4,a5,-513
    5632:	04e58e63          	beq	a1,a4,568e <memwrite+0x7c>
    5636:	df878793          	addi	a5,a5,-520
    563a:	04f58063          	beq	a1,a5,567a <memwrite+0x68>
    563e:	8082                	ret
    5640:	20070793          	addi	a5,a4,512
    5644:	97ae                	add	a5,a5,a1
    5646:	07c2                	slli	a5,a5,0x10
    5648:	83c1                	srli	a5,a5,0x10
    564a:	1ff00693          	li	a3,511
    564e:	00f6e963          	bltu	a3,a5,5660 <memwrite+0x4e>
    5652:	01818793          	addi	a5,gp,24 # 20000888 <bsvram>
    5656:	95be                	add	a1,a1,a5
    5658:	972e                	add	a4,a4,a1
    565a:	20c70023          	sb	a2,512(a4)
    565e:	8082                	ret
    5660:	67a1                	lui	a5,0x8
    5662:	8fad                	xor	a5,a5,a1
    5664:	6691                	lui	a3,0x4
    5666:	fcd7fce3          	bgeu	a5,a3,563e <memwrite+0x2c>
    566a:	200017b7          	lui	a5,0x20001
    566e:	af078793          	addi	a5,a5,-1296 # 20000af0 <tk80ram>
    5672:	95be                	add	a1,a1,a5
    5674:	95ba                	add	a1,a1,a4
    5676:	a190                	sb	a2,0(a1)
    5678:	8082                	ret
    567a:	af7fa2ef          	jal	t0,170 <__riscv_save_0>
    567e:	8532                	mv	a0,a2
    5680:	070020ef          	jal	ra,76f0 <putchar>
    5684:	b11fa06f          	j	194 <__riscv_restore_0>
    5688:	88c18723          	sb	a2,-1906(gp) # 200000fe <bsppi+0x2>
    568c:	8082                	ret
    568e:	01861793          	slli	a5,a2,0x18
    5692:	87e1                	srai	a5,a5,0x18
    5694:	fa07c5e3          	bltz	a5,563e <memwrite+0x2c>
    5698:	00165793          	srli	a5,a2,0x1
    569c:	0077f693          	andi	a3,a5,7
    56a0:	88c18713          	addi	a4,gp,-1908 # 200000fc <bsppi>
    56a4:	4785                	li	a5,1
    56a6:	8a05                	andi	a2,a2,1
    56a8:	00d797b3          	sll	a5,a5,a3
    56ac:	2334                	lbu	a3,2(a4)
    56ae:	e611                	bnez	a2,56ba <memwrite+0xa8>
    56b0:	fff7c793          	not	a5,a5
    56b4:	8ff5                	and	a5,a5,a3
    56b6:	a33c                	sb	a5,2(a4)
    56b8:	8082                	ret
    56ba:	8fd5                	or	a5,a5,a3
    56bc:	a33c                	sb	a5,2(a4)
    56be:	8082                	ret

000056c0 <iowrite>:
    56c0:	ab1fa2ef          	jal	t0,170 <__riscv_save_0>
    56c4:	898d                	andi	a1,a1,3
    56c6:	8ac18793          	addi	a5,gp,-1876 # 2000011c <tk80ppi>
    56ca:	00b78733          	add	a4,a5,a1
    56ce:	a310                	sb	a2,0(a4)
    56d0:	4709                	li	a4,2
    56d2:	02e58b63          	beq	a1,a4,5708 <iowrite+0x48>
    56d6:	470d                	li	a4,3
    56d8:	02e59663          	bne	a1,a4,5704 <iowrite+0x44>
    56dc:	01861713          	slli	a4,a2,0x18
    56e0:	8761                	srai	a4,a4,0x18
    56e2:	02074163          	bltz	a4,5704 <iowrite+0x44>
    56e6:	00165713          	srli	a4,a2,0x1
    56ea:	8b1d                	andi	a4,a4,7
    56ec:	4585                	li	a1,1
    56ee:	8a05                	andi	a2,a2,1
    56f0:	00e596b3          	sll	a3,a1,a4
    56f4:	23a8                	lbu	a0,2(a5)
    56f6:	e615                	bnez	a2,5722 <iowrite+0x62>
    56f8:	fff6c693          	not	a3,a3
    56fc:	8ee9                	and	a3,a3,a0
    56fe:	a3b4                	sb	a3,2(a5)
    5700:	00b70663          	beq	a4,a1,570c <iowrite+0x4c>
    5704:	a91fa06f          	j	194 <__riscv_restore_0>
    5708:	8a09                	andi	a2,a2,2
    570a:	e205                	bnez	a2,572a <iowrite+0x6a>
    570c:	40011537          	lui	a0,0x40011
    5710:	4601                	li	a2,0
    5712:	20000593          	li	a1,512
    5716:	c0050513          	addi	a0,a0,-1024 # 40010c00 <_eusrstack+0x2000bc00>
    571a:	652010ef          	jal	ra,6d6c <GPIO_WriteBit>
    571e:	a77fa06f          	j	194 <__riscv_restore_0>
    5722:	8ec9                	or	a3,a3,a0
    5724:	a3b4                	sb	a3,2(a5)
    5726:	fcb71fe3          	bne	a4,a1,5704 <iowrite+0x44>
    572a:	40011537          	lui	a0,0x40011
    572e:	4605                	li	a2,1
    5730:	20000593          	li	a1,512
    5734:	c0050513          	addi	a0,a0,-1024 # 40010c00 <_eusrstack+0x2000bc00>
    5738:	634010ef          	jal	ra,6d6c <GPIO_WriteBit>
    573c:	a59fa06f          	j	194 <__riscv_restore_0>

00005740 <video_init>:
    5740:	a17fa2ef          	jal	t0,156 <__riscv_save_4>
    5744:	6509                	lui	a0,0x2
    5746:	715d                	addi	sp,sp,-80
    5748:	4585                	li	a1,1
    574a:	80450513          	addi	a0,a0,-2044 # 1804 <i8080_execute+0x1f0>
    574e:	d602                	sw	zero,44(sp)
    5750:	d802                	sw	zero,48(sp)
    5752:	da02                	sw	zero,52(sp)
    5754:	dc02                	sw	zero,56(sp)
    5756:	ca02                	sw	zero,20(sp)
    5758:	cc02                	sw	zero,24(sp)
    575a:	00011e23          	sh	zero,28(sp)
    575e:	d002                	sw	zero,32(sp)
    5760:	d202                	sw	zero,36(sp)
    5762:	d402                	sw	zero,40(sp)
    5764:	de02                	sw	zero,60(sp)
    5766:	c082                	sw	zero,64(sp)
    5768:	c282                	sw	zero,68(sp)
    576a:	c482                	sw	zero,72(sp)
    576c:	04011623          	sh	zero,76(sp)
    5770:	c602                	sw	zero,12(sp)
    5772:	c802                	sw	zero,16(sp)
    5774:	7ee010ef          	jal	ra,6f62 <RCC_APB2PeriphClockCmd>
    5778:	40011437          	lui	s0,0x40011
    577c:	6785                	lui	a5,0x1
    577e:	4961                	li	s2,24
    5780:	448d                	li	s1,3
    5782:	100c                	addi	a1,sp,32
    5784:	80040513          	addi	a0,s0,-2048 # 40010800 <_eusrstack+0x2000b800>
    5788:	80078793          	addi	a5,a5,-2048 # 800 <KM_AnalyzeHidReportDesc+0xa6>
    578c:	02f11023          	sh	a5,32(sp)
    5790:	d44a                	sw	s2,40(sp)
    5792:	d226                	sw	s1,36(sp)
    5794:	4d0010ef          	jal	ra,6c64 <GPIO_Init>
    5798:	100c                	addi	a1,sp,32
    579a:	80040513          	addi	a0,s0,-2048
    579e:	08000793          	li	a5,128
    57a2:	02f11023          	sh	a5,32(sp)
    57a6:	d44a                	sw	s2,40(sp)
    57a8:	d226                	sw	s1,36(sp)
    57aa:	4ba010ef          	jal	ra,6c64 <GPIO_Init>
    57ae:	40013437          	lui	s0,0x40013
    57b2:	6785                	lui	a5,0x1
    57b4:	4985                	li	s3,1
    57b6:	084c                	addi	a1,sp,20
    57b8:	c0040513          	addi	a0,s0,-1024 # 40012c00 <_eusrstack+0x2000dc00>
    57bc:	bea78793          	addi	a5,a5,-1046 # bea <HUB_CheckPortSpeed+0x1c>
    57c0:	ca4e                	sw	s3,20(sp)
    57c2:	cc3e                	sw	a5,24(sp)
    57c4:	64c1                	lui	s1,0x10
    57c6:	04f010ef          	jal	ra,7014 <TIM_TimeBaseInit>
    57ca:	07048493          	addi	s1,s1,112 # 10070 <_data_lma+0x2070>
    57ce:	106c                	addi	a1,sp,44
    57d0:	c0040513          	addi	a0,s0,-1024
    57d4:	0e100793          	li	a5,225
    57d8:	d626                	sw	s1,44(sp)
    57da:	02f11923          	sh	a5,50(sp)
    57de:	02011a23          	sh	zero,52(sp)
    57e2:	161010ef          	jal	ra,7142 <TIM_OC4Init>
    57e6:	1c200793          	li	a5,450
    57ea:	106c                	addi	a1,sp,44
    57ec:	c0040513          	addi	a0,s0,-1024
    57f0:	02f11923          	sh	a5,50(sp)
    57f4:	d626                	sw	s1,44(sp)
    57f6:	02011a23          	sh	zero,52(sp)
    57fa:	09b010ef          	jal	ra,7094 <TIM_OC3Init>
    57fe:	c0040513          	addi	a0,s0,-1024
    5802:	4585                	li	a1,1
    5804:	1db010ef          	jal	ra,71de <TIM_CtrlPWMOutputs>
    5808:	c0040513          	addi	a0,s0,-1024
    580c:	4581                	li	a1,0
    580e:	21b010ef          	jal	ra,7228 <TIM_OC3PreloadConfig>
    5812:	c0040513          	addi	a0,s0,-1024
    5816:	4581                	li	a1,0
    5818:	21f010ef          	jal	ra,7236 <TIM_OC4PreloadConfig>
    581c:	c0040513          	addi	a0,s0,-1024
    5820:	4585                	li	a1,1
    5822:	1eb010ef          	jal	ra,720c <TIM_ARRPreloadConfig>
    5826:	c0040513          	addi	a0,s0,-1024
    582a:	4585                	li	a1,1
    582c:	199010ef          	jal	ra,71c4 <TIM_Cmd>
    5830:	0104c7b7          	lui	a5,0x104c
    5834:	de3e                	sw	a5,60(sp)
    5836:	000207b7          	lui	a5,0x20
    583a:	c0be                	sw	a5,64(sp)
    583c:	020007b7          	lui	a5,0x2000
    5840:	186c                	addi	a1,sp,60
    5842:	c2be                	sw	a5,68(sp)
    5844:	40013537          	lui	a0,0x40013
    5848:	479d                	li	a5,7
    584a:	04f11623          	sh	a5,76(sp)
    584e:	c4ca                	sw	s2,72(sp)
    5850:	74e010ef          	jal	ra,6f9e <SPI_Init>
    5854:	4605                	li	a2,1
    5856:	4589                	li	a1,2
    5858:	40013537          	lui	a0,0x40013
    585c:	7a4010ef          	jal	ra,7000 <SPI_I2S_DMACmd>
    5860:	4585                	li	a1,1
    5862:	40013537          	lui	a0,0x40013
    5866:	77e010ef          	jal	ra,6fe4 <SPI_Cmd>
    586a:	22b00793          	li	a5,555
    586e:	0068                	addi	a0,sp,12
    5870:	867c                	sh	a5,12(sp)
    5872:	c84e                	sw	s3,16(sp)
    5874:	00010723          	sb	zero,14(sp)
    5878:	516010ef          	jal	ra,6d8e <NVIC_Init>
    587c:	4605                	li	a2,1
    587e:	45a1                	li	a1,8
    5880:	c0040513          	addi	a0,s0,-1024
    5884:	175010ef          	jal	ra,71f8 <TIM_ITConfig>
    5888:	02100513          	li	a0,33
    588c:	41f010ef          	jal	ra,74aa <malloc>
    5890:	84aa                	mv	s1,a0
    5892:	89c18413          	addi	s0,gp,-1892 # 2000010c <scandata>
    5896:	02100513          	li	a0,33
    589a:	c004                	sw	s1,0(s0)
    589c:	40f010ef          	jal	ra,74aa <malloc>
    58a0:	c048                	sw	a0,4(s0)
    58a2:	02048023          	sb	zero,32(s1)
    58a6:	02050023          	sb	zero,32(a0) # 40013020 <_eusrstack+0x2000e020>
    58aa:	6161                	addi	sp,sp,80
    58ac:	8dffa06f          	j	18a <__riscv_restore_4>

000058b0 <DMA_Tx_Init>:
    58b0:	8a7fa2ef          	jal	t0,156 <__riscv_save_4>
    58b4:	7179                	addi	sp,sp,-48
    58b6:	842a                	mv	s0,a0
    58b8:	89ae                	mv	s3,a1
    58ba:	4505                	li	a0,1
    58bc:	4585                	li	a1,1
    58be:	8932                	mv	s2,a2
    58c0:	84b6                	mv	s1,a3
    58c2:	c202                	sw	zero,4(sp)
    58c4:	c402                	sw	zero,8(sp)
    58c6:	c602                	sw	zero,12(sp)
    58c8:	c802                	sw	zero,16(sp)
    58ca:	ca02                	sw	zero,20(sp)
    58cc:	cc02                	sw	zero,24(sp)
    58ce:	ce02                	sw	zero,28(sp)
    58d0:	d002                	sw	zero,32(sp)
    58d2:	d202                	sw	zero,36(sp)
    58d4:	d402                	sw	zero,40(sp)
    58d6:	d602                	sw	zero,44(sp)
    58d8:	66c010ef          	jal	ra,6f44 <RCC_AHBPeriphClockCmd>
    58dc:	8522                	mv	a0,s0
    58de:	278010ef          	jal	ra,6b56 <DMA_DeInit>
    58e2:	47c1                	li	a5,16
    58e4:	c63e                	sw	a5,12(sp)
    58e6:	08000793          	li	a5,128
    58ea:	004c                	addi	a1,sp,4
    58ec:	cc3e                	sw	a5,24(sp)
    58ee:	8522                	mv	a0,s0
    58f0:	678d                	lui	a5,0x3
    58f2:	c24e                	sw	s3,4(sp)
    58f4:	c44a                	sw	s2,8(sp)
    58f6:	c826                	sw	s1,16(sp)
    58f8:	d43e                	sw	a5,40(sp)
    58fa:	ca02                	sw	zero,20(sp)
    58fc:	ce02                	sw	zero,28(sp)
    58fe:	d002                	sw	zero,32(sp)
    5900:	d202                	sw	zero,36(sp)
    5902:	d602                	sw	zero,44(sp)
    5904:	302010ef          	jal	ra,6c06 <DMA_Init>
    5908:	6145                	addi	sp,sp,48
    590a:	881fa06f          	j	18a <__riscv_restore_4>

0000590e <TIM1_CC_IRQHandler>:
    590e:	1101                	addi	sp,sp,-32
    5910:	cc26                	sw	s1,24(sp)
    5912:	400134b7          	lui	s1,0x40013
    5916:	ce22                	sw	s0,28(sp)
    5918:	45a1                	li	a1,8
    591a:	c0048513          	addi	a0,s1,-1024 # 40012c00 <_eusrstack+0x2000dc00>
    591e:	89818413          	addi	s0,gp,-1896 # 20000108 <ntsc_line>
    5922:	ca4a                	sw	s2,20(sp)
    5924:	c84e                	sw	s3,16(sp)
    5926:	c652                	sw	s4,12(sp)
    5928:	c456                	sw	s5,8(sp)
    592a:	129010ef          	jal	ra,7252 <TIM_ClearFlag>
    592e:	201e                	lhu	a5,0(s0)
    5930:	470d                	li	a4,3
    5932:	0785                	addi	a5,a5,1
    5934:	07c2                	slli	a5,a5,0x10
    5936:	83c1                	srli	a5,a5,0x10
    5938:	a01e                	sh	a5,0(s0)
    593a:	201e                	lhu	a5,0(s0)
    593c:	00f70a63          	beq	a4,a5,5950 <TIM1_CC_IRQHandler+0x42>
    5940:	201e                	lhu	a5,0(s0)
    5942:	4711                	li	a4,4
    5944:	00f70663          	beq	a4,a5,5950 <TIM1_CC_IRQHandler+0x42>
    5948:	201e                	lhu	a5,0(s0)
    594a:	4715                	li	a4,5
    594c:	10f71a63          	bne	a4,a5,5a60 <TIM1_CC_IRQHandler+0x152>
    5950:	6585                	lui	a1,0x1
    5952:	40013537          	lui	a0,0x40013
    5956:	b0958593          	addi	a1,a1,-1271 # b09 <USBH_EnumHubDevice+0xf1>
    595a:	c0050513          	addi	a0,a0,-1024 # 40012c00 <_eusrstack+0x2000dc00>
    595e:	0ef010ef          	jal	ra,724c <TIM_SetCompare4>
    5962:	201e                	lhu	a5,0(s0)
    5964:	02700713          	li	a4,39
    5968:	00f77763          	bgeu	a4,a5,5976 <TIM1_CC_IRQHandler+0x68>
    596c:	201e                	lhu	a5,0(s0)
    596e:	0e700713          	li	a4,231
    5972:	1ef77563          	bgeu	a4,a5,5b5c <TIM1_CC_IRQHandler+0x24e>
    5976:	4705                	li	a4,1
    5978:	88e18ba3          	sb	a4,-1897(gp) # 20000107 <ntsc_blank>
    597c:	201e                	lhu	a5,0(s0)
    597e:	02600713          	li	a4,38
    5982:	00f77763          	bgeu	a4,a5,5990 <TIM1_CC_IRQHandler+0x82>
    5986:	201e                	lhu	a5,0(s0)
    5988:	0e600713          	li	a4,230
    598c:	0ef77163          	bgeu	a4,a5,5a6e <TIM1_CC_IRQHandler+0x160>
    5990:	8a518713          	addi	a4,gp,-1883 # 20000115 <stepmode>
    5994:	201e                	lhu	a5,0(s0)
    5996:	10600693          	li	a3,262
    599a:	00f6f463          	bgeu	a3,a5,59a2 <TIM1_CC_IRQHandler+0x94>
    599e:	00041023          	sh	zero,0(s0)
    59a2:	21818413          	addi	s0,gp,536 # 20000a88 <cpu>
    59a6:	485c                	lw	a5,20(s0)
    59a8:	89018493          	addi	s1,gp,-1904 # 20000100 <cycle_count>
    59ac:	c09c                	sw	a5,0(s1)
    59ae:	2318                	lbu	a4,0(a4)
    59b0:	4094                	lw	a3,0(s1)
    59b2:	0ff77713          	andi	a4,a4,255
    59b6:	c741                	beqz	a4,5a3e <TIM1_CC_IRQHandler+0x130>
    59b8:	4725                	li	a4,9
    59ba:	8f95                	sub	a5,a5,a3
    59bc:	8a418993          	addi	s3,gp,-1884 # 20000114 <stepflag>
    59c0:	4a89                	li	s5,2
    59c2:	4a25                	li	s4,9
    59c4:	04f77e63          	bgeu	a4,a5,5a20 <TIM1_CC_IRQHandler+0x112>
    59c8:	f781c703          	lbu	a4,-136(gp) # 200007e8 <RootHubDev>
    59cc:	4789                	li	a5,2
    59ce:	00e7fc63          	bgeu	a5,a4,59e6 <TIM1_CC_IRQHandler+0xd8>
    59d2:	f7818713          	addi	a4,gp,-136 # 200007e8 <RootHubDev>
    59d6:	3314                	lbu	a3,1(a4)
    59d8:	460d                	li	a2,3
    59da:	335c                	lbu	a5,5(a4)
    59dc:	12c68563          	beq	a3,a2,5b06 <TIM1_CC_IRQHandler+0x1f8>
    59e0:	4625                	li	a2,9
    59e2:	1cc68b63          	beq	a3,a2,5bb8 <TIM1_CC_IRQHandler+0x2aa>
    59e6:	4472                	lw	s0,28(sp)
    59e8:	44e2                	lw	s1,24(sp)
    59ea:	4952                	lw	s2,20(sp)
    59ec:	49c2                	lw	s3,16(sp)
    59ee:	4a32                	lw	s4,12(sp)
    59f0:	4aa2                	lw	s5,8(sp)
    59f2:	6105                	addi	sp,sp,32
    59f4:	30200073          	mret
    59f8:	0009c783          	lbu	a5,0(s3)
    59fc:	0785                	addi	a5,a5,1
    59fe:	0ff7f793          	andi	a5,a5,255
    5a02:	00f98023          	sb	a5,0(s3)
    5a06:	0009c783          	lbu	a5,0(s3)
    5a0a:	02fae363          	bltu	s5,a5,5a30 <TIM1_CC_IRQHandler+0x122>
    5a0e:	21818513          	addi	a0,gp,536 # 20000a88 <cpu>
    5a12:	9e5ff0ef          	jal	ra,53f6 <i8080_step>
    5a16:	4098                	lw	a4,0(s1)
    5a18:	485c                	lw	a5,20(s0)
    5a1a:	8f99                	sub	a5,a5,a4
    5a1c:	fafa66e3          	bltu	s4,a5,59c8 <TIM1_CC_IRQHandler+0xba>
    5a20:	02344783          	lbu	a5,35(s0)
    5a24:	0207f793          	andi	a5,a5,32
    5a28:	fbe1                	bnez	a5,59f8 <TIM1_CC_IRQHandler+0xea>
    5a2a:	00098023          	sb	zero,0(s3)
    5a2e:	b7c5                	j	5a0e <TIM1_CC_IRQHandler+0x100>
    5a30:	0ff00593          	li	a1,255
    5a34:	21818513          	addi	a0,gp,536 # 20000a88 <cpu>
    5a38:	a11ff0ef          	jal	ra,5448 <i8080_interrupt>
    5a3c:	bfc9                	j	5a0e <TIM1_CC_IRQHandler+0x100>
    5a3e:	06d00713          	li	a4,109
    5a42:	8f95                	sub	a5,a5,a3
    5a44:	f8f762e3          	bltu	a4,a5,59c8 <TIM1_CC_IRQHandler+0xba>
    5a48:	06d00993          	li	s3,109
    5a4c:	21818513          	addi	a0,gp,536 # 20000a88 <cpu>
    5a50:	9a7ff0ef          	jal	ra,53f6 <i8080_step>
    5a54:	4098                	lw	a4,0(s1)
    5a56:	485c                	lw	a5,20(s0)
    5a58:	8f99                	sub	a5,a5,a4
    5a5a:	fef9f9e3          	bgeu	s3,a5,5a4c <TIM1_CC_IRQHandler+0x13e>
    5a5e:	b7ad                	j	59c8 <TIM1_CC_IRQHandler+0xba>
    5a60:	0e100593          	li	a1,225
    5a64:	c0048513          	addi	a0,s1,-1024
    5a68:	7e4010ef          	jal	ra,724c <TIM_SetCompare4>
    5a6c:	bddd                	j	5962 <TIM1_CC_IRQHandler+0x54>
    5a6e:	201a                	lhu	a4,0(s0)
    5a70:	201e                	lhu	a5,0(s0)
    5a72:	463d                	li	a2,15
    5a74:	fd970693          	addi	a3,a4,-39
    5a78:	fd978793          	addi	a5,a5,-39 # 2fd9 <i8080_execute+0x19c5>
    5a7c:	41f6d713          	srai	a4,a3,0x1f
    5a80:	41f7d593          	srai	a1,a5,0x1f
    5a84:	8b1d                	andi	a4,a4,7
    5a86:	81f5                	srli	a1,a1,0x1d
    5a88:	9736                	add	a4,a4,a3
    5a8a:	870d                	srai	a4,a4,0x3
    5a8c:	97ae                	add	a5,a5,a1
    5a8e:	8b9d                	andi	a5,a5,7
    5a90:	0ff77693          	andi	a3,a4,255
    5a94:	8f8d                	sub	a5,a5,a1
    5a96:	0ed66c63          	bltu	a2,a3,5b8e <TIM1_CC_IRQHandler+0x280>
    5a9a:	0ff77713          	andi	a4,a4,255
    5a9e:	6825                	lui	a6,0x9
    5aa0:	00571513          	slli	a0,a4,0x5
    5aa4:	0ff7f593          	andi	a1,a5,255
    5aa8:	4701                	li	a4,0
    5aaa:	89c18613          	addi	a2,gp,-1892 # 2000010c <scandata>
    5aae:	88c18313          	addi	t1,gp,-1908 # 200000fc <bsppi>
    5ab2:	01818893          	addi	a7,gp,24 # 20000888 <bsvram>
    5ab6:	36080813          	addi	a6,a6,864 # 9360 <bsfont_rom>
    5aba:	02000e13          	li	t3,32
    5abe:	00234683          	lbu	a3,2(t1)
    5ac2:	00e507b3          	add	a5,a0,a4
    5ac6:	97c6                	add	a5,a5,a7
    5ac8:	0016fe93          	andi	t4,a3,1
    5acc:	239c                	lbu	a5,0(a5)
    5ace:	000e8463          	beqz	t4,5ad6 <TIM1_CC_IRQHandler+0x1c8>
    5ad2:	10078793          	addi	a5,a5,256
    5ad6:	078e                	slli	a5,a5,0x3
    5ad8:	97c2                	add	a5,a5,a6
    5ada:	97ae                	add	a5,a5,a1
    5adc:	0007ce83          	lbu	t4,0(a5)
    5ae0:	201e                	lhu	a5,0(s0)
    5ae2:	8a89                	andi	a3,a3,2
    5ae4:	fffecf13          	not	t5,t4
    5ae8:	0785                	addi	a5,a5,1
    5aea:	8b85                	andi	a5,a5,1
    5aec:	078a                	slli	a5,a5,0x2
    5aee:	97b2                	add	a5,a5,a2
    5af0:	e299                	bnez	a3,5af6 <TIM1_CC_IRQHandler+0x1e8>
    5af2:	0fff7e93          	andi	t4,t5,255
    5af6:	439c                	lw	a5,0(a5)
    5af8:	97ba                	add	a5,a5,a4
    5afa:	01d78023          	sb	t4,0(a5)
    5afe:	0705                	addi	a4,a4,1
    5b00:	fbc71fe3          	bne	a4,t3,5abe <TIM1_CC_IRQHandler+0x1b0>
    5b04:	b571                	j	5990 <TIM1_CC_IRQHandler+0x82>
    5b06:	08600593          	li	a1,134
    5b0a:	02b785b3          	mul	a1,a5,a1
    5b0e:	cd818793          	addi	a5,gp,-808 # 20000548 <HostCtl>
    5b12:	95be                	add	a1,a1,a5
    5b14:	0005c803          	lbu	a6,0(a1)
    5b18:	ec0807e3          	beqz	a6,59e6 <TIM1_CC_IRQHandler+0xd8>
    5b1c:	4501                	li	a0,0
    5b1e:	2590                	lbu	a2,8(a1)
    5b20:	872e                	mv	a4,a1
    5b22:	4781                	li	a5,0
    5b24:	ce01                	beqz	a2,5b3c <TIM1_CC_IRQHandler+0x22e>
    5b26:	02274683          	lbu	a3,34(a4)
    5b2a:	0785                	addi	a5,a5,1
    5b2c:	0ff7f793          	andi	a5,a5,255
    5b30:	0685                	addi	a3,a3,1
    5b32:	02d70123          	sb	a3,34(a4)
    5b36:	0705                	addi	a4,a4,1
    5b38:	fef617e3          	bne	a2,a5,5b26 <TIM1_CC_IRQHandler+0x218>
    5b3c:	0505                	addi	a0,a0,1
    5b3e:	0ff57513          	andi	a0,a0,255
    5b42:	04258593          	addi	a1,a1,66
    5b46:	fca81ce3          	bne	a6,a0,5b1e <TIM1_CC_IRQHandler+0x210>
    5b4a:	4472                	lw	s0,28(sp)
    5b4c:	44e2                	lw	s1,24(sp)
    5b4e:	4952                	lw	s2,20(sp)
    5b50:	49c2                	lw	s3,16(sp)
    5b52:	4a32                	lw	s4,12(sp)
    5b54:	4aa2                	lw	s5,8(sp)
    5b56:	6105                	addi	sp,sp,32
    5b58:	30200073          	mret
    5b5c:	88018ba3          	sb	zero,-1897(gp) # 20000107 <ntsc_blank>
    5b60:	201e                	lhu	a5,0(s0)
    5b62:	89c18613          	addi	a2,gp,-1892 # 2000010c <scandata>
    5b66:	8b85                	andi	a5,a5,1
    5b68:	078a                	slli	a5,a5,0x2
    5b6a:	963e                	add	a2,a2,a5
    5b6c:	4210                	lw	a2,0(a2)
    5b6e:	400204b7          	lui	s1,0x40020
    5b72:	400135b7          	lui	a1,0x40013
    5b76:	03048513          	addi	a0,s1,48 # 40020030 <_eusrstack+0x2001b030>
    5b7a:	05b9                	addi	a1,a1,14
    5b7c:	02100693          	li	a3,33
    5b80:	3b05                	jal	58b0 <DMA_Tx_Init>
    5b82:	4585                	li	a1,1
    5b84:	03048513          	addi	a0,s1,48
    5b88:	0be010ef          	jal	ra,6c46 <DMA_Cmd>
    5b8c:	bbc5                	j	597c <TIM1_CC_IRQHandler+0x6e>
    5b8e:	475d                	li	a4,23
    5b90:	0ae68a63          	beq	a3,a4,5c44 <TIM1_CC_IRQHandler+0x336>
    5b94:	4701                	li	a4,0
    5b96:	89c18613          	addi	a2,gp,-1892 # 2000010c <scandata>
    5b9a:	02000693          	li	a3,32
    5b9e:	201e                	lhu	a5,0(s0)
    5ba0:	0785                	addi	a5,a5,1
    5ba2:	8b85                	andi	a5,a5,1
    5ba4:	078a                	slli	a5,a5,0x2
    5ba6:	97b2                	add	a5,a5,a2
    5ba8:	439c                	lw	a5,0(a5)
    5baa:	97ba                	add	a5,a5,a4
    5bac:	00078023          	sb	zero,0(a5)
    5bb0:	0705                	addi	a4,a4,1
    5bb2:	fed716e3          	bne	a4,a3,5b9e <TIM1_CC_IRQHandler+0x290>
    5bb6:	bbe9                	j	5990 <TIM1_CC_IRQHandler+0x82>
    5bb8:	08600693          	li	a3,134
    5bbc:	02d787b3          	mul	a5,a5,a3
    5bc0:	cd818f93          	addi	t6,gp,-808 # 20000548 <HostCtl>
    5bc4:	00674303          	lbu	t1,6(a4)
    5bc8:	97fe                	add	a5,a5,t6
    5bca:	0227c703          	lbu	a4,34(a5)
    5bce:	0705                	addi	a4,a4,1
    5bd0:	02e78123          	sb	a4,34(a5)
    5bd4:	e00309e3          	beqz	t1,59e6 <TIM1_CC_IRQHandler+0xd8>
    5bd8:	f7818593          	addi	a1,gp,-136 # 200007e8 <RootHubDev>
    5bdc:	4501                	li	a0,0
    5bde:	4e09                	li	t3,2
    5be0:	4f0d                	li	t5,3
    5be2:	08600293          	li	t0,134
    5be6:	31fc                	lbu	a5,7(a1)
    5be8:	00fe7563          	bgeu	t3,a5,5bf2 <TIM1_CC_IRQHandler+0x2e4>
    5bec:	259c                	lbu	a5,8(a1)
    5bee:	01e78963          	beq	a5,t5,5c00 <TIM1_CC_IRQHandler+0x2f2>
    5bf2:	0505                	addi	a0,a0,1
    5bf4:	0ff57513          	andi	a0,a0,255
    5bf8:	0599                	addi	a1,a1,6
    5bfa:	fe6516e3          	bne	a0,t1,5be6 <TIM1_CC_IRQHandler+0x2d8>
    5bfe:	b3e5                	j	59e6 <TIM1_CC_IRQHandler+0xd8>
    5c00:	00c5c883          	lbu	a7,12(a1) # 4001300c <_eusrstack+0x2000e00c>
    5c04:	025888b3          	mul	a7,a7,t0
    5c08:	98fe                	add	a7,a7,t6
    5c0a:	0008ce83          	lbu	t4,0(a7)
    5c0e:	fe0e82e3          	beqz	t4,5bf2 <TIM1_CC_IRQHandler+0x2e4>
    5c12:	4801                	li	a6,0
    5c14:	0088c603          	lbu	a2,8(a7)
    5c18:	8746                	mv	a4,a7
    5c1a:	4781                	li	a5,0
    5c1c:	ce01                	beqz	a2,5c34 <TIM1_CC_IRQHandler+0x326>
    5c1e:	02274683          	lbu	a3,34(a4)
    5c22:	0785                	addi	a5,a5,1
    5c24:	0ff7f793          	andi	a5,a5,255
    5c28:	0685                	addi	a3,a3,1
    5c2a:	02d70123          	sb	a3,34(a4)
    5c2e:	0705                	addi	a4,a4,1
    5c30:	fec797e3          	bne	a5,a2,5c1e <TIM1_CC_IRQHandler+0x310>
    5c34:	0805                	addi	a6,a6,1
    5c36:	0ff87813          	andi	a6,a6,255
    5c3a:	04288893          	addi	a7,a7,66
    5c3e:	fdd81be3          	bne	a6,t4,5c14 <TIM1_CC_IRQHandler+0x306>
    5c42:	bf45                	j	5bf2 <TIM1_CC_IRQHandler+0x2e4>
    5c44:	8ae18703          	lb	a4,-1874(gp) # 2000011e <tk80ppi+0x2>
    5c48:	0ff7f793          	andi	a5,a5,255
    5c4c:	10074463          	bltz	a4,5d54 <TIM1_CC_IRQHandler+0x446>
    5c50:	89c18613          	addi	a2,gp,-1892 # 2000010c <scandata>
    5c54:	6825                	lui	a6,0x9
    5c56:	8a518713          	addi	a4,gp,-1883 # 20000115 <stepmode>
    5c5a:	0a078313          	addi	t1,a5,160
    5c5e:	36080813          	addi	a6,a6,864 # 9360 <bsfont_rom>
    5c62:	2314                	lbu	a3,0(a4)
    5c64:	00680533          	add	a0,a6,t1
    5c68:	00054e03          	lbu	t3,0(a0)
    5c6c:	00045883          	lhu	a7,0(s0)
    5c70:	200a                	lhu	a0,0(s0)
    5c72:	4585                	li	a1,1
    5c74:	1ed58063          	beq	a1,a3,5e54 <TIM1_CC_IRQHandler+0x546>
    5c78:	200e                	lhu	a1,0(s0)
    5c7a:	0885                	addi	a7,a7,1
    5c7c:	2016                	lhu	a3,0(s0)
    5c7e:	0018f893          	andi	a7,a7,1
    5c82:	0505                	addi	a0,a0,1
    5c84:	088a                	slli	a7,a7,0x2
    5c86:	8905                	andi	a0,a0,1
    5c88:	0585                	addi	a1,a1,1
    5c8a:	00f80eb3          	add	t4,a6,a5
    5c8e:	98b2                	add	a7,a7,a2
    5c90:	050a                	slli	a0,a0,0x2
    5c92:	8985                	andi	a1,a1,1
    5c94:	0685                	addi	a3,a3,1
    5c96:	0008af83          	lw	t6,0(a7)
    5c9a:	9532                	add	a0,a0,a2
    5c9c:	008ec283          	lbu	t0,8(t4)
    5ca0:	058a                	slli	a1,a1,0x2
    5ca2:	8a85                	andi	a3,a3,1
    5ca4:	00052883          	lw	a7,0(a0)
    5ca8:	95b2                	add	a1,a1,a2
    5caa:	0a8ecf03          	lbu	t5,168(t4)
    5cae:	068a                	slli	a3,a3,0x2
    5cb0:	4188                	lw	a0,0(a1)
    5cb2:	96b2                	add	a3,a3,a2
    5cb4:	005f8b23          	sb	t0,22(t6)
    5cb8:	4294                	lw	a3,0(a3)
    5cba:	078ec583          	lbu	a1,120(t4)
    5cbe:	01e88ba3          	sb	t5,23(a7)
    5cc2:	01c50c23          	sb	t3,24(a0)
    5cc6:	be8c                	sb	a1,25(a3)
    5cc8:	8941c503          	lbu	a0,-1900(gp) # 20000104 <kbmode>
    5ccc:	200e                	lhu	a1,0(s0)
    5cce:	2016                	lhu	a3,0(s0)
    5cd0:	e505                	bnez	a0,5cf8 <TIM1_CC_IRQHandler+0x3ea>
    5cd2:	0585                	addi	a1,a1,1
    5cd4:	8985                	andi	a1,a1,1
    5cd6:	0685                	addi	a3,a3,1
    5cd8:	058a                	slli	a1,a1,0x2
    5cda:	8a85                	andi	a3,a3,1
    5cdc:	95b2                	add	a1,a1,a2
    5cde:	068a                	slli	a3,a3,0x2
    5ce0:	9342                	add	t1,t1,a6
    5ce2:	418c                	lw	a1,0(a1)
    5ce4:	00034503          	lbu	a0,0(t1)
    5ce8:	9636                	add	a2,a2,a3
    5cea:	97c2                	add	a5,a5,a6
    5cec:	4214                	lw	a3,0(a2)
    5cee:	0587c783          	lbu	a5,88(a5)
    5cf2:	bda8                	sb	a0,27(a1)
    5cf4:	aedc                	sb	a5,28(a3)
    5cf6:	b979                	j	5994 <TIM1_CC_IRQHandler+0x86>
    5cf8:	0585                	addi	a1,a1,1
    5cfa:	8985                	andi	a1,a1,1
    5cfc:	0685                	addi	a3,a3,1
    5cfe:	058a                	slli	a1,a1,0x2
    5d00:	8a85                	andi	a3,a3,1
    5d02:	97c2                	add	a5,a5,a6
    5d04:	95b2                	add	a1,a1,a2
    5d06:	068a                	slli	a3,a3,0x2
    5d08:	0005a883          	lw	a7,0(a1)
    5d0c:	96b2                	add	a3,a3,a2
    5d0e:	0107c303          	lbu	t1,16(a5)
    5d12:	428c                	lw	a1,0(a3)
    5d14:	0987c803          	lbu	a6,152(a5)
    5d18:	00688da3          	sb	t1,27(a7)
    5d1c:	4685                	li	a3,1
    5d1e:	01058e23          	sb	a6,28(a1)
    5d22:	c6d519e3          	bne	a0,a3,5994 <TIM1_CC_IRQHandler+0x86>
    5d26:	8951c683          	lbu	a3,-1899(gp) # 20000105 <kbmodify>
    5d2a:	c6a695e3          	bne	a3,a0,5994 <TIM1_CC_IRQHandler+0x86>
    5d2e:	200e                	lhu	a1,0(s0)
    5d30:	2016                	lhu	a3,0(s0)
    5d32:	3b07c503          	lbu	a0,944(a5)
    5d36:	0585                	addi	a1,a1,1
    5d38:	8985                	andi	a1,a1,1
    5d3a:	0685                	addi	a3,a3,1
    5d3c:	058a                	slli	a1,a1,0x2
    5d3e:	8a85                	andi	a3,a3,1
    5d40:	95b2                	add	a1,a1,a2
    5d42:	068a                	slli	a3,a3,0x2
    5d44:	418c                	lw	a1,0(a1)
    5d46:	9636                	add	a2,a2,a3
    5d48:	4214                	lw	a3,0(a2)
    5d4a:	2287c783          	lbu	a5,552(a5)
    5d4e:	ade8                	sb	a0,30(a1)
    5d50:	befc                	sb	a5,31(a3)
    5d52:	b189                	j	5994 <TIM1_CC_IRQHandler+0x86>
    5d54:	200016b7          	lui	a3,0x20001
    5d58:	200e                	lhu	a1,0(s0)
    5d5a:	af068693          	addi	a3,a3,-1296 # 20000af0 <tk80ram>
    5d5e:	3f86c503          	lbu	a0,1016(a3)
    5d62:	0585                	addi	a1,a1,1
    5d64:	6735                	lui	a4,0xd
    5d66:	36070713          	addi	a4,a4,864 # d360 <tk80font>
    5d6a:	8985                	andi	a1,a1,1
    5d6c:	050e                	slli	a0,a0,0x3
    5d6e:	89c18613          	addi	a2,gp,-1892 # 2000010c <scandata>
    5d72:	953a                	add	a0,a0,a4
    5d74:	058a                	slli	a1,a1,0x2
    5d76:	95b2                	add	a1,a1,a2
    5d78:	953e                	add	a0,a0,a5
    5d7a:	418c                	lw	a1,0(a1)
    5d7c:	2108                	lbu	a0,0(a0)
    5d7e:	a188                	sb	a0,0(a1)
    5d80:	200e                	lhu	a1,0(s0)
    5d82:	3f96c503          	lbu	a0,1017(a3)
    5d86:	0585                	addi	a1,a1,1
    5d88:	8985                	andi	a1,a1,1
    5d8a:	050e                	slli	a0,a0,0x3
    5d8c:	953a                	add	a0,a0,a4
    5d8e:	058a                	slli	a1,a1,0x2
    5d90:	95b2                	add	a1,a1,a2
    5d92:	953e                	add	a0,a0,a5
    5d94:	418c                	lw	a1,0(a1)
    5d96:	2108                	lbu	a0,0(a0)
    5d98:	b188                	sb	a0,1(a1)
    5d9a:	200a                	lhu	a0,0(s0)
    5d9c:	3fa6c803          	lbu	a6,1018(a3)
    5da0:	200e                	lhu	a1,0(s0)
    5da2:	0505                	addi	a0,a0,1
    5da4:	8905                	andi	a0,a0,1
    5da6:	080e                	slli	a6,a6,0x3
    5da8:	983a                	add	a6,a6,a4
    5daa:	050a                	slli	a0,a0,0x2
    5dac:	9532                	add	a0,a0,a2
    5dae:	983e                	add	a6,a6,a5
    5db0:	4108                	lw	a0,0(a0)
    5db2:	00084803          	lbu	a6,0(a6)
    5db6:	0585                	addi	a1,a1,1
    5db8:	8985                	andi	a1,a1,1
    5dba:	01050123          	sb	a6,2(a0)
    5dbe:	3fb6c503          	lbu	a0,1019(a3)
    5dc2:	058a                	slli	a1,a1,0x2
    5dc4:	95b2                	add	a1,a1,a2
    5dc6:	050e                	slli	a0,a0,0x3
    5dc8:	953a                	add	a0,a0,a4
    5dca:	953e                	add	a0,a0,a5
    5dcc:	0005a803          	lw	a6,0(a1)
    5dd0:	00054883          	lbu	a7,0(a0)
    5dd4:	200e                	lhu	a1,0(s0)
    5dd6:	200a                	lhu	a0,0(s0)
    5dd8:	011801a3          	sb	a7,3(a6)
    5ddc:	3fc6c803          	lbu	a6,1020(a3)
    5de0:	0585                	addi	a1,a1,1
    5de2:	8985                	andi	a1,a1,1
    5de4:	080e                	slli	a6,a6,0x3
    5de6:	983a                	add	a6,a6,a4
    5de8:	058a                	slli	a1,a1,0x2
    5dea:	95b2                	add	a1,a1,a2
    5dec:	983e                	add	a6,a6,a5
    5dee:	0005a883          	lw	a7,0(a1)
    5df2:	00084803          	lbu	a6,0(a6)
    5df6:	0505                	addi	a0,a0,1
    5df8:	200e                	lhu	a1,0(s0)
    5dfa:	010882a3          	sb	a6,5(a7)
    5dfe:	3fd6c803          	lbu	a6,1021(a3)
    5e02:	8905                	andi	a0,a0,1
    5e04:	050a                	slli	a0,a0,0x2
    5e06:	080e                	slli	a6,a6,0x3
    5e08:	983a                	add	a6,a6,a4
    5e0a:	9532                	add	a0,a0,a2
    5e0c:	983e                	add	a6,a6,a5
    5e0e:	00084803          	lbu	a6,0(a6)
    5e12:	4108                	lw	a0,0(a0)
    5e14:	0585                	addi	a1,a1,1
    5e16:	8985                	andi	a1,a1,1
    5e18:	058a                	slli	a1,a1,0x2
    5e1a:	01050323          	sb	a6,6(a0)
    5e1e:	95b2                	add	a1,a1,a2
    5e20:	0005a803          	lw	a6,0(a1)
    5e24:	3fe6c503          	lbu	a0,1022(a3)
    5e28:	200e                	lhu	a1,0(s0)
    5e2a:	050e                	slli	a0,a0,0x3
    5e2c:	953a                	add	a0,a0,a4
    5e2e:	953e                	add	a0,a0,a5
    5e30:	2108                	lbu	a0,0(a0)
    5e32:	0585                	addi	a1,a1,1
    5e34:	8985                	andi	a1,a1,1
    5e36:	00a803a3          	sb	a0,7(a6)
    5e3a:	3ff6c503          	lbu	a0,1023(a3)
    5e3e:	00259693          	slli	a3,a1,0x2
    5e42:	96b2                	add	a3,a3,a2
    5e44:	00351593          	slli	a1,a0,0x3
    5e48:	972e                	add	a4,a4,a1
    5e4a:	973e                	add	a4,a4,a5
    5e4c:	4294                	lw	a3,0(a3)
    5e4e:	2318                	lbu	a4,0(a4)
    5e50:	a698                	sb	a4,8(a3)
    5e52:	b509                	j	5c54 <TIM1_CC_IRQHandler+0x346>
    5e54:	200e                	lhu	a1,0(s0)
    5e56:	0885                	addi	a7,a7,1
    5e58:	2016                	lhu	a3,0(s0)
    5e5a:	0018f893          	andi	a7,a7,1
    5e5e:	0505                	addi	a0,a0,1
    5e60:	088a                	slli	a7,a7,0x2
    5e62:	8905                	andi	a0,a0,1
    5e64:	0585                	addi	a1,a1,1
    5e66:	00f80eb3          	add	t4,a6,a5
    5e6a:	98b2                	add	a7,a7,a2
    5e6c:	050a                	slli	a0,a0,0x2
    5e6e:	8985                	andi	a1,a1,1
    5e70:	0685                	addi	a3,a3,1
    5e72:	0008af83          	lw	t6,0(a7)
    5e76:	9532                	add	a0,a0,a2
    5e78:	098ec283          	lbu	t0,152(t4)
    5e7c:	058a                	slli	a1,a1,0x2
    5e7e:	8a85                	andi	a3,a3,1
    5e80:	00052f03          	lw	t5,0(a0)
    5e84:	95b2                	add	a1,a1,a2
    5e86:	068a                	slli	a3,a3,0x2
    5e88:	4188                	lw	a0,0(a1)
    5e8a:	028ec883          	lbu	a7,40(t4)
    5e8e:	96b2                	add	a3,a3,a2
    5e90:	005f8b23          	sb	t0,22(t6)
    5e94:	4294                	lw	a3,0(a3)
    5e96:	080ec583          	lbu	a1,128(t4)
    5e9a:	01cf0ba3          	sb	t3,23(t5)
    5e9e:	01150c23          	sb	a7,24(a0)
    5ea2:	be8c                	sb	a1,25(a3)
    5ea4:	b515                	j	5cc8 <TIM1_CC_IRQHandler+0x3ba>

00005ea6 <usb_getkey>:
    5ea6:	a9afa2ef          	jal	t0,140 <__riscv_save_12>
    5eaa:	1141                	addi	sp,sp,-16
    5eac:	880184a3          	sb	zero,-1911(gp) # 200000f9 <breakflag>
    5eb0:	c02a                	sw	a0,0(sp)
    5eb2:	47a1                	li	a5,8
    5eb4:	84b6                	mv	s1,a3
    5eb6:	89ae                	mv	s3,a1
    5eb8:	8932                	mv	s2,a2
    5eba:	0cf68963          	beq	a3,a5,5f8c <usb_getkey+0xe6>
    5ebe:	4401                	li	s0,0
    5ec0:	4782                	lw	a5,0(sp)
    5ec2:	08600a93          	li	s5,134
    5ec6:	00599713          	slli	a4,s3,0x5
    5eca:	035787b3          	mul	a5,a5,s5
    5ece:	01370ab3          	add	s5,a4,s3
    5ed2:	0a86                	slli	s5,s5,0x1
    5ed4:	c43a                	sw	a4,8(sp)
    5ed6:	cd818713          	addi	a4,gp,-808 # 20000548 <HostCtl>
    5eda:	c23a                	sw	a4,4(sp)
    5edc:	9abe                	add	s5,s5,a5
    5ede:	9aba                	add	s5,s5,a4
    5ee0:	041acd03          	lbu	s10,65(s5)
    5ee4:	03eac783          	lbu	a5,62(s5)
    5ee8:	03facb03          	lbu	s6,63(s5)
    5eec:	c66a                	sw	s10,12(sp)
    5eee:	2afb6163          	bltu	s6,a5,6190 <usb_getkey+0x2ea>
    5ef2:	8bbe                	mv	s7,a5
    5ef4:	8c1d                	sub	s0,s0,a5
    5ef6:	4a05                	li	s4,1
    5ef8:	4c89                	li	s9,2
    5efa:	4d8d                	li	s11,3
    5efc:	a829                	j	5f16 <usb_getkey+0x70>
    5efe:	8626                	mv	a2,s1
    5f00:	03900593          	li	a1,57
    5f04:	079b8b63          	beq	s7,s9,5f7a <usb_getkey+0xd4>
    5f08:	07bb8763          	beq	s7,s11,5f76 <usb_getkey+0xd0>
    5f0c:	0b85                	addi	s7,s7,1
    5f0e:	0ffbfb93          	andi	s7,s7,255
    5f12:	037b6c63          	bltu	s6,s7,5f4a <usb_getkey+0xa4>
    5f16:	008b87b3          	add	a5,s7,s0
    5f1a:	0ff7fc13          	andi	s8,a5,255
    5f1e:	ff4b90e3          	bne	s7,s4,5efe <usb_getkey+0x58>
    5f22:	8626                	mv	a2,s1
    5f24:	05300593          	li	a1,83
    5f28:	854a                	mv	a0,s2
    5f2a:	58a010ef          	jal	ra,74b4 <memchr>
    5f2e:	018b97b3          	sll	a5,s7,s8
    5f32:	01a7c7b3          	xor	a5,a5,s10
    5f36:	d979                	beqz	a0,5f0c <usb_getkey+0x66>
    5f38:	0ff7fd13          	andi	s10,a5,255
    5f3c:	0b85                	addi	s7,s7,1
    5f3e:	05aa80a3          	sb	s10,65(s5)
    5f42:	0ffbfb93          	andi	s7,s7,255
    5f46:	fd7b78e3          	bgeu	s6,s7,5f16 <usb_getkey+0x70>
    5f4a:	47b2                	lw	a5,12(sp)
    5f4c:	40fd0d33          	sub	s10,s10,a5
    5f50:	01a03d33          	snez	s10,s10
    5f54:	4702                	lw	a4,0(sp)
    5f56:	08600793          	li	a5,134
    5f5a:	02f707b3          	mul	a5,a4,a5
    5f5e:	4722                	lw	a4,8(sp)
    5f60:	01370a33          	add	s4,a4,s3
    5f64:	0a06                	slli	s4,s4,0x1
    5f66:	9a3e                	add	s4,s4,a5
    5f68:	4792                	lw	a5,4(sp)
    5f6a:	9a3e                	add	s4,s4,a5
    5f6c:	05aa0123          	sb	s10,66(s4)
    5f70:	0141                	addi	sp,sp,16
    5f72:	a0afa06f          	j	17c <__riscv_restore_12>
    5f76:	04700593          	li	a1,71
    5f7a:	854a                	mv	a0,s2
    5f7c:	538010ef          	jal	ra,74b4 <memchr>
    5f80:	018a17b3          	sll	a5,s4,s8
    5f84:	01a7c7b3          	xor	a5,a5,s10
    5f88:	f945                	bnez	a0,5f38 <usb_getkey+0x92>
    5f8a:	b749                	j	5f0c <usb_getkey+0x66>
    5f8c:	3218                	lbu	a4,1(a2)
    5f8e:	4785                	li	a5,1
    5f90:	f2f707e3          	beq	a4,a5,5ebe <usb_getkey+0x18>
    5f94:	88c18793          	addi	a5,gp,-1908 # 200000fc <bsppi>
    5f98:	23b4                	lbu	a3,2(a5)
    5f9a:	89418a93          	addi	s5,gp,-1900 # 20000104 <kbmode>
    5f9e:	000ac403          	lbu	s0,0(s5)
    5fa2:	220c                	lbu	a1,0(a2)
    5fa4:	8a818713          	addi	a4,gp,-1880 # 20000118 <tk80keypad>
    5fa8:	567d                	li	a2,-1
    5faa:	0df6f693          	andi	a3,a3,223
    5fae:	c310                	sw	a2,0(a4)
    5fb0:	00078023          	sb	zero,0(a5)
    5fb4:	a3b4                	sb	a3,2(a5)
    5fb6:	e461                	bnez	s0,607e <usb_getkey+0x1d8>
    5fb8:	00290693          	addi	a3,s2,2
    5fbc:	00890513          	addi	a0,s2,8
    5fc0:	4595                	li	a1,5
    5fc2:	04200c93          	li	s9,66
    5fc6:	02900c13          	li	s8,41
    5fca:	4e85                	li	t4,1
    5fcc:	04400b13          	li	s6,68
    5fd0:	489d                	li	a7,7
    5fd2:	04500293          	li	t0,69
    5fd6:	21818e13          	addi	t3,gp,536 # 20000a88 <cpu>
    5fda:	87c18313          	addi	t1,gp,-1924 # 200000ec <tk80funckey>
    5fde:	4819                	li	a6,6
    5fe0:	02500f93          	li	t6,37
    5fe4:	02600f13          	li	t5,38
    5fe8:	02700a13          	li	s4,39
    5fec:	4605                	li	a2,1
    5fee:	a091                	j	6032 <usb_getkey+0x18c>
    5ff0:	00174d83          	lbu	s11,1(a4)
    5ff4:	ffe78413          	addi	s0,a5,-2
    5ff8:	00861433          	sll	s0,a2,s0
    5ffc:	fff44d13          	not	s10,s0
    6000:	01bd7d33          	and	s10,s10,s11
    6004:	0ff47413          	andi	s0,s0,255
    6008:	01a700a3          	sb	s10,1(a4)
    600c:	fc678d13          	addi	s10,a5,-58
    6010:	0ffd7d13          	andi	s10,s10,255
    6014:	07a8e063          	bltu	a7,s10,6074 <usb_getkey+0x1ce>
    6018:	979a                	add	a5,a5,t1
    601a:	fc67c783          	lbu	a5,-58(a5)
    601e:	00274d03          	lbu	s10,2(a4)
    6022:	fff7c793          	not	a5,a5
    6026:	01a7f7b3          	and	a5,a5,s10
    602a:	a33c                	sb	a5,2(a4)
    602c:	0685                	addi	a3,a3,1
    602e:	e8a689e3          	beq	a3,a0,5ec0 <usb_getkey+0x1a>
    6032:	229c                	lbu	a5,0(a3)
    6034:	ffc78d13          	addi	s10,a5,-4
    6038:	0ffd7d13          	andi	s10,s10,255
    603c:	fba5fae3          	bgeu	a1,s10,5ff0 <usb_getkey+0x14a>
    6040:	fe278d13          	addi	s10,a5,-30
    6044:	0ffd7d13          	andi	s10,s10,255
    6048:	0da86c63          	bltu	a6,s10,6120 <usb_getkey+0x27a>
    604c:	00074d83          	lbu	s11,0(a4)
    6050:	fe378413          	addi	s0,a5,-29
    6054:	00861433          	sll	s0,a2,s0
    6058:	fff44d13          	not	s10,s0
    605c:	01bd7d33          	and	s10,s10,s11
    6060:	01a70023          	sb	s10,0(a4)
    6064:	fc678d13          	addi	s10,a5,-58
    6068:	0ffd7d13          	andi	s10,s10,255
    606c:	0ff47413          	andi	s0,s0,255
    6070:	fba8f4e3          	bgeu	a7,s10,6018 <usb_getkey+0x172>
    6074:	0a579e63          	bne	a5,t0,6130 <usb_getkey+0x28a>
    6078:	000e1c23          	sh	zero,24(t3)
    607c:	bf45                	j	602c <usb_getkey+0x186>
    607e:	00294403          	lbu	s0,2(s2)
    6082:	10040963          	beqz	s0,6194 <usb_getkey+0x2ee>
    6086:	fc640613          	addi	a2,s0,-58
    608a:	0ff67613          	andi	a2,a2,255
    608e:	451d                	li	a0,7
    6090:	0225f593          	andi	a1,a1,34
    6094:	10c57363          	bgeu	a0,a2,619a <usb_getkey+0x2f4>
    6098:	04f00713          	li	a4,79
    609c:	10876e63          	bltu	a4,s0,61b8 <usb_getkey+0x312>
    60a0:	89618b13          	addi	s6,gp,-1898 # 20000106 <lastkeycode>
    60a4:	000b4703          	lbu	a4,0(s6)
    60a8:	10870163          	beq	a4,s0,61aa <usb_getkey+0x304>
    60ac:	04800713          	li	a4,72
    60b0:	16e40463          	beq	s0,a4,6218 <usb_getkey+0x372>
    60b4:	8951c603          	lbu	a2,-1899(gp) # 20000105 <kbmodify>
    60b8:	00141713          	slli	a4,s0,0x1
    60bc:	00b03533          	snez	a0,a1
    60c0:	9732                	add	a4,a4,a2
    60c2:	00171613          	slli	a2,a4,0x1
    60c6:	6739                	lui	a4,0xe
    60c8:	e6070713          	addi	a4,a4,-416 # de60 <usbhidcode>
    60cc:	9732                	add	a4,a4,a2
    60ce:	972a                	add	a4,a4,a0
    60d0:	2318                	lbu	a4,0(a4)
    60d2:	c37d                	beqz	a4,61b8 <usb_getkey+0x312>
    60d4:	0206e693          	ori	a3,a3,32
    60d8:	a398                	sb	a4,0(a5)
    60da:	a3b4                	sb	a3,2(a5)
    60dc:	008b0023          	sb	s0,0(s6)
    60e0:	08900713          	li	a4,137
    60e4:	0ee41d63          	bne	s0,a4,61de <usb_getkey+0x338>
    60e8:	dc059be3          	bnez	a1,5ebe <usb_getkey+0x18>
    60ec:	89618b13          	addi	s6,gp,-1898 # 20000106 <lastkeycode>
    60f0:	000b4703          	lbu	a4,0(s6)
    60f4:	0a870b63          	beq	a4,s0,61aa <usb_getkey+0x304>
    60f8:	8951c703          	lbu	a4,-1899(gp) # 20000105 <kbmodify>
    60fc:	23b4                	lbu	a3,2(a5)
    60fe:	00173713          	seqz	a4,a4
    6102:	40e00733          	neg	a4,a4
    6106:	fac77713          	andi	a4,a4,-84
    610a:	0b070713          	addi	a4,a4,176
    610e:	0206e693          	ori	a3,a3,32
    6112:	a398                	sb	a4,0(a5)
    6114:	a3b4                	sb	a3,2(a5)
    6116:	f8900793          	li	a5,-119
    611a:	00fb0023          	sb	a5,0(s6)
    611e:	b345                	j	5ebe <usb_getkey+0x18>
    6120:	03f79463          	bne	a5,t6,6148 <usb_getkey+0x2a2>
    6124:	00174d03          	lbu	s10,1(a4)
    6128:	ffed7d13          	andi	s10,s10,-2
    612c:	01a700a3          	sb	s10,1(a4)
    6130:	03679463          	bne	a5,s6,6158 <usb_getkey+0x2b2>
    6134:	8a518d13          	addi	s10,gp,-1883 # 20000115 <stepmode>
    6138:	000d4783          	lbu	a5,0(s10)
    613c:	0ff7f793          	andi	a5,a5,255
    6140:	e7a9                	bnez	a5,618a <usb_getkey+0x2e4>
    6142:	01dd0023          	sb	t4,0(s10)
    6146:	b5dd                	j	602c <usb_getkey+0x186>
    6148:	03e79363          	bne	a5,t5,616e <usb_getkey+0x2c8>
    614c:	00174d03          	lbu	s10,1(a4)
    6150:	ffdd7d13          	andi	s10,s10,-3
    6154:	01a700a3          	sb	s10,1(a4)
    6158:	03979463          	bne	a5,s9,6180 <usb_getkey+0x2da>
    615c:	88818d13          	addi	s10,gp,-1912 # 200000f8 <_edata>
    6160:	000d4783          	lbu	a5,0(s10)
    6164:	0017b793          	seqz	a5,a5
    6168:	00fd0023          	sb	a5,0(s10)
    616c:	b5c1                	j	602c <usb_getkey+0x186>
    616e:	e9479fe3          	bne	a5,s4,600c <usb_getkey+0x166>
    6172:	00074d03          	lbu	s10,0(a4)
    6176:	ffed7d13          	andi	s10,s10,-2
    617a:	01a70023          	sb	s10,0(a4)
    617e:	bfe9                	j	6158 <usb_getkey+0x2b2>
    6180:	eb8796e3          	bne	a5,s8,602c <usb_getkey+0x186>
    6184:	01da8023          	sb	t4,0(s5)
    6188:	b555                	j	602c <usb_getkey+0x186>
    618a:	000d0023          	sb	zero,0(s10)
    618e:	bd79                	j	602c <usb_getkey+0x186>
    6190:	4d01                	li	s10,0
    6192:	b3c9                	j	5f54 <usb_getkey+0xae>
    6194:	88018b23          	sb	zero,-1898(gp) # 20000106 <lastkeycode>
    6198:	b325                	j	5ec0 <usb_getkey+0x1a>
    619a:	87c18793          	addi	a5,gp,-1924 # 200000ec <tk80funckey>
    619e:	97a2                	add	a5,a5,s0
    61a0:	fc67c783          	lbu	a5,-58(a5)
    61a4:	fff7c793          	not	a5,a5
    61a8:	a33c                	sb	a5,2(a4)
    61aa:	02900793          	li	a5,41
    61ae:	d0f418e3          	bne	s0,a5,5ebe <usb_getkey+0x18>
    61b2:	000a8023          	sb	zero,0(s5)
    61b6:	b321                	j	5ebe <usb_getkey+0x18>
    61b8:	08800713          	li	a4,136
    61bc:	f2e412e3          	bne	s0,a4,60e0 <usb_getkey+0x23a>
    61c0:	89618713          	addi	a4,gp,-1898 # 20000106 <lastkeycode>
    61c4:	231c                	lbu	a5,0(a4)
    61c6:	fe8782e3          	beq	a5,s0,61aa <usb_getkey+0x304>
    61ca:	89518793          	addi	a5,gp,-1899 # 20000105 <kbmodify>
    61ce:	2394                	lbu	a3,0(a5)
    61d0:	f8800613          	li	a2,-120
    61d4:	a310                	sb	a2,0(a4)
    61d6:	0016b713          	seqz	a4,a3
    61da:	a398                	sb	a4,0(a5)
    61dc:	b1cd                	j	5ebe <usb_getkey+0x18>
    61de:	08700713          	li	a4,135
    61e2:	fce414e3          	bne	s0,a4,61aa <usb_getkey+0x304>
    61e6:	cc059ce3          	bnez	a1,5ebe <usb_getkey+0x18>
    61ea:	89618b13          	addi	s6,gp,-1898 # 20000106 <lastkeycode>
    61ee:	000b4703          	lbu	a4,0(s6)
    61f2:	cc8706e3          	beq	a4,s0,5ebe <usb_getkey+0x18>
    61f6:	8951c683          	lbu	a3,-1899(gp) # 20000105 <kbmodify>
    61fa:	4705                	li	a4,1
    61fc:	00e69963          	bne	a3,a4,620e <usb_getkey+0x368>
    6200:	23b8                	lbu	a4,2(a5)
    6202:	fdb00693          	li	a3,-37
    6206:	a394                	sb	a3,0(a5)
    6208:	02076713          	ori	a4,a4,32
    620c:	a3b8                	sb	a4,2(a5)
    620e:	f8700793          	li	a5,-121
    6212:	00fb0023          	sb	a5,0(s6)
    6216:	b165                	j	5ebe <usb_getkey+0x18>
    6218:	21818793          	addi	a5,gp,536 # 20000a88 <cpu>
    621c:	0237c783          	lbu	a5,35(a5)
    6220:	0207f793          	andi	a5,a5,32
    6224:	e791                	bnez	a5,6230 <usb_getkey+0x38a>
    6226:	04800793          	li	a5,72
    622a:	00fb0023          	sb	a5,0(s6)
    622e:	bfb5                	j	61aa <usb_getkey+0x304>
    6230:	0ff00593          	li	a1,255
    6234:	21818513          	addi	a0,gp,536 # 20000a88 <cpu>
    6238:	a10ff0ef          	jal	ra,5448 <i8080_interrupt>
    623c:	b7ed                	j	6226 <usb_getkey+0x380>

0000623e <usb_keyboard>:
    623e:	f03f92ef          	jal	t0,140 <__riscv_save_12>
    6242:	f781c503          	lbu	a0,-136(gp) # 200007e8 <RootHubDev>
    6246:	1101                	addi	sp,sp,-32
    6248:	ccffa0ef          	jal	ra,f16 <USBFSH_CheckRootHubPortStatus>
    624c:	4785                	li	a5,1
    624e:	8daa                	mv	s11,a0
    6250:	06f50063          	beq	a0,a5,62b0 <usb_keyboard+0x72>
    6254:	c515                	beqz	a0,6280 <usb_keyboard+0x42>
    6256:	f781c783          	lbu	a5,-136(gp) # 200007e8 <RootHubDev>
    625a:	4709                	li	a4,2
    625c:	00f77f63          	bgeu	a4,a5,627a <usb_keyboard+0x3c>
    6260:	f7818913          	addi	s2,gp,-136 # 200007e8 <RootHubDev>
    6264:	00194783          	lbu	a5,1(s2)
    6268:	00594683          	lbu	a3,5(s2)
    626c:	470d                	li	a4,3
    626e:	c036                	sw	a3,0(sp)
    6270:	18e78f63          	beq	a5,a4,640e <usb_keyboard+0x1d0>
    6274:	4725                	li	a4,9
    6276:	06e78363          	beq	a5,a4,62dc <usb_keyboard+0x9e>
    627a:	6105                	addi	sp,sp,32
    627c:	f01f906f          	j	17c <__riscv_restore_12>
    6280:	f7818793          	addi	a5,gp,-136 # 200007e8 <RootHubDev>
    6284:	33c0                	lbu	s0,5(a5)
    6286:	467d                	li	a2,31
    6288:	4581                	li	a1,0
    628a:	f7818513          	addi	a0,gp,-136 # 200007e8 <RootHubDev>
    628e:	f13f90ef          	jal	ra,1a0 <memset>
    6292:	08600793          	li	a5,134
    6296:	02f40433          	mul	s0,s0,a5
    629a:	cd818513          	addi	a0,gp,-808 # 20000548 <HostCtl>
    629e:	08600613          	li	a2,134
    62a2:	4581                	li	a1,0
    62a4:	9522                	add	a0,a0,s0
    62a6:	efbf90ef          	jal	ra,1a0 <memset>
    62aa:	6105                	addi	sp,sp,32
    62ac:	ed1f906f          	j	17c <__riscv_restore_12>
    62b0:	f7818913          	addi	s2,gp,-136 # 200007e8 <RootHubDev>
    62b4:	f6a18c23          	sb	a0,-136(gp) # 200007e8 <RootHubDev>
    62b8:	000902a3          	sb	zero,5(s2)
    62bc:	958fa0ef          	jal	ra,414 <USBH_EnumRootDevice>
    62c0:	8daa                	mv	s11,a0
    62c2:	12051f63          	bnez	a0,6400 <usb_keyboard+0x1c2>
    62c6:	00194403          	lbu	s0,1(s2)
    62ca:	448d                	li	s1,3
    62cc:	44940f63          	beq	s0,s1,672a <usb_keyboard+0x4ec>
    62d0:	47a5                	li	a5,9
    62d2:	46f40f63          	beq	s0,a5,6750 <usb_keyboard+0x512>
    62d6:	f6918c23          	sb	s1,-136(gp) # 200007e8 <RootHubDev>
    62da:	b745                	j	627a <usb_keyboard+0x3c>
    62dc:	4702                	lw	a4,0(sp)
    62de:	08600793          	li	a5,134
    62e2:	02f70cb3          	mul	s9,a4,a5
    62e6:	cd818413          	addi	s0,gp,-808 # 20000548 <HostCtl>
    62ea:	019404b3          	add	s1,s0,s9
    62ee:	0224c783          	lbu	a5,34(s1)
    62f2:	2cf8                	lbu	a4,30(s1)
    62f4:	28e7fa63          	bgeu	a5,a4,6588 <usb_keyboard+0x34a>
    62f8:	00694783          	lbu	a5,6(s2)
    62fc:	4981                	li	s3,0
    62fe:	dfb5                	beqz	a5,627a <usb_keyboard+0x3c>
    6300:	4b8d                	li	s7,3
    6302:	20000b37          	lui	s6,0x20000
    6306:	a801                	j	6316 <usb_keyboard+0xd8>
    6308:	00694783          	lbu	a5,6(s2)
    630c:	0985                	addi	s3,s3,1
    630e:	0ff9f993          	andi	s3,s3,255
    6312:	f6f9f4e3          	bgeu	s3,a5,627a <usb_keyboard+0x3c>
    6316:	00199493          	slli	s1,s3,0x1
    631a:	94ce                	add	s1,s1,s3
    631c:	0486                	slli	s1,s1,0x1
    631e:	94ca                	add	s1,s1,s2
    6320:	30fc                	lbu	a5,7(s1)
    6322:	ff7793e3          	bne	a5,s7,6308 <usb_keyboard+0xca>
    6326:	249c                	lbu	a5,8(s1)
    6328:	ff7790e3          	bne	a5,s7,6308 <usb_keyboard+0xca>
    632c:	24dc                	lbu	a5,12(s1)
    632e:	08600713          	li	a4,134
    6332:	02e78cb3          	mul	s9,a5,a4
    6336:	c43e                	sw	a5,8(sp)
    6338:	01940c33          	add	s8,s0,s9
    633c:	000c4783          	lbu	a5,0(s8)
    6340:	d7e1                	beqz	a5,6308 <usb_keyboard+0xca>
    6342:	4a81                	li	s5,0
    6344:	c066                	sw	s9,0(sp)
    6346:	c262                	sw	s8,4(sp)
    6348:	005a9a13          	slli	s4,s5,0x5
    634c:	4782                	lw	a5,0(sp)
    634e:	9a56                	add	s4,s4,s5
    6350:	001a1713          	slli	a4,s4,0x1
    6354:	00f70833          	add	a6,a4,a5
    6358:	9822                	add	a6,a6,s0
    635a:	00884683          	lbu	a3,8(a6)
    635e:	01ac8a13          	addi	s4,s9,26 # 1001a <_data_lma+0x201a>
    6362:	4d01                	li	s10,0
    6364:	8c42                	mv	s8,a6
    6366:	9a3a                	add	s4,s4,a4
    6368:	ea91                	bnez	a3,637c <usb_keyboard+0x13e>
    636a:	a4f9                	j	6638 <usb_keyboard+0x3fa>
    636c:	008c4703          	lbu	a4,8(s8)
    6370:	001d0793          	addi	a5,s10,1
    6374:	0ff7fd13          	andi	s10,a5,255
    6378:	2ced7063          	bgeu	s10,a4,6638 <usb_keyboard+0x3fa>
    637c:	01ac0733          	add	a4,s8,s10
    6380:	02274683          	lbu	a3,34(a4)
    6384:	2f70                	lbu	a2,30(a4)
    6386:	fec6e3e3          	bltu	a3,a2,636c <usb_keyboard+0x12e>
    638a:	02c6f6b3          	remu	a3,a3,a2
    638e:	3488                	lbu	a0,9(s1)
    6390:	02d70123          	sb	a3,34(a4)
    6394:	bb3fa0ef          	jal	ra,f46 <USBFSH_SetSelfAddr>
    6398:	24a8                	lbu	a0,10(s1)
    639a:	bc1fa0ef          	jal	ra,f5a <USBFSH_SetSelfSpeed>
    639e:	00394883          	lbu	a7,3(s2)
    63a2:	01aa05b3          	add	a1,s4,s10
    63a6:	01ac0733          	add	a4,s8,s10
    63aa:	50000537          	lui	a0,0x50000
    63ae:	01e10693          	addi	a3,sp,30
    63b2:	134b0613          	addi	a2,s6,308 # 20000134 <Com_Buf>
    63b6:	95a2                	add	a1,a1,s0
    63b8:	00088863          	beqz	a7,63c8 <usb_keyboard+0x18a>
    63bc:	00154883          	lbu	a7,1(a0) # 50000001 <_eusrstack+0x2fffb001>
    63c0:	0fb8f893          	andi	a7,a7,251
    63c4:	011500a3          	sb	a7,1(a0)
    63c8:	3708                	lbu	a0,9(a4)
    63ca:	88efb0ef          	jal	ra,1458 <USBFSH_GetEndpData>
    63ce:	8daa                	mv	s11,a0
    63d0:	4685                	li	a3,1
    63d2:	4759                	li	a4,22
    63d4:	24051e63          	bnez	a0,6630 <usb_keyboard+0x3f2>
    63d8:	002c4703          	lbu	a4,2(s8)
    63dc:	f8d718e3          	bne	a4,a3,636c <usb_keyboard+0x12e>
    63e0:	87b4                	lhu	a3,30(sp)
    63e2:	4522                	lw	a0,8(sp)
    63e4:	134b0613          	addi	a2,s6,308
    63e8:	85d6                	mv	a1,s5
    63ea:	abdff0ef          	jal	ra,5ea6 <usb_getkey>
    63ee:	042c4703          	lbu	a4,66(s8)
    63f2:	df2d                	beqz	a4,636c <usb_keyboard+0x12e>
    63f4:	34ac                	lbu	a1,11(s1)
    63f6:	4522                	lw	a0,8(sp)
    63f8:	8656                	mv	a2,s5
    63fa:	8d7fa0ef          	jal	ra,cd0 <KB_SetReport>
    63fe:	b7bd                	j	636c <usb_keyboard+0x12e>
    6400:	47d9                	li	a5,22
    6402:	e4f50ae3          	beq	a0,a5,6256 <usb_keyboard+0x18>
    6406:	4789                	li	a5,2
    6408:	f6f18c23          	sb	a5,-136(gp) # 200007e8 <RootHubDev>
    640c:	b5bd                	j	627a <usb_keyboard+0x3c>
    640e:	08600c13          	li	s8,134
    6412:	03868c33          	mul	s8,a3,s8
    6416:	cd818413          	addi	s0,gp,-808 # 20000548 <HostCtl>
    641a:	01840bb3          	add	s7,s0,s8
    641e:	c65e                	sw	s7,12(sp)
    6420:	000bc783          	lbu	a5,0(s7)
    6424:	e4078be3          	beqz	a5,627a <usb_keyboard+0x3c>
    6428:	01ac0793          	addi	a5,s8,26
    642c:	c262                	sw	s8,4(sp)
    642e:	4981                	li	s3,0
    6430:	c43e                	sw	a5,8(sp)
    6432:	20000a37          	lui	s4,0x20000
    6436:	4792                	lw	a5,4(sp)
    6438:	00599493          	slli	s1,s3,0x5
    643c:	94ce                	add	s1,s1,s3
    643e:	0486                	slli	s1,s1,0x1
    6440:	00f488b3          	add	a7,s1,a5
    6444:	98a2                	add	a7,a7,s0
    6446:	0088c783          	lbu	a5,8(a7)
    644a:	c7c1                	beqz	a5,64d2 <usb_keyboard+0x294>
    644c:	47a2                	lw	a5,8(sp)
    644e:	4c85                	li	s9,1
    6450:	8d46                	mv	s10,a7
    6452:	94be                	add	s1,s1,a5
    6454:	4ad9                	li	s5,22
    6456:	a809                	j	6468 <usb_keyboard+0x22a>
    6458:	008d4703          	lbu	a4,8(s10)
    645c:	06ecfb63          	bgeu	s9,a4,64d2 <usb_keyboard+0x294>
    6460:	001c8793          	addi	a5,s9,1
    6464:	0ff7fc93          	andi	s9,a5,255
    6468:	fffc8593          	addi	a1,s9,-1
    646c:	0ff5f593          	andi	a1,a1,255
    6470:	00bd0c33          	add	s8,s10,a1
    6474:	022c4683          	lbu	a3,34(s8)
    6478:	01ec4803          	lbu	a6,30(s8)
    647c:	fd06eee3          	bltu	a3,a6,6458 <usb_keyboard+0x21a>
    6480:	0306f833          	remu	a6,a3,a6
    6484:	009c4503          	lbu	a0,9(s8)
    6488:	95a6                	add	a1,a1,s1
    648a:	01e10693          	addi	a3,sp,30
    648e:	134a0613          	addi	a2,s4,308 # 20000134 <Com_Buf>
    6492:	95a2                	add	a1,a1,s0
    6494:	030c0123          	sb	a6,34(s8)
    6498:	fc1fa0ef          	jal	ra,1458 <USBFSH_GetEndpData>
    649c:	8daa                	mv	s11,a0
    649e:	e529                	bnez	a0,64e8 <usb_keyboard+0x2aa>
    64a0:	002d4683          	lbu	a3,2(s10)
    64a4:	4705                	li	a4,1
    64a6:	fae699e3          	bne	a3,a4,6458 <usb_keyboard+0x21a>
    64aa:	87b4                	lhu	a3,30(sp)
    64ac:	4502                	lw	a0,0(sp)
    64ae:	134a0613          	addi	a2,s4,308
    64b2:	85ce                	mv	a1,s3
    64b4:	9f3ff0ef          	jal	ra,5ea6 <usb_getkey>
    64b8:	042d4703          	lbu	a4,66(s10)
    64bc:	df51                	beqz	a4,6458 <usb_keyboard+0x21a>
    64be:	00494583          	lbu	a1,4(s2)
    64c2:	4502                	lw	a0,0(sp)
    64c4:	864e                	mv	a2,s3
    64c6:	80bfa0ef          	jal	ra,cd0 <KB_SetReport>
    64ca:	008d4703          	lbu	a4,8(s10)
    64ce:	f8ece9e3          	bltu	s9,a4,6460 <usb_keyboard+0x222>
    64d2:	47d9                	li	a5,22
    64d4:	dafd83e3          	beq	s11,a5,627a <usb_keyboard+0x3c>
    64d8:	000bc783          	lbu	a5,0(s7)
    64dc:	0985                	addi	s3,s3,1
    64de:	0ff9f993          	andi	s3,s3,255
    64e2:	f4f9eae3          	bltu	s3,a5,6436 <usb_keyboard+0x1f8>
    64e6:	bb51                	j	627a <usb_keyboard+0x3c>
    64e8:	d95509e3          	beq	a0,s5,627a <usb_keyboard+0x3c>
    64ec:	02e00693          	li	a3,46
    64f0:	f6d514e3          	bne	a0,a3,6458 <usb_keyboard+0x21a>
    64f4:	009c4583          	lbu	a1,9(s8)
    64f8:	00494503          	lbu	a0,4(s2)
    64fc:	0805e593          	ori	a1,a1,128
    6500:	f39fa0ef          	jal	ra,1438 <USBFSH_ClearEndpStall>
    6504:	000c0d23          	sb	zero,26(s8)
    6508:	001bc683          	lbu	a3,1(s7)
    650c:	4625                	li	a2,9
    650e:	0685                	addi	a3,a3,1
    6510:	0ff6f693          	andi	a3,a3,255
    6514:	00db80a3          	sb	a3,1(s7)
    6518:	f4d670e3          	bgeu	a2,a3,6458 <usb_keyboard+0x21a>
    651c:	467d                	li	a2,31
    651e:	4581                	li	a1,0
    6520:	f7818513          	addi	a0,gp,-136 # 200007e8 <RootHubDev>
    6524:	c7df90ef          	jal	ra,1a0 <memset>
    6528:	eedf90ef          	jal	ra,414 <USBH_EnumRootDevice>
    652c:	8daa                	mv	s11,a0
    652e:	c519                	beqz	a0,653c <usb_keyboard+0x2fe>
    6530:	055d8663          	beq	s11,s5,657c <usb_keyboard+0x33e>
    6534:	4709                	li	a4,2
    6536:	f6e18c23          	sb	a4,-136(gp) # 200007e8 <RootHubDev>
    653a:	bf39                	j	6458 <usb_keyboard+0x21a>
    653c:	009c4583          	lbu	a1,9(s8)
    6540:	00494503          	lbu	a0,4(s2)
    6544:	0805e593          	ori	a1,a1,128
    6548:	ef1fa0ef          	jal	ra,1438 <USBFSH_ClearEndpStall>
    654c:	4532                	lw	a0,12(sp)
    654e:	4705                	li	a4,1
    6550:	000b80a3          	sb	zero,1(s7)
    6554:	08600613          	li	a2,134
    6558:	4581                	li	a1,0
    655a:	f6e18c23          	sb	a4,-136(gp) # 200007e8 <RootHubDev>
    655e:	000902a3          	sb	zero,5(s2)
    6562:	c3ff90ef          	jal	ra,1a0 <memset>
    6566:	00494583          	lbu	a1,4(s2)
    656a:	4502                	lw	a0,0(sp)
    656c:	801fa0ef          	jal	ra,d6c <USBH_EnumHidDevice>
    6570:	8daa                	mv	s11,a0
    6572:	fd5d                	bnez	a0,6530 <usb_keyboard+0x2f2>
    6574:	470d                	li	a4,3
    6576:	f6e18c23          	sb	a4,-136(gp) # 200007e8 <RootHubDev>
    657a:	bdf9                	j	6458 <usb_keyboard+0x21a>
    657c:	008d4703          	lbu	a4,8(s10)
    6580:	ceecfde3          	bgeu	s9,a4,627a <usb_keyboard+0x3c>
    6584:	4dd9                	li	s11,22
    6586:	bde9                	j	6460 <usb_keyboard+0x222>
    6588:	02e7f7b3          	remu	a5,a5,a4
    658c:	00294503          	lbu	a0,2(s2)
    6590:	20000c37          	lui	s8,0x20000
    6594:	0ce9                	addi	s9,s9,26
    6596:	02f48123          	sb	a5,34(s1)
    659a:	9adfa0ef          	jal	ra,f46 <USBFSH_SetSelfAddr>
    659e:	00394503          	lbu	a0,3(s2)
    65a2:	9b9fa0ef          	jal	ra,f5a <USBFSH_SetSelfSpeed>
    65a6:	3488                	lbu	a0,9(s1)
    65a8:	01e10693          	addi	a3,sp,30
    65ac:	134c0613          	addi	a2,s8,308 # 20000134 <Com_Buf>
    65b0:	019405b3          	add	a1,s0,s9
    65b4:	ea5fa0ef          	jal	ra,1458 <USBFSH_GetEndpData>
    65b8:	8daa                	mv	s11,a0
    65ba:	d2051fe3          	bnez	a0,62f8 <usb_keyboard+0xba>
    65be:	134c4783          	lbu	a5,308(s8)
    65c2:	4d01                	li	s10,0
    65c4:	4ad9                	li	s5,22
    65c6:	00f10ea3          	sb	a5,29(sp)
    65ca:	4b55                	li	s6,21
    65cc:	4b8d                	li	s7,3
    65ce:	4a05                	li	s4,1
    65d0:	00694783          	lbu	a5,6(s2)
    65d4:	d2fd74e3          	bgeu	s10,a5,62fc <usb_keyboard+0xbe>
    65d8:	001d0493          	addi	s1,s10,1
    65dc:	0ff4f993          	andi	s3,s1,255
    65e0:	01d10593          	addi	a1,sp,29
    65e4:	854e                	mv	a0,s3
    65e6:	d26fa0ef          	jal	ra,b0c <HUB_Port_PreEnum1>
    65ea:	8daa                	mv	s11,a0
    65ec:	0f550363          	beq	a0,s5,66d2 <usb_keyboard+0x494>
    65f0:	06400513          	li	a0,100
    65f4:	613000ef          	jal	ra,7406 <Delay_Ms>
    65f8:	01d10593          	addi	a1,sp,29
    65fc:	854e                	mv	a0,s3
    65fe:	d2afa0ef          	jal	ra,b28 <HUB_Port_PreEnum2>
    6602:	8daa                	mv	s11,a0
    6604:	001d1c93          	slli	s9,s10,0x1
    6608:	05650363          	beq	a0,s6,664e <usb_keyboard+0x410>
    660c:	01ac8633          	add	a2,s9,s10
    6610:	01d14583          	lbu	a1,29(sp)
    6614:	0606                	slli	a2,a2,0x1
    6616:	009a17b3          	sll	a5,s4,s1
    661a:	964a                	add	a2,a2,s2
    661c:	fff7c793          	not	a5,a5
    6620:	3270                	lbu	a2,7(a2)
    6622:	8fed                	and	a5,a5,a1
    6624:	00f10ea3          	sb	a5,29(sp)
    6628:	03460d63          	beq	a2,s4,6662 <usb_keyboard+0x424>
    662c:	8d4e                	mv	s10,s3
    662e:	b74d                	j	65d0 <usb_keyboard+0x392>
    6630:	d2e51ee3          	bne	a0,a4,636c <usb_keyboard+0x12e>
    6634:	4dd9                	li	s11,22
    6636:	b9c9                	j	6308 <usb_keyboard+0xca>
    6638:	47d9                	li	a5,22
    663a:	fefd8de3          	beq	s11,a5,6634 <usb_keyboard+0x3f6>
    663e:	4792                	lw	a5,4(sp)
    6640:	0a85                	addi	s5,s5,1
    6642:	0ffafa93          	andi	s5,s5,255
    6646:	239c                	lbu	a5,0(a5)
    6648:	d0fae0e3          	bltu	s5,a5,6348 <usb_keyboard+0x10a>
    664c:	b975                	j	6308 <usb_keyboard+0xca>
    664e:	01ac87b3          	add	a5,s9,s10
    6652:	0786                	slli	a5,a5,0x1
    6654:	97ca                	add	a5,a5,s2
    6656:	4705                	li	a4,1
    6658:	4621                	li	a2,8
    665a:	b3f8                	sb	a4,7(a5)
    665c:	b7b0                	sb	a2,11(a5)
    665e:	01378623          	sb	s3,12(a5)
    6662:	01ac84b3          	add	s1,s9,s10
    6666:	134c0593          	addi	a1,s8,308
    666a:	854e                	mv	a0,s3
    666c:	0486                	slli	s1,s1,0x1
    666e:	d60fa0ef          	jal	ra,bce <HUB_CheckPortSpeed>
    6672:	94ca                	add	s1,s1,s2
    6674:	a4a8                	sb	a0,10(s1)
    6676:	3488                	lbu	a0,9(s1)
    6678:	8cffa0ef          	jal	ra,f46 <USBFSH_SetSelfAddr>
    667c:	24a8                	lbu	a0,10(s1)
    667e:	8ddfa0ef          	jal	ra,f5a <USBFSH_SetSelfSpeed>
    6682:	00394783          	lbu	a5,3(s2)
    6686:	c799                	beqz	a5,6694 <usb_keyboard+0x456>
    6688:	50000737          	lui	a4,0x50000
    668c:	331c                	lbu	a5,1(a4)
    668e:	0fb7f793          	andi	a5,a5,251
    6692:	b31c                	sb	a5,1(a4)
    6694:	01ac84b3          	add	s1,s9,s10
    6698:	0486                	slli	s1,s1,0x1
    669a:	00848613          	addi	a2,s1,8
    669e:	00948593          	addi	a1,s1,9
    66a2:	964a                	add	a2,a2,s2
    66a4:	95ca                	add	a1,a1,s2
    66a6:	856a                	mv	a0,s10
    66a8:	d50fa0ef          	jal	ra,bf8 <USBH_EnumHubPortDevice>
    66ac:	8daa                	mv	s11,a0
    66ae:	94ca                	add	s1,s1,s2
    66b0:	e945                	bnez	a0,6760 <usb_keyboard+0x522>
    66b2:	249c                	lbu	a5,8(s1)
    66b4:	01778663          	beq	a5,s7,66c0 <usb_keyboard+0x482>
    66b8:	017483a3          	sb	s7,7(s1)
    66bc:	8d4e                	mv	s10,s3
    66be:	bf09                	j	65d0 <usb_keyboard+0x392>
    66c0:	34ac                	lbu	a1,11(s1)
    66c2:	24c8                	lbu	a0,12(s1)
    66c4:	ea8fa0ef          	jal	ra,d6c <USBH_EnumHidDevice>
    66c8:	8daa                	mv	s11,a0
    66ca:	f12d                	bnez	a0,662c <usb_keyboard+0x3ee>
    66cc:	017483a3          	sb	s7,7(s1)
    66d0:	b7f5                	j	66bc <usb_keyboard+0x47e>
    66d2:	001d1793          	slli	a5,s10,0x1
    66d6:	97ea                	add	a5,a5,s10
    66d8:	00179c93          	slli	s9,a5,0x1
    66dc:	01990733          	add	a4,s2,s9
    66e0:	2748                	lbu	a0,12(a4)
    66e2:	08600713          	li	a4,134
    66e6:	01d14683          	lbu	a3,29(sp)
    66ea:	02e50533          	mul	a0,a0,a4
    66ee:	009a1733          	sll	a4,s4,s1
    66f2:	fff74713          	not	a4,a4
    66f6:	8f75                	and	a4,a4,a3
    66f8:	08600613          	li	a2,134
    66fc:	4581                	li	a1,0
    66fe:	00e10ea3          	sb	a4,29(sp)
    6702:	8d4e                	mv	s10,s3
    6704:	9522                	add	a0,a0,s0
    6706:	a9bf90ef          	jal	ra,1a0 <memset>
    670a:	007c8793          	addi	a5,s9,7
    670e:	97ca                	add	a5,a5,s2
    6710:	00078023          	sb	zero,0(a5)
    6714:	000780a3          	sb	zero,1(a5)
    6718:	00078123          	sb	zero,2(a5)
    671c:	000781a3          	sb	zero,3(a5)
    6720:	00078223          	sb	zero,4(a5)
    6724:	000782a3          	sb	zero,5(a5)
    6728:	b565                	j	65d0 <usb_keyboard+0x392>
    672a:	00494583          	lbu	a1,4(s2)
    672e:	00594503          	lbu	a0,5(s2)
    6732:	e3afa0ef          	jal	ra,d6c <USBH_EnumHidDevice>
    6736:	e511                	bnez	a0,6742 <usb_keyboard+0x504>
    6738:	f6818c23          	sb	s0,-136(gp) # 200007e8 <RootHubDev>
    673c:	00194783          	lbu	a5,1(s2)
    6740:	b625                	j	6268 <usb_keyboard+0x2a>
    6742:	47d9                	li	a5,22
    6744:	ccf511e3          	bne	a0,a5,6406 <usb_keyboard+0x1c8>
    6748:	f781c783          	lbu	a5,-136(gp) # 200007e8 <RootHubDev>
    674c:	4dd9                	li	s11,22
    674e:	b631                	j	625a <usb_keyboard+0x1c>
    6750:	ac8fa0ef          	jal	ra,a18 <USBH_EnumHubDevice>
    6754:	f57d                	bnez	a0,6742 <usb_keyboard+0x504>
    6756:	f6918c23          	sb	s1,-136(gp) # 200007e8 <RootHubDev>
    675a:	00194783          	lbu	a5,1(s2)
    675e:	b629                	j	6268 <usb_keyboard+0x2a>
    6760:	4789                	li	a5,2
    6762:	b0fc                	sb	a5,7(s1)
    6764:	8d4e                	mv	s10,s3
    6766:	b5ad                	j	65d0 <usb_keyboard+0x392>

00006768 <USART_CFG>:
    6768:	a09f92ef          	jal	t0,170 <__riscv_save_0>
    676c:	1101                	addi	sp,sp,-32
    676e:	4585                	li	a1,1
    6770:	00020537          	lui	a0,0x20
    6774:	c202                	sw	zero,4(sp)
    6776:	c402                	sw	zero,8(sp)
    6778:	c602                	sw	zero,12(sp)
    677a:	c802                	sw	zero,16(sp)
    677c:	ca02                	sw	zero,20(sp)
    677e:	cc02                	sw	zero,24(sp)
    6780:	ce02                	sw	zero,28(sp)
    6782:	7fe000ef          	jal	ra,6f80 <RCC_APB1PeriphClockCmd>
    6786:	4585                	li	a1,1
    6788:	4511                	li	a0,4
    678a:	7d8000ef          	jal	ra,6f62 <RCC_APB2PeriphClockCmd>
    678e:	4791                	li	a5,4
    6790:	40011437          	lui	s0,0x40011
    6794:	827c                	sh	a5,4(sp)
    6796:	478d                	li	a5,3
    6798:	004c                	addi	a1,sp,4
    679a:	80040513          	addi	a0,s0,-2048 # 40010800 <_eusrstack+0x2000b800>
    679e:	c43e                	sw	a5,8(sp)
    67a0:	47e1                	li	a5,24
    67a2:	c63e                	sw	a5,12(sp)
    67a4:	21c1                	jal	6c64 <GPIO_Init>
    67a6:	47a1                	li	a5,8
    67a8:	004c                	addi	a1,sp,4
    67aa:	80040513          	addi	a0,s0,-2048
    67ae:	827c                	sh	a5,4(sp)
    67b0:	4791                	li	a5,4
    67b2:	c63e                	sw	a5,12(sp)
    67b4:	2945                	jal	6c64 <GPIO_Init>
    67b6:	67f1                	lui	a5,0x1c
    67b8:	40004437          	lui	s0,0x40004
    67bc:	20078793          	addi	a5,a5,512 # 1c200 <_data_lma+0xe200>
    67c0:	080c                	addi	a1,sp,16
    67c2:	40040513          	addi	a0,s0,1024 # 40004400 <_eusrstack+0x1ffff400>
    67c6:	c83e                	sw	a5,16(sp)
    67c8:	000c07b7          	lui	a5,0xc0
    67cc:	cc3e                	sw	a5,24(sp)
    67ce:	ca02                	sw	zero,20(sp)
    67d0:	00011e23          	sh	zero,28(sp)
    67d4:	2af000ef          	jal	ra,7282 <USART_Init>
    67d8:	40040513          	addi	a0,s0,1024
    67dc:	4605                	li	a2,1
    67de:	04000593          	li	a1,64
    67e2:	39b000ef          	jal	ra,737c <USART_DMACmd>
    67e6:	4585                	li	a1,1
    67e8:	40040513          	addi	a0,s0,1024
    67ec:	379000ef          	jal	ra,7364 <USART_Cmd>
    67f0:	6105                	addi	sp,sp,32
    67f2:	9a3f906f          	j	194 <__riscv_restore_0>

000067f6 <DMA_Rx_Init>:
    67f6:	961f92ef          	jal	t0,156 <__riscv_save_4>
    67fa:	7179                	addi	sp,sp,-48
    67fc:	842a                	mv	s0,a0
    67fe:	89ae                	mv	s3,a1
    6800:	4505                	li	a0,1
    6802:	4585                	li	a1,1
    6804:	8932                	mv	s2,a2
    6806:	84b6                	mv	s1,a3
    6808:	c202                	sw	zero,4(sp)
    680a:	c402                	sw	zero,8(sp)
    680c:	c602                	sw	zero,12(sp)
    680e:	c802                	sw	zero,16(sp)
    6810:	ca02                	sw	zero,20(sp)
    6812:	cc02                	sw	zero,24(sp)
    6814:	ce02                	sw	zero,28(sp)
    6816:	d002                	sw	zero,32(sp)
    6818:	d202                	sw	zero,36(sp)
    681a:	d402                	sw	zero,40(sp)
    681c:	d602                	sw	zero,44(sp)
    681e:	271d                	jal	6f44 <RCC_AHBPeriphClockCmd>
    6820:	8522                	mv	a0,s0
    6822:	2e15                	jal	6b56 <DMA_DeInit>
    6824:	08000793          	li	a5,128
    6828:	cc3e                	sw	a5,24(sp)
    682a:	02000793          	li	a5,32
    682e:	004c                	addi	a1,sp,4
    6830:	8522                	mv	a0,s0
    6832:	d23e                	sw	a5,36(sp)
    6834:	678d                	lui	a5,0x3
    6836:	d43e                	sw	a5,40(sp)
    6838:	c24e                	sw	s3,4(sp)
    683a:	c44a                	sw	s2,8(sp)
    683c:	c826                	sw	s1,16(sp)
    683e:	c602                	sw	zero,12(sp)
    6840:	ca02                	sw	zero,20(sp)
    6842:	ce02                	sw	zero,28(sp)
    6844:	d002                	sw	zero,32(sp)
    6846:	d602                	sw	zero,44(sp)
    6848:	2e7d                	jal	6c06 <DMA_Init>
    684a:	4585                	li	a1,1
    684c:	8522                	mv	a0,s0
    684e:	2ee5                	jal	6c46 <DMA_Cmd>
    6850:	6145                	addi	sp,sp,48
    6852:	939f906f          	j	18a <__riscv_restore_4>

00006856 <beep_init>:
    6856:	91bf92ef          	jal	t0,170 <__riscv_save_0>
    685a:	1141                	addi	sp,sp,-16
    685c:	4585                	li	a1,1
    685e:	4521                	li	a0,8
    6860:	c202                	sw	zero,4(sp)
    6862:	c402                	sw	zero,8(sp)
    6864:	c602                	sw	zero,12(sp)
    6866:	2df5                	jal	6f62 <RCC_APB2PeriphClockCmd>
    6868:	20000793          	li	a5,512
    686c:	827c                	sh	a5,4(sp)
    686e:	40011537          	lui	a0,0x40011
    6872:	478d                	li	a5,3
    6874:	004c                	addi	a1,sp,4
    6876:	c43e                	sw	a5,8(sp)
    6878:	c0050513          	addi	a0,a0,-1024 # 40010c00 <_eusrstack+0x2000bc00>
    687c:	47c1                	li	a5,16
    687e:	c63e                	sw	a5,12(sp)
    6880:	26d5                	jal	6c64 <GPIO_Init>
    6882:	0141                	addi	sp,sp,16
    6884:	911f906f          	j	194 <__riscv_restore_0>

00006888 <main>:
    6888:	8e9f92ef          	jal	t0,170 <__riscv_save_0>
    688c:	200017b7          	lui	a5,0x20001
    6890:	af078793          	addi	a5,a5,-1296 # 20000af0 <tk80ram>
    6894:	fc300693          	li	a3,-61
    6898:	3cd78ea3          	sb	a3,989(a5)
    689c:	6705                	lui	a4,0x1
    689e:	15100693          	li	a3,337
    68a2:	973e                	add	a4,a4,a5
    68a4:	3cd79f23          	sh	a3,990(a5)
    68a8:	77f1                	lui	a5,0xffffc
    68aa:	f1a78793          	addi	a5,a5,-230 # ffffbf1a <_eusrstack+0xdfff6f1a>
    68ae:	21818513          	addi	a0,gp,536 # 20000a88 <cpu>
    68b2:	80f71223          	sh	a5,-2044(a4) # 804 <KM_AnalyzeHidReportDesc+0xaa>
    68b6:	b17fe0ef          	jal	ra,53cc <i8080_init>
    68ba:	000057b7          	lui	a5,0x5
    68be:	00005737          	lui	a4,0x5
    68c2:	21818413          	addi	s0,gp,536 # 20000a88 <cpu>
    68c6:	49c78793          	addi	a5,a5,1180 # 549c <memread>
    68ca:	61270713          	addi	a4,a4,1554 # 5612 <memwrite>
    68ce:	c01c                	sw	a5,0(s0)
    68d0:	c058                	sw	a4,4(s0)
    68d2:	e000f7b7          	lui	a5,0xe000f
    68d6:	4681                	li	a3,0
    68d8:	c794                	sw	a3,8(a5)
    68da:	4701                	li	a4,0
    68dc:	c7d8                	sw	a4,12(a5)
    68de:	4398                	lw	a4,0(a5)
    68e0:	4485                	li	s1,1
    68e2:	00176713          	ori	a4,a4,1
    68e6:	c398                	sw	a4,0(a5)
    68e8:	000057b7          	lui	a5,0x5
    68ec:	45a78793          	addi	a5,a5,1114 # 545a <ioread>
    68f0:	c41c                	sw	a5,8(s0)
    68f2:	000057b7          	lui	a5,0x5
    68f6:	6c078793          	addi	a5,a5,1728 # 56c0 <iowrite>
    68fa:	c45c                	sw	a5,12(s0)
    68fc:	2a7000ef          	jal	ra,73a2 <Delay_Init>
    6900:	4509                	li	a0,2
    6902:	2159                	jal	6d88 <NVIC_PriorityGroupConfig>
    6904:	e65ff0ef          	jal	ra,6768 <USART_CFG>
    6908:	400045b7          	lui	a1,0x40004
    690c:	40020537          	lui	a0,0x40020
    6910:	04000693          	li	a3,64
    6914:	24018613          	addi	a2,gp,576 # 20000ab0 <rxbuff>
    6918:	40458593          	addi	a1,a1,1028 # 40004404 <_eusrstack+0x1ffff404>
    691c:	06c50513          	addi	a0,a0,108 # 4002006c <_eusrstack+0x2001b06c>
    6920:	ed7ff0ef          	jal	ra,67f6 <DMA_Rx_Init>
    6924:	d36fa0ef          	jal	ra,e5a <USBFS_RCC_Init>
    6928:	4505                	li	a0,1
    692a:	da2fa0ef          	jal	ra,ecc <USBFS_Host_Init>
    692e:	467d                	li	a2,31
    6930:	4581                	li	a1,0
    6932:	f7818513          	addi	a0,gp,-136 # 200007e8 <RootHubDev>
    6936:	86bf90ef          	jal	ra,1a0 <memset>
    693a:	29e00613          	li	a2,670
    693e:	4581                	li	a1,0
    6940:	cd818513          	addi	a0,gp,-808 # 20000548 <HostCtl>
    6944:	85df90ef          	jal	ra,1a0 <memset>
    6948:	3739                	jal	6856 <beep_init>
    694a:	89718413          	addi	s0,gp,-1897 # 20000107 <ntsc_blank>
    694e:	df3fe0ef          	jal	ra,5740 <video_init>
    6952:	201c                	lbu	a5,0(s0)
    6954:	fef48fe3          	beq	s1,a5,6952 <main+0xca>
    6958:	201c                	lbu	a5,0(s0)
    695a:	0ff7f793          	andi	a5,a5,255
    695e:	dfed                	beqz	a5,6958 <main+0xd0>
    6960:	8dfff0ef          	jal	ra,623e <usb_keyboard>
    6964:	b7fd                	j	6952 <main+0xca>

00006966 <SystemInit>:
    6966:	400217b7          	lui	a5,0x40021
    696a:	4398                	lw	a4,0(a5)
    696c:	f8ff06b7          	lui	a3,0xf8ff0
    6970:	1141                	addi	sp,sp,-16
    6972:	00176713          	ori	a4,a4,1
    6976:	c398                	sw	a4,0(a5)
    6978:	43d8                	lw	a4,4(a5)
    697a:	40021537          	lui	a0,0x40021
    697e:	000205b7          	lui	a1,0x20
    6982:	8f75                	and	a4,a4,a3
    6984:	c3d8                	sw	a4,4(a5)
    6986:	4398                	lw	a4,0(a5)
    6988:	fef706b7          	lui	a3,0xfef70
    698c:	16fd                	addi	a3,a3,-1
    698e:	8f75                	and	a4,a4,a3
    6990:	c398                	sw	a4,0(a5)
    6992:	4398                	lw	a4,0(a5)
    6994:	fffc06b7          	lui	a3,0xfffc0
    6998:	16fd                	addi	a3,a3,-1
    699a:	8f75                	and	a4,a4,a3
    699c:	c398                	sw	a4,0(a5)
    699e:	43d8                	lw	a4,4(a5)
    69a0:	ff8106b7          	lui	a3,0xff810
    69a4:	16fd                	addi	a3,a3,-1
    69a6:	8f75                	and	a4,a4,a3
    69a8:	c3d8                	sw	a4,4(a5)
    69aa:	009f0737          	lui	a4,0x9f0
    69ae:	c798                	sw	a4,8(a5)
    69b0:	c402                	sw	zero,8(sp)
    69b2:	c602                	sw	zero,12(sp)
    69b4:	4398                	lw	a4,0(a5)
    69b6:	66c1                	lui	a3,0x10
    69b8:	6605                	lui	a2,0x1
    69ba:	8f55                	or	a4,a4,a3
    69bc:	c398                	sw	a4,0(a5)
    69be:	a021                	j	69c6 <SystemInit+0x60>
    69c0:	47a2                	lw	a5,8(sp)
    69c2:	00c78a63          	beq	a5,a2,69d6 <SystemInit+0x70>
    69c6:	411c                	lw	a5,0(a0)
    69c8:	8fed                	and	a5,a5,a1
    69ca:	c63e                	sw	a5,12(sp)
    69cc:	47a2                	lw	a5,8(sp)
    69ce:	0785                	addi	a5,a5,1
    69d0:	c43e                	sw	a5,8(sp)
    69d2:	47b2                	lw	a5,12(sp)
    69d4:	d7f5                	beqz	a5,69c0 <SystemInit+0x5a>
    69d6:	400217b7          	lui	a5,0x40021
    69da:	439c                	lw	a5,0(a5)
    69dc:	00e79713          	slli	a4,a5,0xe
    69e0:	00075a63          	bgez	a4,69f4 <SystemInit+0x8e>
    69e4:	4785                	li	a5,1
    69e6:	c63e                	sw	a5,12(sp)
    69e8:	4732                	lw	a4,12(sp)
    69ea:	4785                	li	a5,1
    69ec:	00f70963          	beq	a4,a5,69fe <SystemInit+0x98>
    69f0:	0141                	addi	sp,sp,16
    69f2:	8082                	ret
    69f4:	c602                	sw	zero,12(sp)
    69f6:	4732                	lw	a4,12(sp)
    69f8:	4785                	li	a5,1
    69fa:	fef71be3          	bne	a4,a5,69f0 <SystemInit+0x8a>
    69fe:	400217b7          	lui	a5,0x40021
    6a02:	43d8                	lw	a4,4(a5)
    6a04:	ffc10637          	lui	a2,0xffc10
    6a08:	167d                	addi	a2,a2,-1
    6a0a:	c3d8                	sw	a4,4(a5)
    6a0c:	43d8                	lw	a4,4(a5)
    6a0e:	c3d8                	sw	a4,4(a5)
    6a10:	43d4                	lw	a3,4(a5)
    6a12:	40021737          	lui	a4,0x40021
    6a16:	4006e693          	ori	a3,a3,1024
    6a1a:	c3d4                	sw	a3,4(a5)
    6a1c:	43d4                	lw	a3,4(a5)
    6a1e:	8ef1                	and	a3,a3,a2
    6a20:	c3d4                	sw	a3,4(a5)
    6a22:	43d4                	lw	a3,4(a5)
    6a24:	00290637          	lui	a2,0x290
    6a28:	8ed1                	or	a3,a3,a2
    6a2a:	c3d4                	sw	a3,4(a5)
    6a2c:	4394                	lw	a3,0(a5)
    6a2e:	01000637          	lui	a2,0x1000
    6a32:	8ed1                	or	a3,a3,a2
    6a34:	c394                	sw	a3,0(a5)
    6a36:	431c                	lw	a5,0(a4)
    6a38:	00679693          	slli	a3,a5,0x6
    6a3c:	fe06dde3          	bgez	a3,6a36 <SystemInit+0xd0>
    6a40:	435c                	lw	a5,4(a4)
    6a42:	40021637          	lui	a2,0x40021
    6a46:	46a1                	li	a3,8
    6a48:	9bf1                	andi	a5,a5,-4
    6a4a:	c35c                	sw	a5,4(a4)
    6a4c:	435c                	lw	a5,4(a4)
    6a4e:	0027e793          	ori	a5,a5,2
    6a52:	c35c                	sw	a5,4(a4)
    6a54:	425c                	lw	a5,4(a2)
    6a56:	8bb1                	andi	a5,a5,12
    6a58:	fed79ee3          	bne	a5,a3,6a54 <SystemInit+0xee>
    6a5c:	0141                	addi	sp,sp,16
    6a5e:	8082                	ret
    6a60:	a001                	j	6a60 <SystemInit+0xfa>
    6a62:	a001                	j	6a62 <SystemInit+0xfc>

00006a64 <Ecall_M_Mode_Handler>:
    6a64:	a001                	j	6a64 <Ecall_M_Mode_Handler>

00006a66 <Ecall_U_Mode_Handler>:
    6a66:	a001                	j	6a66 <Ecall_U_Mode_Handler>

00006a68 <Break_Point_Handler>:
    6a68:	a001                	j	6a68 <Break_Point_Handler>

00006a6a <SysTick_Handler>:
    6a6a:	a001                	j	6a6a <SysTick_Handler>

00006a6c <SW_Handler>:
    6a6c:	a001                	j	6a6c <SW_Handler>

00006a6e <WWDG_IRQHandler>:
    6a6e:	a001                	j	6a6e <WWDG_IRQHandler>

00006a70 <PVD_IRQHandler>:
    6a70:	a001                	j	6a70 <PVD_IRQHandler>

00006a72 <TAMPER_IRQHandler>:
    6a72:	a001                	j	6a72 <TAMPER_IRQHandler>

00006a74 <RTC_IRQHandler>:
    6a74:	a001                	j	6a74 <RTC_IRQHandler>

00006a76 <FLASH_IRQHandler>:
    6a76:	a001                	j	6a76 <FLASH_IRQHandler>

00006a78 <RCC_IRQHandler>:
    6a78:	a001                	j	6a78 <RCC_IRQHandler>

00006a7a <EXTI0_IRQHandler>:
    6a7a:	a001                	j	6a7a <EXTI0_IRQHandler>

00006a7c <EXTI1_IRQHandler>:
    6a7c:	a001                	j	6a7c <EXTI1_IRQHandler>

00006a7e <EXTI2_IRQHandler>:
    6a7e:	a001                	j	6a7e <EXTI2_IRQHandler>

00006a80 <EXTI3_IRQHandler>:
    6a80:	a001                	j	6a80 <EXTI3_IRQHandler>

00006a82 <EXTI4_IRQHandler>:
    6a82:	a001                	j	6a82 <EXTI4_IRQHandler>

00006a84 <DMA1_Channel1_IRQHandler>:
    6a84:	a001                	j	6a84 <DMA1_Channel1_IRQHandler>

00006a86 <DMA1_Channel2_IRQHandler>:
    6a86:	a001                	j	6a86 <DMA1_Channel2_IRQHandler>

00006a88 <DMA1_Channel3_IRQHandler>:
    6a88:	a001                	j	6a88 <DMA1_Channel3_IRQHandler>

00006a8a <DMA1_Channel4_IRQHandler>:
    6a8a:	a001                	j	6a8a <DMA1_Channel4_IRQHandler>

00006a8c <DMA1_Channel5_IRQHandler>:
    6a8c:	a001                	j	6a8c <DMA1_Channel5_IRQHandler>

00006a8e <DMA1_Channel6_IRQHandler>:
    6a8e:	a001                	j	6a8e <DMA1_Channel6_IRQHandler>

00006a90 <DMA1_Channel7_IRQHandler>:
    6a90:	a001                	j	6a90 <DMA1_Channel7_IRQHandler>

00006a92 <ADC1_2_IRQHandler>:
    6a92:	a001                	j	6a92 <ADC1_2_IRQHandler>

00006a94 <USB_HP_CAN1_TX_IRQHandler>:
    6a94:	a001                	j	6a94 <USB_HP_CAN1_TX_IRQHandler>

00006a96 <USB_LP_CAN1_RX0_IRQHandler>:
    6a96:	a001                	j	6a96 <USB_LP_CAN1_RX0_IRQHandler>

00006a98 <CAN1_RX1_IRQHandler>:
    6a98:	a001                	j	6a98 <CAN1_RX1_IRQHandler>

00006a9a <CAN1_SCE_IRQHandler>:
    6a9a:	a001                	j	6a9a <CAN1_SCE_IRQHandler>

00006a9c <EXTI9_5_IRQHandler>:
    6a9c:	a001                	j	6a9c <EXTI9_5_IRQHandler>

00006a9e <TIM1_BRK_IRQHandler>:
    6a9e:	a001                	j	6a9e <TIM1_BRK_IRQHandler>

00006aa0 <TIM1_UP_IRQHandler>:
    6aa0:	a001                	j	6aa0 <TIM1_UP_IRQHandler>

00006aa2 <TIM1_TRG_COM_IRQHandler>:
    6aa2:	a001                	j	6aa2 <TIM1_TRG_COM_IRQHandler>
    6aa4:	a001                	j	6aa4 <TIM1_TRG_COM_IRQHandler+0x2>

00006aa6 <TIM2_IRQHandler>:
    6aa6:	a001                	j	6aa6 <TIM2_IRQHandler>
    6aa8:	a001                	j	6aa8 <TIM2_IRQHandler+0x2>

00006aaa <TIM4_IRQHandler>:
    6aaa:	a001                	j	6aaa <TIM4_IRQHandler>

00006aac <I2C1_EV_IRQHandler>:
    6aac:	a001                	j	6aac <I2C1_EV_IRQHandler>

00006aae <I2C1_ER_IRQHandler>:
    6aae:	a001                	j	6aae <I2C1_ER_IRQHandler>

00006ab0 <I2C2_EV_IRQHandler>:
    6ab0:	a001                	j	6ab0 <I2C2_EV_IRQHandler>

00006ab2 <I2C2_ER_IRQHandler>:
    6ab2:	a001                	j	6ab2 <I2C2_ER_IRQHandler>

00006ab4 <SPI1_IRQHandler>:
    6ab4:	a001                	j	6ab4 <SPI1_IRQHandler>

00006ab6 <SPI2_IRQHandler>:
    6ab6:	a001                	j	6ab6 <SPI2_IRQHandler>

00006ab8 <USART1_IRQHandler>:
    6ab8:	a001                	j	6ab8 <USART1_IRQHandler>

00006aba <USART2_IRQHandler>:
    6aba:	a001                	j	6aba <USART2_IRQHandler>

00006abc <USART3_IRQHandler>:
    6abc:	a001                	j	6abc <USART3_IRQHandler>

00006abe <EXTI15_10_IRQHandler>:
    6abe:	a001                	j	6abe <EXTI15_10_IRQHandler>

00006ac0 <RTCAlarm_IRQHandler>:
    6ac0:	a001                	j	6ac0 <RTCAlarm_IRQHandler>

00006ac2 <USBWakeUp_IRQHandler>:
    6ac2:	a001                	j	6ac2 <USBWakeUp_IRQHandler>

00006ac4 <USBHD_IRQHandler>:
    6ac4:	a001                	j	6ac4 <USBHD_IRQHandler>

00006ac6 <USBHDWakeUp_IRQHandler>:
    6ac6:	a001                	j	6ac6 <USBHDWakeUp_IRQHandler>

00006ac8 <UART4_IRQHandler>:
    6ac8:	a001                	j	6ac8 <UART4_IRQHandler>

00006aca <DMA1_Channel8_IRQHandler>:
    6aca:	a001                	j	6aca <DMA1_Channel8_IRQHandler>

00006acc <handle_reset>:
    6acc:	1fffa197          	auipc	gp,0x1fffa
    6ad0:	da418193          	addi	gp,gp,-604 # 20000870 <__global_pointer$>
    6ad4:	1fffe117          	auipc	sp,0x1fffe
    6ad8:	52c10113          	addi	sp,sp,1324 # 20005000 <_eusrstack>
    6adc:	00007517          	auipc	a0,0x7
    6ae0:	52450513          	addi	a0,a0,1316 # e000 <_data_lma>
    6ae4:	1fff9597          	auipc	a1,0x1fff9
    6ae8:	51c58593          	addi	a1,a1,1308 # 20000000 <_data_vma>
    6aec:	88818613          	addi	a2,gp,-1912 # 200000f8 <_edata>
    6af0:	00c5fa63          	bgeu	a1,a2,6b04 <handle_reset+0x38>
    6af4:	00052283          	lw	t0,0(a0)
    6af8:	0055a023          	sw	t0,0(a1)
    6afc:	0511                	addi	a0,a0,4
    6afe:	0591                	addi	a1,a1,4
    6b00:	fec5eae3          	bltu	a1,a2,6af4 <handle_reset+0x28>
    6b04:	88818513          	addi	a0,gp,-1912 # 200000f8 <_edata>
    6b08:	1fffe597          	auipc	a1,0x1fffe
    6b0c:	fec58593          	addi	a1,a1,-20 # 20004af4 <_ebss>
    6b10:	00b57763          	bgeu	a0,a1,6b1e <handle_reset+0x52>
    6b14:	00052023          	sw	zero,0(a0)
    6b18:	0511                	addi	a0,a0,4
    6b1a:	feb56de3          	bltu	a0,a1,6b14 <handle_reset+0x48>
    6b1e:	42fd                	li	t0,31
    6b20:	bc029073          	csrw	0xbc0,t0
    6b24:	428d                	li	t0,3
    6b26:	80429073          	csrw	0x804,t0
    6b2a:	08800293          	li	t0,136
    6b2e:	3002a073          	csrs	mstatus,t0
    6b32:	ffff9297          	auipc	t0,0xffff9
    6b36:	50628293          	addi	t0,t0,1286 # 38 <_einit>
    6b3a:	0032e293          	ori	t0,t0,3
    6b3e:	30529073          	csrw	mtvec,t0
    6b42:	e25ff0ef          	jal	ra,6966 <SystemInit>
    6b46:	00000297          	auipc	t0,0x0
    6b4a:	d4228293          	addi	t0,t0,-702 # 6888 <main>
    6b4e:	34129073          	csrw	mepc,t0
    6b52:	30200073          	mret

00006b56 <DMA_DeInit>:
    6b56:	411c                	lw	a5,0(a0)
    6b58:	6741                	lui	a4,0x10
    6b5a:	1779                	addi	a4,a4,-2
    6b5c:	8ff9                	and	a5,a5,a4
    6b5e:	c11c                	sw	a5,0(a0)
    6b60:	00052023          	sw	zero,0(a0)
    6b64:	00052223          	sw	zero,4(a0)
    6b68:	00052423          	sw	zero,8(a0)
    6b6c:	400207b7          	lui	a5,0x40020
    6b70:	00052623          	sw	zero,12(a0)
    6b74:	00878713          	addi	a4,a5,8 # 40020008 <_eusrstack+0x2001b008>
    6b78:	04e50463          	beq	a0,a4,6bc0 <DMA_DeInit+0x6a>
    6b7c:	01c78713          	addi	a4,a5,28
    6b80:	02e50b63          	beq	a0,a4,6bb6 <DMA_DeInit+0x60>
    6b84:	03078713          	addi	a4,a5,48
    6b88:	04e50763          	beq	a0,a4,6bd6 <DMA_DeInit+0x80>
    6b8c:	04478713          	addi	a4,a5,68
    6b90:	04e50a63          	beq	a0,a4,6be4 <DMA_DeInit+0x8e>
    6b94:	05878713          	addi	a4,a5,88
    6b98:	02e50963          	beq	a0,a4,6bca <DMA_DeInit+0x74>
    6b9c:	06c78713          	addi	a4,a5,108
    6ba0:	04e50763          	beq	a0,a4,6bee <DMA_DeInit+0x98>
    6ba4:	08078713          	addi	a4,a5,128
    6ba8:	04e50963          	beq	a0,a4,6bfa <DMA_DeInit+0xa4>
    6bac:	09478713          	addi	a4,a5,148
    6bb0:	00e50863          	beq	a0,a4,6bc0 <DMA_DeInit+0x6a>
    6bb4:	8082                	ret
    6bb6:	43d8                	lw	a4,4(a5)
    6bb8:	0f076713          	ori	a4,a4,240
    6bbc:	c3d8                	sw	a4,4(a5)
    6bbe:	8082                	ret
    6bc0:	43d8                	lw	a4,4(a5)
    6bc2:	00f76713          	ori	a4,a4,15
    6bc6:	c3d8                	sw	a4,4(a5)
    6bc8:	8082                	ret
    6bca:	43d8                	lw	a4,4(a5)
    6bcc:	000f06b7          	lui	a3,0xf0
    6bd0:	8f55                	or	a4,a4,a3
    6bd2:	c3d8                	sw	a4,4(a5)
    6bd4:	8082                	ret
    6bd6:	43d8                	lw	a4,4(a5)
    6bd8:	6685                	lui	a3,0x1
    6bda:	f0068693          	addi	a3,a3,-256 # f00 <USBFS_Host_Init+0x34>
    6bde:	8f55                	or	a4,a4,a3
    6be0:	c3d8                	sw	a4,4(a5)
    6be2:	8082                	ret
    6be4:	43d8                	lw	a4,4(a5)
    6be6:	66bd                	lui	a3,0xf
    6be8:	8f55                	or	a4,a4,a3
    6bea:	c3d8                	sw	a4,4(a5)
    6bec:	8082                	ret
    6bee:	43d8                	lw	a4,4(a5)
    6bf0:	00f006b7          	lui	a3,0xf00
    6bf4:	8f55                	or	a4,a4,a3
    6bf6:	c3d8                	sw	a4,4(a5)
    6bf8:	8082                	ret
    6bfa:	43d8                	lw	a4,4(a5)
    6bfc:	0f0006b7          	lui	a3,0xf000
    6c00:	8f55                	or	a4,a4,a3
    6c02:	c3d8                	sw	a4,4(a5)
    6c04:	8082                	ret

00006c06 <DMA_Init>:
    6c06:	5190                	lw	a2,32(a1)
    6c08:	459c                	lw	a5,8(a1)
    6c0a:	4994                	lw	a3,16(a1)
    6c0c:	49d8                	lw	a4,20(a1)
    6c0e:	0185a883          	lw	a7,24(a1)
    6c12:	8fd1                	or	a5,a5,a2
    6c14:	8fd5                	or	a5,a5,a3
    6c16:	4dd0                	lw	a2,28(a1)
    6c18:	51d4                	lw	a3,36(a1)
    6c1a:	8fd9                	or	a5,a5,a4
    6c1c:	0117e7b3          	or	a5,a5,a7
    6c20:	4118                	lw	a4,0(a0)
    6c22:	0285a803          	lw	a6,40(a1)
    6c26:	8fd1                	or	a5,a5,a2
    6c28:	8fd5                	or	a5,a5,a3
    6c2a:	76e1                	lui	a3,0xffff8
    6c2c:	06bd                	addi	a3,a3,15
    6c2e:	45d0                	lw	a2,12(a1)
    6c30:	8f75                	and	a4,a4,a3
    6c32:	0107e7b3          	or	a5,a5,a6
    6c36:	4194                	lw	a3,0(a1)
    6c38:	8fd9                	or	a5,a5,a4
    6c3a:	c11c                	sw	a5,0(a0)
    6c3c:	41dc                	lw	a5,4(a1)
    6c3e:	c150                	sw	a2,4(a0)
    6c40:	c514                	sw	a3,8(a0)
    6c42:	c55c                	sw	a5,12(a0)
    6c44:	8082                	ret

00006c46 <DMA_Cmd>:
    6c46:	411c                	lw	a5,0(a0)
    6c48:	c589                	beqz	a1,6c52 <DMA_Cmd+0xc>
    6c4a:	0017e793          	ori	a5,a5,1
    6c4e:	c11c                	sw	a5,0(a0)
    6c50:	8082                	ret
    6c52:	6741                	lui	a4,0x10
    6c54:	1779                	addi	a4,a4,-2
    6c56:	8ff9                	and	a5,a5,a4
    6c58:	c11c                	sw	a5,0(a0)
    6c5a:	8082                	ret

00006c5c <DMA_GetCurrDataCounter>:
    6c5c:	4148                	lw	a0,4(a0)
    6c5e:	0542                	slli	a0,a0,0x10
    6c60:	8141                	srli	a0,a0,0x10
    6c62:	8082                	ret

00006c64 <GPIO_Init>:
    6c64:	0085a803          	lw	a6,8(a1)
    6c68:	01087793          	andi	a5,a6,16
    6c6c:	00f87313          	andi	t1,a6,15
    6c70:	c781                	beqz	a5,6c78 <GPIO_Init+0x14>
    6c72:	41dc                	lw	a5,4(a1)
    6c74:	00f36333          	or	t1,t1,a5
    6c78:	400227b7          	lui	a5,0x40022
    6c7c:	5b98                	lw	a4,48(a5)
    6c7e:	0f0007b7          	lui	a5,0xf000
    6c82:	8ff9                	and	a5,a5,a4
    6c84:	e7e1                	bnez	a5,6d4c <GPIO_Init+0xe8>
    6c86:	4705                	li	a4,1
    6c88:	8ae18823          	sb	a4,-1872(gp) # 20000120 <MCU_Version>
    6c8c:	400117b7          	lui	a5,0x40011
    6c90:	0cf50563          	beq	a0,a5,6d5a <GPIO_Init+0xf6>
    6c94:	2196                	lhu	a3,0(a1)
    6c96:	0ff6f793          	andi	a5,a3,255
    6c9a:	e3ad                	bnez	a5,6cfc <GPIO_Init+0x98>
    6c9c:	0ff00793          	li	a5,255
    6ca0:	04d7fd63          	bgeu	a5,a3,6cfa <GPIO_Init+0x96>
    6ca4:	00452883          	lw	a7,4(a0)
    6ca8:	47a1                	li	a5,8
    6caa:	4e85                	li	t4,1
    6cac:	4fbd                	li	t6,15
    6cae:	02800f13          	li	t5,40
    6cb2:	04800293          	li	t0,72
    6cb6:	4e41                	li	t3,16
    6cb8:	a021                	j	6cc0 <GPIO_Init+0x5c>
    6cba:	0785                	addi	a5,a5,1
    6cbc:	03c78d63          	beq	a5,t3,6cf6 <GPIO_Init+0x92>
    6cc0:	00fe9733          	sll	a4,t4,a5
    6cc4:	00d775b3          	and	a1,a4,a3
    6cc8:	feb719e3          	bne	a4,a1,6cba <GPIO_Init+0x56>
    6ccc:	00279613          	slli	a2,a5,0x2
    6cd0:	1601                	addi	a2,a2,-32
    6cd2:	00cf95b3          	sll	a1,t6,a2
    6cd6:	fff5c593          	not	a1,a1
    6cda:	0115f8b3          	and	a7,a1,a7
    6cde:	00c31633          	sll	a2,t1,a2
    6ce2:	011668b3          	or	a7,a2,a7
    6ce6:	09e80163          	beq	a6,t5,6d68 <GPIO_Init+0x104>
    6cea:	fc5818e3          	bne	a6,t0,6cba <GPIO_Init+0x56>
    6cee:	c918                	sw	a4,16(a0)
    6cf0:	0785                	addi	a5,a5,1
    6cf2:	fdc797e3          	bne	a5,t3,6cc0 <GPIO_Init+0x5c>
    6cf6:	01152223          	sw	a7,4(a0)
    6cfa:	8082                	ret
    6cfc:	410c                	lw	a1,0(a0)
    6cfe:	4781                	li	a5,0
    6d00:	4e85                	li	t4,1
    6d02:	4fbd                	li	t6,15
    6d04:	02800f13          	li	t5,40
    6d08:	04800293          	li	t0,72
    6d0c:	4e21                	li	t3,8
    6d0e:	a021                	j	6d16 <GPIO_Init+0xb2>
    6d10:	0785                	addi	a5,a5,1
    6d12:	03c78b63          	beq	a5,t3,6d48 <GPIO_Init+0xe4>
    6d16:	00fe9733          	sll	a4,t4,a5
    6d1a:	00d77633          	and	a2,a4,a3
    6d1e:	fec719e3          	bne	a4,a2,6d10 <GPIO_Init+0xac>
    6d22:	00279613          	slli	a2,a5,0x2
    6d26:	00cf98b3          	sll	a7,t6,a2
    6d2a:	fff8c893          	not	a7,a7
    6d2e:	00b8f5b3          	and	a1,a7,a1
    6d32:	00c31633          	sll	a2,t1,a2
    6d36:	8dd1                	or	a1,a1,a2
    6d38:	03e80663          	beq	a6,t5,6d64 <GPIO_Init+0x100>
    6d3c:	fc581ae3          	bne	a6,t0,6d10 <GPIO_Init+0xac>
    6d40:	c918                	sw	a4,16(a0)
    6d42:	0785                	addi	a5,a5,1
    6d44:	fdc799e3          	bne	a5,t3,6d16 <GPIO_Init+0xb2>
    6d48:	c10c                	sw	a1,0(a0)
    6d4a:	bf89                	j	6c9c <GPIO_Init+0x38>
    6d4c:	400117b7          	lui	a5,0x40011
    6d50:	f4f512e3          	bne	a0,a5,6c94 <GPIO_Init+0x30>
    6d54:	8b01c783          	lbu	a5,-1872(gp) # 20000120 <MCU_Version>
    6d58:	df95                	beqz	a5,6c94 <GPIO_Init+0x30>
    6d5a:	2196                	lhu	a3,0(a1)
    6d5c:	82b5                	srli	a3,a3,0xd
    6d5e:	a196                	sh	a3,0(a1)
    6d60:	fed1                	bnez	a3,6cfc <GPIO_Init+0x98>
    6d62:	8082                	ret
    6d64:	c958                	sw	a4,20(a0)
    6d66:	b76d                	j	6d10 <GPIO_Init+0xac>
    6d68:	c958                	sw	a4,20(a0)
    6d6a:	bf81                	j	6cba <GPIO_Init+0x56>

00006d6c <GPIO_WriteBit>:
    6d6c:	400117b7          	lui	a5,0x40011
    6d70:	00f50563          	beq	a0,a5,6d7a <GPIO_WriteBit+0xe>
    6d74:	ca01                	beqz	a2,6d84 <GPIO_WriteBit+0x18>
    6d76:	c90c                	sw	a1,16(a0)
    6d78:	8082                	ret
    6d7a:	8b01c783          	lbu	a5,-1872(gp) # 20000120 <MCU_Version>
    6d7e:	dbfd                	beqz	a5,6d74 <GPIO_WriteBit+0x8>
    6d80:	81b5                	srli	a1,a1,0xd
    6d82:	fa75                	bnez	a2,6d76 <GPIO_WriteBit+0xa>
    6d84:	c94c                	sw	a1,20(a0)
    6d86:	8082                	ret

00006d88 <NVIC_PriorityGroupConfig>:
    6d88:	8aa1aa23          	sw	a0,-1868(gp) # 20000124 <NVIC_Priority_Group>
    6d8c:	8082                	ret

00006d8e <NVIC_Init>:
    6d8e:	8b418793          	addi	a5,gp,-1868 # 20000124 <NVIC_Priority_Group>
    6d92:	4398                	lw	a4,0(a5)
    6d94:	2114                	lbu	a3,0(a0)
    6d96:	e329                	bnez	a4,6dd8 <NVIC_Init+0x4a>
    6d98:	213c                	lbu	a5,2(a0)
    6d9a:	e000e737          	lui	a4,0xe000e
    6d9e:	0792                	slli	a5,a5,0x4
    6da0:	9736                	add	a4,a4,a3
    6da2:	0ff7f793          	andi	a5,a5,255
    6da6:	40f70023          	sb	a5,1024(a4) # e000e400 <_eusrstack+0xc0009400>
    6daa:	4150                	lw	a2,4(a0)
    6dac:	4705                	li	a4,1
    6dae:	0056d793          	srli	a5,a3,0x5
    6db2:	00d71733          	sll	a4,a4,a3
    6db6:	ca09                	beqz	a2,6dc8 <NVIC_Init+0x3a>
    6db8:	04078793          	addi	a5,a5,64 # 40011040 <_eusrstack+0x2000c040>
    6dbc:	078a                	slli	a5,a5,0x2
    6dbe:	e000e6b7          	lui	a3,0xe000e
    6dc2:	97b6                	add	a5,a5,a3
    6dc4:	c398                	sw	a4,0(a5)
    6dc6:	8082                	ret
    6dc8:	06078793          	addi	a5,a5,96
    6dcc:	078a                	slli	a5,a5,0x2
    6dce:	e000e6b7          	lui	a3,0xe000e
    6dd2:	97b6                	add	a5,a5,a3
    6dd4:	c398                	sw	a4,0(a5)
    6dd6:	8082                	ret
    6dd8:	4398                	lw	a4,0(a5)
    6dda:	4605                	li	a2,1
    6ddc:	02c70863          	beq	a4,a2,6e0c <NVIC_Init+0x7e>
    6de0:	438c                	lw	a1,0(a5)
    6de2:	4709                	li	a4,2
    6de4:	04e58163          	beq	a1,a4,6e26 <NVIC_Init+0x98>
    6de8:	4398                	lw	a4,0(a5)
    6dea:	460d                	li	a2,3
    6dec:	00c70863          	beq	a4,a2,6dfc <NVIC_Init+0x6e>
    6df0:	4398                	lw	a4,0(a5)
    6df2:	4791                	li	a5,4
    6df4:	faf71be3          	bne	a4,a5,6daa <NVIC_Init+0x1c>
    6df8:	311c                	lbu	a5,1(a0)
    6dfa:	b745                	j	6d9a <NVIC_Init+0xc>
    6dfc:	3110                	lbu	a2,1(a0)
    6dfe:	213c                	lbu	a5,2(a0)
    6e00:	04c76863          	bltu	a4,a2,6e50 <NVIC_Init+0xc2>
    6e04:	0606                	slli	a2,a2,0x1
    6e06:	97b2                	add	a5,a5,a2
    6e08:	0792                	slli	a5,a5,0x4
    6e0a:	a031                	j	6e16 <NVIC_Init+0x88>
    6e0c:	213c                	lbu	a5,2(a0)
    6e0e:	3110                	lbu	a2,1(a0)
    6e10:	0792                	slli	a5,a5,0x4
    6e12:	02e60563          	beq	a2,a4,6e3c <NVIC_Init+0xae>
    6e16:	e000e737          	lui	a4,0xe000e
    6e1a:	0ff7f793          	andi	a5,a5,255
    6e1e:	9736                	add	a4,a4,a3
    6e20:	40f70023          	sb	a5,1024(a4) # e000e400 <_eusrstack+0xc0009400>
    6e24:	b759                	j	6daa <NVIC_Init+0x1c>
    6e26:	3118                	lbu	a4,1(a0)
    6e28:	213c                	lbu	a5,2(a0)
    6e2a:	02e67863          	bgeu	a2,a4,6e5a <NVIC_Init+0xcc>
    6e2e:	03e70713          	addi	a4,a4,62
    6e32:	070a                	slli	a4,a4,0x2
    6e34:	97ba                	add	a5,a5,a4
    6e36:	0ff7f793          	andi	a5,a5,255
    6e3a:	0792                	slli	a5,a5,0x4
    6e3c:	f807e793          	ori	a5,a5,-128
    6e40:	e000e737          	lui	a4,0xe000e
    6e44:	0ff7f793          	andi	a5,a5,255
    6e48:	9736                	add	a4,a4,a3
    6e4a:	40f70023          	sb	a5,1024(a4) # e000e400 <_eusrstack+0xc0009400>
    6e4e:	bfb1                	j	6daa <NVIC_Init+0x1c>
    6e50:	07c60613          	addi	a2,a2,124 # 4002107c <_eusrstack+0x2001c07c>
    6e54:	0606                	slli	a2,a2,0x1
    6e56:	97b2                	add	a5,a5,a2
    6e58:	bff9                	j	6e36 <NVIC_Init+0xa8>
    6e5a:	070a                	slli	a4,a4,0x2
    6e5c:	97ba                	add	a5,a5,a4
    6e5e:	0792                	slli	a5,a5,0x4
    6e60:	bf5d                	j	6e16 <NVIC_Init+0x88>

00006e62 <RCC_USBCLKConfig>:
    6e62:	400217b7          	lui	a5,0x40021
    6e66:	43d8                	lw	a4,4(a5)
    6e68:	ff4006b7          	lui	a3,0xff400
    6e6c:	16fd                	addi	a3,a3,-1
    6e6e:	8f75                	and	a4,a4,a3
    6e70:	c3d8                	sw	a4,4(a5)
    6e72:	43d8                	lw	a4,4(a5)
    6e74:	055a                	slli	a0,a0,0x16
    6e76:	8d59                	or	a0,a0,a4
    6e78:	c3c8                	sw	a0,4(a5)
    6e7a:	8082                	ret

00006e7c <RCC_GetClocksFreq>:
    6e7c:	40021737          	lui	a4,0x40021
    6e80:	435c                	lw	a5,4(a4)
    6e82:	4691                	li	a3,4
    6e84:	8bb1                	andi	a5,a5,12
    6e86:	00d78563          	beq	a5,a3,6e90 <RCC_GetClocksFreq+0x14>
    6e8a:	46a1                	li	a3,8
    6e8c:	06d78163          	beq	a5,a3,6eee <RCC_GetClocksFreq+0x72>
    6e90:	007a17b7          	lui	a5,0x7a1
    6e94:	20078793          	addi	a5,a5,512 # 7a1200 <_data_lma+0x793200>
    6e98:	c11c                	sw	a5,0(a0)
    6e9a:	40021637          	lui	a2,0x40021
    6e9e:	4254                	lw	a3,4(a2)
    6ea0:	20000737          	lui	a4,0x20000
    6ea4:	00070713          	mv	a4,a4
    6ea8:	8291                	srli	a3,a3,0x4
    6eaa:	8abd                	andi	a3,a3,15
    6eac:	96ba                	add	a3,a3,a4
    6eae:	2294                	lbu	a3,0(a3)
    6eb0:	00d7d7b3          	srl	a5,a5,a3
    6eb4:	c15c                	sw	a5,4(a0)
    6eb6:	4254                	lw	a3,4(a2)
    6eb8:	82a1                	srli	a3,a3,0x8
    6eba:	8a9d                	andi	a3,a3,7
    6ebc:	96ba                	add	a3,a3,a4
    6ebe:	2294                	lbu	a3,0(a3)
    6ec0:	00d7d6b3          	srl	a3,a5,a3
    6ec4:	c514                	sw	a3,8(a0)
    6ec6:	4254                	lw	a3,4(a2)
    6ec8:	82ad                	srli	a3,a3,0xb
    6eca:	8a9d                	andi	a3,a3,7
    6ecc:	9736                	add	a4,a4,a3
    6ece:	2318                	lbu	a4,0(a4)
    6ed0:	00e7d7b3          	srl	a5,a5,a4
    6ed4:	c55c                	sw	a5,12(a0)
    6ed6:	4258                	lw	a4,4(a2)
    6ed8:	8339                	srli	a4,a4,0xe
    6eda:	00377693          	andi	a3,a4,3
    6ede:	80818713          	addi	a4,gp,-2040 # 20000078 <ADCPrescTable>
    6ee2:	9736                	add	a4,a4,a3
    6ee4:	2318                	lbu	a4,0(a4)
    6ee6:	02e7d7b3          	divu	a5,a5,a4
    6eea:	c91c                	sw	a5,16(a0)
    6eec:	8082                	ret
    6eee:	435c                	lw	a5,4(a4)
    6ef0:	4358                	lw	a4,4(a4)
    6ef2:	6641                	lui	a2,0x10
    6ef4:	83c9                	srli	a5,a5,0x12
    6ef6:	8bbd                	andi	a5,a5,15
    6ef8:	0789                	addi	a5,a5,2
    6efa:	46c5                	li	a3,17
    6efc:	8f71                	and	a4,a4,a2
    6efe:	04d78063          	beq	a5,a3,6f3e <RCC_GetClocksFreq+0xc2>
    6f02:	ef19                	bnez	a4,6f20 <RCC_GetClocksFreq+0xa4>
    6f04:	40024737          	lui	a4,0x40024
    6f08:	80072703          	lw	a4,-2048(a4) # 40023800 <_eusrstack+0x2001e800>
    6f0c:	8b41                	andi	a4,a4,16
    6f0e:	c305                	beqz	a4,6f2e <RCC_GetClocksFreq+0xb2>
    6f10:	007a1737          	lui	a4,0x7a1
    6f14:	20070713          	addi	a4,a4,512 # 7a1200 <_data_lma+0x793200>
    6f18:	02e787b3          	mul	a5,a5,a4
    6f1c:	c11c                	sw	a5,0(a0)
    6f1e:	bfb5                	j	6e9a <RCC_GetClocksFreq+0x1e>
    6f20:	40021737          	lui	a4,0x40021
    6f24:	4358                	lw	a4,4(a4)
    6f26:	00e71693          	slli	a3,a4,0xe
    6f2a:	fe06d3e3          	bgez	a3,6f10 <RCC_GetClocksFreq+0x94>
    6f2e:	003d1737          	lui	a4,0x3d1
    6f32:	90070713          	addi	a4,a4,-1792 # 3d0900 <_data_lma+0x3c2900>
    6f36:	02e787b3          	mul	a5,a5,a4
    6f3a:	c11c                	sw	a5,0(a0)
    6f3c:	bfb9                	j	6e9a <RCC_GetClocksFreq+0x1e>
    6f3e:	47c9                	li	a5,18
    6f40:	f365                	bnez	a4,6f20 <RCC_GetClocksFreq+0xa4>
    6f42:	b7c9                	j	6f04 <RCC_GetClocksFreq+0x88>

00006f44 <RCC_AHBPeriphClockCmd>:
    6f44:	c599                	beqz	a1,6f52 <RCC_AHBPeriphClockCmd+0xe>
    6f46:	40021737          	lui	a4,0x40021
    6f4a:	4b5c                	lw	a5,20(a4)
    6f4c:	8d5d                	or	a0,a0,a5
    6f4e:	cb48                	sw	a0,20(a4)
    6f50:	8082                	ret
    6f52:	400217b7          	lui	a5,0x40021
    6f56:	4bd8                	lw	a4,20(a5)
    6f58:	fff54513          	not	a0,a0
    6f5c:	8d79                	and	a0,a0,a4
    6f5e:	cbc8                	sw	a0,20(a5)
    6f60:	8082                	ret

00006f62 <RCC_APB2PeriphClockCmd>:
    6f62:	c599                	beqz	a1,6f70 <RCC_APB2PeriphClockCmd+0xe>
    6f64:	40021737          	lui	a4,0x40021
    6f68:	4f1c                	lw	a5,24(a4)
    6f6a:	8d5d                	or	a0,a0,a5
    6f6c:	cf08                	sw	a0,24(a4)
    6f6e:	8082                	ret
    6f70:	400217b7          	lui	a5,0x40021
    6f74:	4f98                	lw	a4,24(a5)
    6f76:	fff54513          	not	a0,a0
    6f7a:	8d79                	and	a0,a0,a4
    6f7c:	cf88                	sw	a0,24(a5)
    6f7e:	8082                	ret

00006f80 <RCC_APB1PeriphClockCmd>:
    6f80:	c599                	beqz	a1,6f8e <RCC_APB1PeriphClockCmd+0xe>
    6f82:	40021737          	lui	a4,0x40021
    6f86:	4f5c                	lw	a5,28(a4)
    6f88:	8d5d                	or	a0,a0,a5
    6f8a:	cf48                	sw	a0,28(a4)
    6f8c:	8082                	ret
    6f8e:	400217b7          	lui	a5,0x40021
    6f92:	4fd8                	lw	a4,28(a5)
    6f94:	fff54513          	not	a0,a0
    6f98:	8d79                	and	a0,a0,a4
    6f9a:	cfc8                	sw	a0,28(a5)
    6f9c:	8082                	ret

00006f9e <SPI_Init>:
    6f9e:	21b2                	lhu	a2,2(a1)
    6fa0:	219e                	lhu	a5,0(a1)
    6fa2:	21da                	lhu	a4,4(a1)
    6fa4:	21f6                	lhu	a3,6(a1)
    6fa6:	0085d883          	lhu	a7,8(a1)
    6faa:	8fd1                	or	a5,a5,a2
    6fac:	00a5d803          	lhu	a6,10(a1)
    6fb0:	8fd9                	or	a5,a5,a4
    6fb2:	8fd5                	or	a5,a5,a3
    6fb4:	25da                	lhu	a4,12(a1)
    6fb6:	0117e7b3          	or	a5,a5,a7
    6fba:	2112                	lhu	a2,0(a0)
    6fbc:	25f6                	lhu	a3,14(a1)
    6fbe:	0107e7b3          	or	a5,a5,a6
    6fc2:	8fd9                	or	a5,a5,a4
    6fc4:	670d                	lui	a4,0x3
    6fc6:	04070713          	addi	a4,a4,64 # 3040 <i8080_execute+0x1a2c>
    6fca:	8f71                	and	a4,a4,a2
    6fcc:	8fd5                	or	a5,a5,a3
    6fce:	8fd9                	or	a5,a5,a4
    6fd0:	a11e                	sh	a5,0(a0)
    6fd2:	2d56                	lhu	a3,28(a0)
    6fd4:	77fd                	lui	a5,0xfffff
    6fd6:	299a                	lhu	a4,16(a1)
    6fd8:	7ff78793          	addi	a5,a5,2047 # fffff7ff <_eusrstack+0xdfffa7ff>
    6fdc:	8ff5                	and	a5,a5,a3
    6fde:	ad5e                	sh	a5,28(a0)
    6fe0:	a91a                	sh	a4,16(a0)
    6fe2:	8082                	ret

00006fe4 <SPI_Cmd>:
    6fe4:	211e                	lhu	a5,0(a0)
    6fe6:	c589                	beqz	a1,6ff0 <SPI_Cmd+0xc>
    6fe8:	0407e793          	ori	a5,a5,64
    6fec:	a11e                	sh	a5,0(a0)
    6fee:	8082                	ret
    6ff0:	07c2                	slli	a5,a5,0x10
    6ff2:	83c1                	srli	a5,a5,0x10
    6ff4:	fbf7f793          	andi	a5,a5,-65
    6ff8:	07c2                	slli	a5,a5,0x10
    6ffa:	83c1                	srli	a5,a5,0x10
    6ffc:	a11e                	sh	a5,0(a0)
    6ffe:	8082                	ret

00007000 <SPI_I2S_DMACmd>:
    7000:	215e                	lhu	a5,4(a0)
    7002:	c601                	beqz	a2,700a <SPI_I2S_DMACmd+0xa>
    7004:	8ddd                	or	a1,a1,a5
    7006:	a14e                	sh	a1,4(a0)
    7008:	8082                	ret
    700a:	fff5c593          	not	a1,a1
    700e:	8dfd                	and	a1,a1,a5
    7010:	a14e                	sh	a1,4(a0)
    7012:	8082                	ret

00007014 <TIM_TimeBaseInit>:
    7014:	211e                	lhu	a5,0(a0)
    7016:	400136b7          	lui	a3,0x40013
    701a:	c0068693          	addi	a3,a3,-1024 # 40012c00 <_eusrstack+0x2000dc00>
    701e:	07c2                	slli	a5,a5,0x10
    7020:	83c1                	srli	a5,a5,0x10
    7022:	21f2                	lhu	a2,6(a1)
    7024:	0045d883          	lhu	a7,4(a1)
    7028:	0005d803          	lhu	a6,0(a1)
    702c:	04d50363          	beq	a0,a3,7072 <TIM_TimeBaseInit+0x5e>
    7030:	40000737          	lui	a4,0x40000
    7034:	02e50063          	beq	a0,a4,7054 <TIM_TimeBaseInit+0x40>
    7038:	40070713          	addi	a4,a4,1024 # 40000400 <_eusrstack+0x1fffb400>
    703c:	00e50c63          	beq	a0,a4,7054 <TIM_TimeBaseInit+0x40>
    7040:	40001737          	lui	a4,0x40001
    7044:	80070693          	addi	a3,a4,-2048 # 40000800 <_eusrstack+0x1fffb800>
    7048:	00d50663          	beq	a0,a3,7054 <TIM_TimeBaseInit+0x40>
    704c:	c0070713          	addi	a4,a4,-1024
    7050:	00e51663          	bne	a0,a4,705c <TIM_TimeBaseInit+0x48>
    7054:	21ba                	lhu	a4,2(a1)
    7056:	f8f7f793          	andi	a5,a5,-113
    705a:	8fd9                	or	a5,a5,a4
    705c:	cff7f793          	andi	a5,a5,-769
    7060:	8fd1                	or	a5,a5,a2
    7062:	a11e                	sh	a5,0(a0)
    7064:	03151623          	sh	a7,44(a0)
    7068:	03051423          	sh	a6,40(a0)
    706c:	4785                	li	a5,1
    706e:	a95e                	sh	a5,20(a0)
    7070:	8082                	ret
    7072:	21ba                	lhu	a4,2(a1)
    7074:	f8f7f793          	andi	a5,a5,-113
    7078:	8f5d                	or	a4,a4,a5
    707a:	cff77713          	andi	a4,a4,-769
    707e:	8f51                	or	a4,a4,a2
    7080:	a11a                	sh	a4,0(a0)
    7082:	03151623          	sh	a7,44(a0)
    7086:	03051423          	sh	a6,40(a0)
    708a:	259c                	lbu	a5,8(a1)
    708c:	b91e                	sh	a5,48(a0)
    708e:	4785                	li	a5,1
    7090:	a95e                	sh	a5,20(a0)
    7092:	8082                	ret

00007094 <TIM_OC3Init>:
    7094:	311a                	lhu	a4,32(a0)
    7096:	0085d803          	lhu	a6,8(a1)
    709a:	21b6                	lhu	a3,2(a1)
    709c:	0742                	slli	a4,a4,0x10
    709e:	8341                	srli	a4,a4,0x10
    70a0:	eff77713          	andi	a4,a4,-257
    70a4:	0742                	slli	a4,a4,0x10
    70a6:	8341                	srli	a4,a4,0x10
    70a8:	b11a                	sh	a4,32(a0)
    70aa:	311e                	lhu	a5,32(a0)
    70ac:	2152                	lhu	a2,4(a0)
    70ae:	2d5a                	lhu	a4,28(a0)
    70b0:	07c2                	slli	a5,a5,0x10
    70b2:	0106e6b3          	or	a3,a3,a6
    70b6:	83c1                	srli	a5,a5,0x10
    70b8:	06a2                	slli	a3,a3,0x8
    70ba:	0005d883          	lhu	a7,0(a1)
    70be:	0742                	slli	a4,a4,0x10
    70c0:	dff7f793          	andi	a5,a5,-513
    70c4:	8fd5                	or	a5,a5,a3
    70c6:	8341                	srli	a4,a4,0x10
    70c8:	40013837          	lui	a6,0x40013
    70cc:	f8c77713          	andi	a4,a4,-116
    70d0:	01061693          	slli	a3,a2,0x10
    70d4:	07c2                	slli	a5,a5,0x10
    70d6:	c0080813          	addi	a6,a6,-1024 # 40012c00 <_eusrstack+0x2000dc00>
    70da:	82c1                	srli	a3,a3,0x10
    70dc:	01176733          	or	a4,a4,a7
    70e0:	83c1                	srli	a5,a5,0x10
    70e2:	01050863          	beq	a0,a6,70f2 <TIM_OC3Init+0x5e>
    70e6:	21f2                	lhu	a2,6(a1)
    70e8:	a156                	sh	a3,4(a0)
    70ea:	ad5a                	sh	a4,28(a0)
    70ec:	bd52                	sh	a2,60(a0)
    70ee:	b11e                	sh	a5,32(a0)
    70f0:	8082                	ret
    70f2:	00a5d883          	lhu	a7,10(a1)
    70f6:	787d                	lui	a6,0xfffff
    70f8:	00c5d303          	lhu	t1,12(a1)
    70fc:	25f2                	lhu	a2,14(a1)
    70fe:	7ff80813          	addi	a6,a6,2047 # fffff7ff <_eusrstack+0xdfffa7ff>
    7102:	0107f7b3          	and	a5,a5,a6
    7106:	08a2                	slli	a7,a7,0x8
    7108:	0117e7b3          	or	a5,a5,a7
    710c:	78f5                	lui	a7,0xffffd
    710e:	00666633          	or	a2,a2,t1
    7112:	18fd                	addi	a7,a7,-1
    7114:	0045d803          	lhu	a6,4(a1)
    7118:	0612                	slli	a2,a2,0x4
    711a:	0116f6b3          	and	a3,a3,a7
    711e:	8ed1                	or	a3,a3,a2
    7120:	07c2                	slli	a5,a5,0x10
    7122:	83c1                	srli	a5,a5,0x10
    7124:	06c2                	slli	a3,a3,0x10
    7126:	21f2                	lhu	a2,6(a1)
    7128:	bff7f793          	andi	a5,a5,-1025
    712c:	0822                	slli	a6,a6,0x8
    712e:	82c1                	srli	a3,a3,0x10
    7130:	a156                	sh	a3,4(a0)
    7132:	0107e7b3          	or	a5,a5,a6
    7136:	ad5a                	sh	a4,28(a0)
    7138:	07c2                	slli	a5,a5,0x10
    713a:	83c1                	srli	a5,a5,0x10
    713c:	bd52                	sh	a2,60(a0)
    713e:	b11e                	sh	a5,32(a0)
    7140:	8082                	ret

00007142 <TIM_OC4Init>:
    7142:	311a                	lhu	a4,32(a0)
    7144:	77fd                	lui	a5,0xfffff
    7146:	17fd                	addi	a5,a5,-1
    7148:	8ff9                	and	a5,a5,a4
    714a:	b11e                	sh	a5,32(a0)
    714c:	21b6                	lhu	a3,2(a1)
    714e:	259e                	lhu	a5,8(a1)
    7150:	02055883          	lhu	a7,32(a0)
    7154:	0005d803          	lhu	a6,0(a1)
    7158:	2152                	lhu	a2,4(a0)
    715a:	01c55303          	lhu	t1,28(a0)
    715e:	8edd                	or	a3,a3,a5
    7160:	7765                	lui	a4,0xffff9
    7162:	77f9                	lui	a5,0xffffe
    7164:	cff70713          	addi	a4,a4,-769 # ffff8cff <_eusrstack+0xdfff3cff>
    7168:	17fd                	addi	a5,a5,-1
    716a:	0822                	slli	a6,a6,0x8
    716c:	06b2                	slli	a3,a3,0xc
    716e:	00677733          	and	a4,a4,t1
    7172:	0117f7b3          	and	a5,a5,a7
    7176:	01076733          	or	a4,a4,a6
    717a:	8fd5                	or	a5,a5,a3
    717c:	40013837          	lui	a6,0x40013
    7180:	01061693          	slli	a3,a2,0x10
    7184:	0742                	slli	a4,a4,0x10
    7186:	07c2                	slli	a5,a5,0x10
    7188:	c0080813          	addi	a6,a6,-1024 # 40012c00 <_eusrstack+0x2000dc00>
    718c:	82c1                	srli	a3,a3,0x10
    718e:	8341                	srli	a4,a4,0x10
    7190:	83c1                	srli	a5,a5,0x10
    7192:	01050963          	beq	a0,a6,71a4 <TIM_OC4Init+0x62>
    7196:	21f2                	lhu	a2,6(a1)
    7198:	a156                	sh	a3,4(a0)
    719a:	ad5a                	sh	a4,28(a0)
    719c:	04c51023          	sh	a2,64(a0)
    71a0:	b11e                	sh	a5,32(a0)
    71a2:	8082                	ret
    71a4:	25d2                	lhu	a2,12(a1)
    71a6:	7871                	lui	a6,0xffffc
    71a8:	187d                	addi	a6,a6,-1
    71aa:	061a                	slli	a2,a2,0x6
    71ac:	0106f6b3          	and	a3,a3,a6
    71b0:	8ed1                	or	a3,a3,a2
    71b2:	06c2                	slli	a3,a3,0x10
    71b4:	21f2                	lhu	a2,6(a1)
    71b6:	82c1                	srli	a3,a3,0x10
    71b8:	a156                	sh	a3,4(a0)
    71ba:	ad5a                	sh	a4,28(a0)
    71bc:	04c51023          	sh	a2,64(a0)
    71c0:	b11e                	sh	a5,32(a0)
    71c2:	8082                	ret

000071c4 <TIM_Cmd>:
    71c4:	211e                	lhu	a5,0(a0)
    71c6:	c589                	beqz	a1,71d0 <TIM_Cmd+0xc>
    71c8:	0017e793          	ori	a5,a5,1
    71cc:	a11e                	sh	a5,0(a0)
    71ce:	8082                	ret
    71d0:	07c2                	slli	a5,a5,0x10
    71d2:	83c1                	srli	a5,a5,0x10
    71d4:	9bf9                	andi	a5,a5,-2
    71d6:	07c2                	slli	a5,a5,0x10
    71d8:	83c1                	srli	a5,a5,0x10
    71da:	a11e                	sh	a5,0(a0)
    71dc:	8082                	ret

000071de <TIM_CtrlPWMOutputs>:
    71de:	04455783          	lhu	a5,68(a0)
    71e2:	c591                	beqz	a1,71ee <TIM_CtrlPWMOutputs+0x10>
    71e4:	6721                	lui	a4,0x8
    71e6:	8fd9                	or	a5,a5,a4
    71e8:	04f51223          	sh	a5,68(a0)
    71ec:	8082                	ret
    71ee:	07c6                	slli	a5,a5,0x11
    71f0:	83c5                	srli	a5,a5,0x11
    71f2:	04f51223          	sh	a5,68(a0)
    71f6:	8082                	ret

000071f8 <TIM_ITConfig>:
    71f8:	255e                	lhu	a5,12(a0)
    71fa:	c601                	beqz	a2,7202 <TIM_ITConfig+0xa>
    71fc:	8ddd                	or	a1,a1,a5
    71fe:	a54e                	sh	a1,12(a0)
    7200:	8082                	ret
    7202:	fff5c593          	not	a1,a1
    7206:	8dfd                	and	a1,a1,a5
    7208:	a54e                	sh	a1,12(a0)
    720a:	8082                	ret

0000720c <TIM_ARRPreloadConfig>:
    720c:	211e                	lhu	a5,0(a0)
    720e:	c589                	beqz	a1,7218 <TIM_ARRPreloadConfig+0xc>
    7210:	0807e793          	ori	a5,a5,128
    7214:	a11e                	sh	a5,0(a0)
    7216:	8082                	ret
    7218:	07c2                	slli	a5,a5,0x10
    721a:	83c1                	srli	a5,a5,0x10
    721c:	f7f7f793          	andi	a5,a5,-129
    7220:	07c2                	slli	a5,a5,0x10
    7222:	83c1                	srli	a5,a5,0x10
    7224:	a11e                	sh	a5,0(a0)
    7226:	8082                	ret

00007228 <TIM_OC3PreloadConfig>:
    7228:	2d5e                	lhu	a5,28(a0)
    722a:	07c2                	slli	a5,a5,0x10
    722c:	83c1                	srli	a5,a5,0x10
    722e:	9bdd                	andi	a5,a5,-9
    7230:	8ddd                	or	a1,a1,a5
    7232:	ad4e                	sh	a1,28(a0)
    7234:	8082                	ret

00007236 <TIM_OC4PreloadConfig>:
    7236:	2d5a                	lhu	a4,28(a0)
    7238:	77fd                	lui	a5,0xfffff
    723a:	7ff78793          	addi	a5,a5,2047 # fffff7ff <_eusrstack+0xdfffa7ff>
    723e:	8ff9                	and	a5,a5,a4
    7240:	05a2                	slli	a1,a1,0x8
    7242:	8fcd                	or	a5,a5,a1
    7244:	07c2                	slli	a5,a5,0x10
    7246:	83c1                	srli	a5,a5,0x10
    7248:	ad5e                	sh	a5,28(a0)
    724a:	8082                	ret

0000724c <TIM_SetCompare4>:
    724c:	04b51023          	sh	a1,64(a0)
    7250:	8082                	ret

00007252 <TIM_ClearFlag>:
    7252:	fff5c593          	not	a1,a1
    7256:	05c2                	slli	a1,a1,0x10
    7258:	81c1                	srli	a1,a1,0x10
    725a:	a90e                	sh	a1,16(a0)
    725c:	8082                	ret

0000725e <TIM_GetITStatus>:
    725e:	291e                	lhu	a5,16(a0)
    7260:	254a                	lhu	a0,12(a0)
    7262:	8fed                	and	a5,a5,a1
    7264:	0542                	slli	a0,a0,0x10
    7266:	8141                	srli	a0,a0,0x10
    7268:	c789                	beqz	a5,7272 <TIM_GetITStatus+0x14>
    726a:	8d6d                	and	a0,a0,a1
    726c:	00a03533          	snez	a0,a0
    7270:	8082                	ret
    7272:	4501                	li	a0,0
    7274:	8082                	ret

00007276 <TIM_ClearITPendingBit>:
    7276:	fff5c593          	not	a1,a1
    727a:	05c2                	slli	a1,a1,0x10
    727c:	81c1                	srli	a1,a1,0x10
    727e:	a90e                	sh	a1,16(a0)
    7280:	8082                	ret

00007282 <USART_Init>:
    7282:	eeff82ef          	jal	t0,170 <__riscv_save_0>
    7286:	2916                	lhu	a3,16(a0)
    7288:	21fa                	lhu	a4,6(a1)
    728a:	77f5                	lui	a5,0xffffd
    728c:	17fd                	addi	a5,a5,-1
    728e:	8ff5                	and	a5,a5,a3
    7290:	8fd9                	or	a5,a5,a4
    7292:	25da                	lhu	a4,12(a1)
    7294:	a91e                	sh	a5,16(a0)
    7296:	842a                	mv	s0,a0
    7298:	254a                	lhu	a0,12(a0)
    729a:	84ae                	mv	s1,a1
    729c:	77fd                	lui	a5,0xfffff
    729e:	21ce                	lhu	a1,4(a1)
    72a0:	2492                	lhu	a2,8(s1)
    72a2:	9f378793          	addi	a5,a5,-1549 # ffffe9f3 <_eusrstack+0xdfff99f3>
    72a6:	24b6                	lhu	a3,10(s1)
    72a8:	8fe9                	and	a5,a5,a0
    72aa:	8fcd                	or	a5,a5,a1
    72ac:	8fd1                	or	a5,a5,a2
    72ae:	8fd5                	or	a5,a5,a3
    72b0:	a45e                	sh	a5,12(s0)
    72b2:	285e                	lhu	a5,20(s0)
    72b4:	1101                	addi	sp,sp,-32
    72b6:	0068                	addi	a0,sp,12
    72b8:	07c2                	slli	a5,a5,0x10
    72ba:	83c1                	srli	a5,a5,0x10
    72bc:	cff7f793          	andi	a5,a5,-769
    72c0:	8fd9                	or	a5,a5,a4
    72c2:	a85e                	sh	a5,20(s0)
    72c4:	bb9ff0ef          	jal	ra,6e7c <RCC_GetClocksFreq>
    72c8:	400147b7          	lui	a5,0x40014
    72cc:	80078793          	addi	a5,a5,-2048 # 40013800 <_eusrstack+0x2000e800>
    72d0:	08f40863          	beq	s0,a5,7360 <USART_Init+0xde>
    72d4:	4752                	lw	a4,20(sp)
    72d6:	2456                	lhu	a3,12(s0)
    72d8:	00171793          	slli	a5,a4,0x1
    72dc:	97ba                	add	a5,a5,a4
    72de:	06c2                	slli	a3,a3,0x10
    72e0:	078e                	slli	a5,a5,0x3
    72e2:	86c1                	srai	a3,a3,0x10
    72e4:	97ba                	add	a5,a5,a4
    72e6:	4098                	lw	a4,0(s1)
    72e8:	0206ce63          	bltz	a3,7324 <USART_Init+0xa2>
    72ec:	070a                	slli	a4,a4,0x2
    72ee:	02e7d7b3          	divu	a5,a5,a4
    72f2:	06400713          	li	a4,100
    72f6:	2452                	lhu	a2,12(s0)
    72f8:	0642                	slli	a2,a2,0x10
    72fa:	8641                	srai	a2,a2,0x10
    72fc:	02e7d6b3          	divu	a3,a5,a4
    7300:	02e7f7b3          	remu	a5,a5,a4
    7304:	0692                	slli	a3,a3,0x4
    7306:	02064e63          	bltz	a2,7342 <USART_Init+0xc0>
    730a:	0792                	slli	a5,a5,0x4
    730c:	03278793          	addi	a5,a5,50
    7310:	02e7d7b3          	divu	a5,a5,a4
    7314:	8bbd                	andi	a5,a5,15
    7316:	8fd5                	or	a5,a5,a3
    7318:	07c2                	slli	a5,a5,0x10
    731a:	83c1                	srli	a5,a5,0x10
    731c:	a41e                	sh	a5,8(s0)
    731e:	6105                	addi	sp,sp,32
    7320:	e75f806f          	j	194 <__riscv_restore_0>
    7324:	0706                	slli	a4,a4,0x1
    7326:	02e7d7b3          	divu	a5,a5,a4
    732a:	06400713          	li	a4,100
    732e:	2452                	lhu	a2,12(s0)
    7330:	0642                	slli	a2,a2,0x10
    7332:	8641                	srai	a2,a2,0x10
    7334:	02e7d6b3          	divu	a3,a5,a4
    7338:	02e7f7b3          	remu	a5,a5,a4
    733c:	0692                	slli	a3,a3,0x4
    733e:	fc0656e3          	bgez	a2,730a <USART_Init+0x88>
    7342:	078e                	slli	a5,a5,0x3
    7344:	03278793          	addi	a5,a5,50
    7348:	02e7d7b3          	divu	a5,a5,a4
    734c:	0077f713          	andi	a4,a5,7
    7350:	00d767b3          	or	a5,a4,a3
    7354:	07c2                	slli	a5,a5,0x10
    7356:	83c1                	srli	a5,a5,0x10
    7358:	a41e                	sh	a5,8(s0)
    735a:	6105                	addi	sp,sp,32
    735c:	e39f806f          	j	194 <__riscv_restore_0>
    7360:	4762                	lw	a4,24(sp)
    7362:	bf95                	j	72d6 <USART_Init+0x54>

00007364 <USART_Cmd>:
    7364:	c591                	beqz	a1,7370 <USART_Cmd+0xc>
    7366:	255e                	lhu	a5,12(a0)
    7368:	6709                	lui	a4,0x2
    736a:	8fd9                	or	a5,a5,a4
    736c:	a55e                	sh	a5,12(a0)
    736e:	8082                	ret
    7370:	255a                	lhu	a4,12(a0)
    7372:	77f9                	lui	a5,0xffffe
    7374:	17fd                	addi	a5,a5,-1
    7376:	8ff9                	and	a5,a5,a4
    7378:	a55e                	sh	a5,12(a0)
    737a:	8082                	ret

0000737c <USART_DMACmd>:
    737c:	295e                	lhu	a5,20(a0)
    737e:	c601                	beqz	a2,7386 <USART_DMACmd+0xa>
    7380:	8ddd                	or	a1,a1,a5
    7382:	a94e                	sh	a1,20(a0)
    7384:	8082                	ret
    7386:	fff5c593          	not	a1,a1
    738a:	8dfd                	and	a1,a1,a5
    738c:	a94e                	sh	a1,20(a0)
    738e:	8082                	ret

00007390 <USART_SendData>:
    7390:	1ff5f593          	andi	a1,a1,511
    7394:	a14e                	sh	a1,4(a0)
    7396:	8082                	ret

00007398 <USART_GetFlagStatus>:
    7398:	210a                	lhu	a0,0(a0)
    739a:	8d6d                	and	a0,a0,a1
    739c:	00a03533          	snez	a0,a0
    73a0:	8082                	ret

000073a2 <Delay_Init>:
    73a2:	200007b7          	lui	a5,0x20000
    73a6:	0747a783          	lw	a5,116(a5) # 20000074 <SystemCoreClock>
    73aa:	007a1737          	lui	a4,0x7a1
    73ae:	20070713          	addi	a4,a4,512 # 7a1200 <_data_lma+0x793200>
    73b2:	02e7d7b3          	divu	a5,a5,a4
    73b6:	3e800713          	li	a4,1000
    73ba:	0ff7f793          	andi	a5,a5,255
    73be:	02e78733          	mul	a4,a5,a4
    73c2:	8af18d23          	sb	a5,-1862(gp) # 2000012a <p_us>
    73c6:	8ae19c23          	sh	a4,-1864(gp) # 20000128 <p_ms>
    73ca:	8082                	ret

000073cc <Delay_Us>:
    73cc:	e000f7b7          	lui	a5,0xe000f
    73d0:	43d8                	lw	a4,4(a5)
    73d2:	4681                	li	a3,0
    73d4:	9b79                	andi	a4,a4,-2
    73d6:	c3d8                	sw	a4,4(a5)
    73d8:	8ba1c583          	lbu	a1,-1862(gp) # 2000012a <p_us>
    73dc:	e000f737          	lui	a4,0xe000f
    73e0:	02a58633          	mul	a2,a1,a0
    73e4:	cb90                	sw	a2,16(a5)
    73e6:	cbd4                	sw	a3,20(a5)
    73e8:	4394                	lw	a3,0(a5)
    73ea:	0106e693          	ori	a3,a3,16
    73ee:	c394                	sw	a3,0(a5)
    73f0:	4394                	lw	a3,0(a5)
    73f2:	0216e693          	ori	a3,a3,33
    73f6:	c394                	sw	a3,0(a5)
    73f8:	435c                	lw	a5,4(a4)
    73fa:	8b85                	andi	a5,a5,1
    73fc:	dff5                	beqz	a5,73f8 <Delay_Us+0x2c>
    73fe:	431c                	lw	a5,0(a4)
    7400:	9bf9                	andi	a5,a5,-2
    7402:	c31c                	sw	a5,0(a4)
    7404:	8082                	ret

00007406 <Delay_Ms>:
    7406:	e000f7b7          	lui	a5,0xe000f
    740a:	43d8                	lw	a4,4(a5)
    740c:	4681                	li	a3,0
    740e:	9b79                	andi	a4,a4,-2
    7410:	c3d8                	sw	a4,4(a5)
    7412:	8b81d583          	lhu	a1,-1864(gp) # 20000128 <p_ms>
    7416:	e000f737          	lui	a4,0xe000f
    741a:	02a58633          	mul	a2,a1,a0
    741e:	cb90                	sw	a2,16(a5)
    7420:	cbd4                	sw	a3,20(a5)
    7422:	4394                	lw	a3,0(a5)
    7424:	0106e693          	ori	a3,a3,16
    7428:	c394                	sw	a3,0(a5)
    742a:	4394                	lw	a3,0(a5)
    742c:	0216e693          	ori	a3,a3,33
    7430:	c394                	sw	a3,0(a5)
    7432:	435c                	lw	a5,4(a4)
    7434:	8b85                	andi	a5,a5,1
    7436:	dff5                	beqz	a5,7432 <Delay_Ms+0x2c>
    7438:	431c                	lw	a5,0(a4)
    743a:	9bf9                	andi	a5,a5,-2
    743c:	c31c                	sw	a5,0(a4)
    743e:	8082                	ret

00007440 <_write>:
    7440:	d17f82ef          	jal	t0,156 <__riscv_save_4>
    7444:	89b2                	mv	s3,a2
    7446:	02c05963          	blez	a2,7478 <_write+0x38>
    744a:	40004437          	lui	s0,0x40004
    744e:	84ae                	mv	s1,a1
    7450:	00c58933          	add	s2,a1,a2
    7454:	40040413          	addi	s0,s0,1024 # 40004400 <_eusrstack+0x1ffff400>
    7458:	04000593          	li	a1,64
    745c:	8522                	mv	a0,s0
    745e:	f3bff0ef          	jal	ra,7398 <USART_GetFlagStatus>
    7462:	d97d                	beqz	a0,7458 <_write+0x18>
    7464:	0485                	addi	s1,s1,1
    7466:	fff48583          	lb	a1,-1(s1)
    746a:	8522                	mv	a0,s0
    746c:	05c2                	slli	a1,a1,0x10
    746e:	81c1                	srli	a1,a1,0x10
    7470:	f21ff0ef          	jal	ra,7390 <USART_SendData>
    7474:	fe9912e3          	bne	s2,s1,7458 <_write+0x18>
    7478:	854e                	mv	a0,s3
    747a:	d11f806f          	j	18a <__riscv_restore_4>

0000747e <_sbrk>:
    747e:	80c18793          	addi	a5,gp,-2036 # 2000007c <curbrk.4579>
    7482:	4394                	lw	a3,0(a5)
    7484:	20005737          	lui	a4,0x20005
    7488:	af470713          	addi	a4,a4,-1292 # 20004af4 <_ebss>
    748c:	9536                	add	a0,a0,a3
    748e:	00e56b63          	bltu	a0,a4,74a4 <_sbrk+0x26>
    7492:	20005737          	lui	a4,0x20005
    7496:	e0070713          	addi	a4,a4,-512 # 20004e00 <_heap_end>
    749a:	00a76563          	bltu	a4,a0,74a4 <_sbrk+0x26>
    749e:	c388                	sw	a0,0(a5)
    74a0:	8536                	mv	a0,a3
    74a2:	8082                	ret
    74a4:	56fd                	li	a3,-1
    74a6:	8536                	mv	a0,a3
    74a8:	8082                	ret

000074aa <malloc>:
    74aa:	81018793          	addi	a5,gp,-2032 # 20000080 <_impure_ptr>
    74ae:	85aa                	mv	a1,a0
    74b0:	4388                	lw	a0,0(a5)
    74b2:	aa85                	j	7622 <_malloc_r>

000074b4 <memchr>:
    74b4:	0ff5f593          	andi	a1,a1,255
    74b8:	962a                	add	a2,a2,a0
    74ba:	00c51463          	bne	a0,a2,74c2 <memchr+0xe>
    74be:	4501                	li	a0,0
    74c0:	8082                	ret
    74c2:	211c                	lbu	a5,0(a0)
    74c4:	feb78ee3          	beq	a5,a1,74c0 <memchr+0xc>
    74c8:	0505                	addi	a0,a0,1
    74ca:	bfc5                	j	74ba <memchr+0x6>

000074cc <memcpy>:
    74cc:	00a5c7b3          	xor	a5,a1,a0
    74d0:	8b8d                	andi	a5,a5,3
    74d2:	00c50733          	add	a4,a0,a2
    74d6:	e781                	bnez	a5,74de <memcpy+0x12>
    74d8:	478d                	li	a5,3
    74da:	00c7ed63          	bltu	a5,a2,74f4 <memcpy+0x28>
    74de:	87aa                	mv	a5,a0
    74e0:	08e57e63          	bgeu	a0,a4,757c <memcpy+0xb0>
    74e4:	2194                	lbu	a3,0(a1)
    74e6:	0785                	addi	a5,a5,1
    74e8:	0585                	addi	a1,a1,1
    74ea:	fed78fa3          	sb	a3,-1(a5) # e000efff <_eusrstack+0xc0009fff>
    74ee:	fee7ebe3          	bltu	a5,a4,74e4 <memcpy+0x18>
    74f2:	8082                	ret
    74f4:	00357693          	andi	a3,a0,3
    74f8:	87aa                	mv	a5,a0
    74fa:	ca89                	beqz	a3,750c <memcpy+0x40>
    74fc:	2194                	lbu	a3,0(a1)
    74fe:	0785                	addi	a5,a5,1
    7500:	0585                	addi	a1,a1,1
    7502:	fed78fa3          	sb	a3,-1(a5)
    7506:	0037f693          	andi	a3,a5,3
    750a:	bfc5                	j	74fa <memcpy+0x2e>
    750c:	ffc77693          	andi	a3,a4,-4
    7510:	fe068613          	addi	a2,a3,-32
    7514:	06c7f063          	bgeu	a5,a2,7574 <memcpy+0xa8>
    7518:	0005a383          	lw	t2,0(a1)
    751c:	0045a283          	lw	t0,4(a1)
    7520:	0085af83          	lw	t6,8(a1)
    7524:	00c5af03          	lw	t5,12(a1)
    7528:	0105ae83          	lw	t4,16(a1)
    752c:	0145ae03          	lw	t3,20(a1)
    7530:	0185a303          	lw	t1,24(a1)
    7534:	01c5a883          	lw	a7,28(a1)
    7538:	02458593          	addi	a1,a1,36
    753c:	0077a023          	sw	t2,0(a5)
    7540:	ffc5a803          	lw	a6,-4(a1)
    7544:	0057a223          	sw	t0,4(a5)
    7548:	01f7a423          	sw	t6,8(a5)
    754c:	01e7a623          	sw	t5,12(a5)
    7550:	01d7a823          	sw	t4,16(a5)
    7554:	01c7aa23          	sw	t3,20(a5)
    7558:	0067ac23          	sw	t1,24(a5)
    755c:	0117ae23          	sw	a7,28(a5)
    7560:	02478793          	addi	a5,a5,36
    7564:	ff07ae23          	sw	a6,-4(a5)
    7568:	b775                	j	7514 <memcpy+0x48>
    756a:	4190                	lw	a2,0(a1)
    756c:	0791                	addi	a5,a5,4
    756e:	0591                	addi	a1,a1,4
    7570:	fec7ae23          	sw	a2,-4(a5)
    7574:	fed7ebe3          	bltu	a5,a3,756a <memcpy+0x9e>
    7578:	f6e7e6e3          	bltu	a5,a4,74e4 <memcpy+0x18>
    757c:	8082                	ret

0000757e <_free_r>:
    757e:	c1cd                	beqz	a1,7620 <_free_r+0xa2>
    7580:	ffc5a783          	lw	a5,-4(a1)
    7584:	1141                	addi	sp,sp,-16
    7586:	c422                	sw	s0,8(sp)
    7588:	c606                	sw	ra,12(sp)
    758a:	c226                	sw	s1,4(sp)
    758c:	ffc58413          	addi	s0,a1,-4
    7590:	0007d363          	bgez	a5,7596 <_free_r+0x18>
    7594:	943e                	add	s0,s0,a5
    7596:	84aa                	mv	s1,a0
    7598:	26c5                	jal	7978 <__malloc_lock>
    759a:	8bc18793          	addi	a5,gp,-1860 # 2000012c <__malloc_free_list>
    759e:	439c                	lw	a5,0(a5)
    75a0:	eb99                	bnez	a5,75b6 <_free_r+0x38>
    75a2:	00042223          	sw	zero,4(s0)
    75a6:	8a81ae23          	sw	s0,-1860(gp) # 2000012c <__malloc_free_list>
    75aa:	4422                	lw	s0,8(sp)
    75ac:	40b2                	lw	ra,12(sp)
    75ae:	8526                	mv	a0,s1
    75b0:	4492                	lw	s1,4(sp)
    75b2:	0141                	addi	sp,sp,16
    75b4:	a6d9                	j	797a <__malloc_unlock>
    75b6:	00f47e63          	bgeu	s0,a5,75d2 <_free_r+0x54>
    75ba:	4014                	lw	a3,0(s0)
    75bc:	00d40733          	add	a4,s0,a3
    75c0:	00e79663          	bne	a5,a4,75cc <_free_r+0x4e>
    75c4:	4398                	lw	a4,0(a5)
    75c6:	43dc                	lw	a5,4(a5)
    75c8:	9736                	add	a4,a4,a3
    75ca:	c018                	sw	a4,0(s0)
    75cc:	c05c                	sw	a5,4(s0)
    75ce:	bfe1                	j	75a6 <_free_r+0x28>
    75d0:	87ba                	mv	a5,a4
    75d2:	43d8                	lw	a4,4(a5)
    75d4:	c319                	beqz	a4,75da <_free_r+0x5c>
    75d6:	fee47de3          	bgeu	s0,a4,75d0 <_free_r+0x52>
    75da:	4394                	lw	a3,0(a5)
    75dc:	00d78633          	add	a2,a5,a3
    75e0:	00861f63          	bne	a2,s0,75fe <_free_r+0x80>
    75e4:	4010                	lw	a2,0(s0)
    75e6:	96b2                	add	a3,a3,a2
    75e8:	c394                	sw	a3,0(a5)
    75ea:	00d78633          	add	a2,a5,a3
    75ee:	fac71ee3          	bne	a4,a2,75aa <_free_r+0x2c>
    75f2:	4310                	lw	a2,0(a4)
    75f4:	4358                	lw	a4,4(a4)
    75f6:	96b2                	add	a3,a3,a2
    75f8:	c394                	sw	a3,0(a5)
    75fa:	c3d8                	sw	a4,4(a5)
    75fc:	b77d                	j	75aa <_free_r+0x2c>
    75fe:	00c47563          	bgeu	s0,a2,7608 <_free_r+0x8a>
    7602:	47b1                	li	a5,12
    7604:	c09c                	sw	a5,0(s1)
    7606:	b755                	j	75aa <_free_r+0x2c>
    7608:	4010                	lw	a2,0(s0)
    760a:	00c406b3          	add	a3,s0,a2
    760e:	00d71663          	bne	a4,a3,761a <_free_r+0x9c>
    7612:	4314                	lw	a3,0(a4)
    7614:	4358                	lw	a4,4(a4)
    7616:	96b2                	add	a3,a3,a2
    7618:	c014                	sw	a3,0(s0)
    761a:	c058                	sw	a4,4(s0)
    761c:	c3c0                	sw	s0,4(a5)
    761e:	b771                	j	75aa <_free_r+0x2c>
    7620:	8082                	ret

00007622 <_malloc_r>:
    7622:	1101                	addi	sp,sp,-32
    7624:	ca26                	sw	s1,20(sp)
    7626:	00358493          	addi	s1,a1,3
    762a:	98f1                	andi	s1,s1,-4
    762c:	ce06                	sw	ra,28(sp)
    762e:	cc22                	sw	s0,24(sp)
    7630:	c84a                	sw	s2,16(sp)
    7632:	c64e                	sw	s3,12(sp)
    7634:	04a1                	addi	s1,s1,8
    7636:	47b1                	li	a5,12
    7638:	04f4f163          	bgeu	s1,a5,767a <_malloc_r+0x58>
    763c:	44b1                	li	s1,12
    763e:	04b4e063          	bltu	s1,a1,767e <_malloc_r+0x5c>
    7642:	892a                	mv	s2,a0
    7644:	2e15                	jal	7978 <__malloc_lock>
    7646:	8bc18793          	addi	a5,gp,-1860 # 2000012c <__malloc_free_list>
    764a:	4398                	lw	a4,0(a5)
    764c:	843a                	mv	s0,a4
    764e:	e031                	bnez	s0,7692 <_malloc_r+0x70>
    7650:	8c018793          	addi	a5,gp,-1856 # 20000130 <__malloc_sbrk_start>
    7654:	439c                	lw	a5,0(a5)
    7656:	e791                	bnez	a5,7662 <_malloc_r+0x40>
    7658:	4581                	li	a1,0
    765a:	854a                	mv	a0,s2
    765c:	2875                	jal	7718 <_sbrk_r>
    765e:	8ca1a023          	sw	a0,-1856(gp) # 20000130 <__malloc_sbrk_start>
    7662:	85a6                	mv	a1,s1
    7664:	854a                	mv	a0,s2
    7666:	284d                	jal	7718 <_sbrk_r>
    7668:	59fd                	li	s3,-1
    766a:	07351763          	bne	a0,s3,76d8 <_malloc_r+0xb6>
    766e:	47b1                	li	a5,12
    7670:	00f92023          	sw	a5,0(s2)
    7674:	854a                	mv	a0,s2
    7676:	2611                	jal	797a <__malloc_unlock>
    7678:	a029                	j	7682 <_malloc_r+0x60>
    767a:	fc04d2e3          	bgez	s1,763e <_malloc_r+0x1c>
    767e:	47b1                	li	a5,12
    7680:	c11c                	sw	a5,0(a0)
    7682:	4501                	li	a0,0
    7684:	40f2                	lw	ra,28(sp)
    7686:	4462                	lw	s0,24(sp)
    7688:	44d2                	lw	s1,20(sp)
    768a:	4942                	lw	s2,16(sp)
    768c:	49b2                	lw	s3,12(sp)
    768e:	6105                	addi	sp,sp,32
    7690:	8082                	ret
    7692:	401c                	lw	a5,0(s0)
    7694:	8f85                	sub	a5,a5,s1
    7696:	0207ce63          	bltz	a5,76d2 <_malloc_r+0xb0>
    769a:	46ad                	li	a3,11
    769c:	00f6f663          	bgeu	a3,a5,76a8 <_malloc_r+0x86>
    76a0:	c01c                	sw	a5,0(s0)
    76a2:	943e                	add	s0,s0,a5
    76a4:	c004                	sw	s1,0(s0)
    76a6:	a031                	j	76b2 <_malloc_r+0x90>
    76a8:	405c                	lw	a5,4(s0)
    76aa:	02871263          	bne	a4,s0,76ce <_malloc_r+0xac>
    76ae:	8af1ae23          	sw	a5,-1860(gp) # 2000012c <__malloc_free_list>
    76b2:	854a                	mv	a0,s2
    76b4:	24d9                	jal	797a <__malloc_unlock>
    76b6:	00b40513          	addi	a0,s0,11
    76ba:	00440793          	addi	a5,s0,4
    76be:	9961                	andi	a0,a0,-8
    76c0:	40f50733          	sub	a4,a0,a5
    76c4:	d361                	beqz	a4,7684 <_malloc_r+0x62>
    76c6:	943a                	add	s0,s0,a4
    76c8:	8f89                	sub	a5,a5,a0
    76ca:	c01c                	sw	a5,0(s0)
    76cc:	bf65                	j	7684 <_malloc_r+0x62>
    76ce:	c35c                	sw	a5,4(a4)
    76d0:	b7cd                	j	76b2 <_malloc_r+0x90>
    76d2:	8722                	mv	a4,s0
    76d4:	4040                	lw	s0,4(s0)
    76d6:	bfa5                	j	764e <_malloc_r+0x2c>
    76d8:	00350413          	addi	s0,a0,3
    76dc:	9871                	andi	s0,s0,-4
    76de:	fc8503e3          	beq	a0,s0,76a4 <_malloc_r+0x82>
    76e2:	40a405b3          	sub	a1,s0,a0
    76e6:	854a                	mv	a0,s2
    76e8:	2805                	jal	7718 <_sbrk_r>
    76ea:	fb351de3          	bne	a0,s3,76a4 <_malloc_r+0x82>
    76ee:	b741                	j	766e <_malloc_r+0x4c>

000076f0 <putchar>:
    76f0:	1101                	addi	sp,sp,-32
    76f2:	81018793          	addi	a5,gp,-2032 # 20000080 <_impure_ptr>
    76f6:	cc22                	sw	s0,24(sp)
    76f8:	4380                	lw	s0,0(a5)
    76fa:	ce06                	sw	ra,28(sp)
    76fc:	85aa                	mv	a1,a0
    76fe:	c419                	beqz	s0,770c <putchar+0x1c>
    7700:	4c1c                	lw	a5,24(s0)
    7702:	e789                	bnez	a5,770c <putchar+0x1c>
    7704:	c62a                	sw	a0,12(sp)
    7706:	8522                	mv	a0,s0
    7708:	28ed                	jal	7802 <__sinit>
    770a:	45b2                	lw	a1,12(sp)
    770c:	4410                	lw	a2,8(s0)
    770e:	8522                	mv	a0,s0
    7710:	4462                	lw	s0,24(sp)
    7712:	40f2                	lw	ra,28(sp)
    7714:	6105                	addi	sp,sp,32
    7716:	a49d                	j	797c <_putc_r>

00007718 <_sbrk_r>:
    7718:	1141                	addi	sp,sp,-16
    771a:	c422                	sw	s0,8(sp)
    771c:	842a                	mv	s0,a0
    771e:	852e                	mv	a0,a1
    7720:	1fffd797          	auipc	a5,0x1fffd
    7724:	3c07a823          	sw	zero,976(a5) # 20004af0 <errno>
    7728:	c606                	sw	ra,12(sp)
    772a:	d55ff0ef          	jal	ra,747e <_sbrk>
    772e:	57fd                	li	a5,-1
    7730:	00f51963          	bne	a0,a5,7742 <_sbrk_r+0x2a>
    7734:	1fffd797          	auipc	a5,0x1fffd
    7738:	3bc78793          	addi	a5,a5,956 # 20004af0 <errno>
    773c:	439c                	lw	a5,0(a5)
    773e:	c391                	beqz	a5,7742 <_sbrk_r+0x2a>
    7740:	c01c                	sw	a5,0(s0)
    7742:	40b2                	lw	ra,12(sp)
    7744:	4422                	lw	s0,8(sp)
    7746:	0141                	addi	sp,sp,16
    7748:	8082                	ret

0000774a <std>:
    774a:	1141                	addi	sp,sp,-16
    774c:	c422                	sw	s0,8(sp)
    774e:	c606                	sw	ra,12(sp)
    7750:	842a                	mv	s0,a0
    7752:	a54e                	sh	a1,12(a0)
    7754:	a572                	sh	a2,14(a0)
    7756:	00052023          	sw	zero,0(a0)
    775a:	00052223          	sw	zero,4(a0)
    775e:	00052423          	sw	zero,8(a0)
    7762:	06052223          	sw	zero,100(a0)
    7766:	00052823          	sw	zero,16(a0)
    776a:	00052a23          	sw	zero,20(a0)
    776e:	00052c23          	sw	zero,24(a0)
    7772:	4621                	li	a2,8
    7774:	4581                	li	a1,0
    7776:	05c50513          	addi	a0,a0,92
    777a:	a27f80ef          	jal	ra,1a0 <memset>
    777e:	00000797          	auipc	a5,0x0
    7782:	28078793          	addi	a5,a5,640 # 79fe <__sread>
    7786:	d05c                	sw	a5,36(s0)
    7788:	00000797          	auipc	a5,0x0
    778c:	2a278793          	addi	a5,a5,674 # 7a2a <__swrite>
    7790:	d41c                	sw	a5,40(s0)
    7792:	00000797          	auipc	a5,0x0
    7796:	2e078793          	addi	a5,a5,736 # 7a72 <__sseek>
    779a:	d45c                	sw	a5,44(s0)
    779c:	00000797          	auipc	a5,0x0
    77a0:	30678793          	addi	a5,a5,774 # 7aa2 <__sclose>
    77a4:	d000                	sw	s0,32(s0)
    77a6:	d81c                	sw	a5,48(s0)
    77a8:	40b2                	lw	ra,12(sp)
    77aa:	4422                	lw	s0,8(sp)
    77ac:	0141                	addi	sp,sp,16
    77ae:	8082                	ret

000077b0 <_cleanup_r>:
    77b0:	00000597          	auipc	a1,0x0
    77b4:	64e58593          	addi	a1,a1,1614 # 7dfe <_fflush_r>
    77b8:	aa99                	j	790e <_fwalk_reent>

000077ba <__sfmoreglue>:
    77ba:	1141                	addi	sp,sp,-16
    77bc:	c226                	sw	s1,4(sp)
    77be:	06800613          	li	a2,104
    77c2:	fff58493          	addi	s1,a1,-1
    77c6:	02c484b3          	mul	s1,s1,a2
    77ca:	c04a                	sw	s2,0(sp)
    77cc:	892e                	mv	s2,a1
    77ce:	c422                	sw	s0,8(sp)
    77d0:	c606                	sw	ra,12(sp)
    77d2:	07448593          	addi	a1,s1,116
    77d6:	e4dff0ef          	jal	ra,7622 <_malloc_r>
    77da:	842a                	mv	s0,a0
    77dc:	cd01                	beqz	a0,77f4 <__sfmoreglue+0x3a>
    77de:	00052023          	sw	zero,0(a0)
    77e2:	01252223          	sw	s2,4(a0)
    77e6:	0531                	addi	a0,a0,12
    77e8:	c408                	sw	a0,8(s0)
    77ea:	06848613          	addi	a2,s1,104
    77ee:	4581                	li	a1,0
    77f0:	9b1f80ef          	jal	ra,1a0 <memset>
    77f4:	8522                	mv	a0,s0
    77f6:	40b2                	lw	ra,12(sp)
    77f8:	4422                	lw	s0,8(sp)
    77fa:	4492                	lw	s1,4(sp)
    77fc:	4902                	lw	s2,0(sp)
    77fe:	0141                	addi	sp,sp,16
    7800:	8082                	ret

00007802 <__sinit>:
    7802:	4d1c                	lw	a5,24(a0)
    7804:	e7a5                	bnez	a5,786c <__sinit+0x6a>
    7806:	1141                	addi	sp,sp,-16
    7808:	c606                	sw	ra,12(sp)
    780a:	c422                	sw	s0,8(sp)
    780c:	00000797          	auipc	a5,0x0
    7810:	fa478793          	addi	a5,a5,-92 # 77b0 <_cleanup_r>
    7814:	d51c                	sw	a5,40(a0)
    7816:	88418793          	addi	a5,gp,-1916 # 200000f4 <_global_impure_ptr>
    781a:	439c                	lw	a5,0(a5)
    781c:	04052423          	sw	zero,72(a0)
    7820:	04052623          	sw	zero,76(a0)
    7824:	04052823          	sw	zero,80(a0)
    7828:	00f51463          	bne	a0,a5,7830 <__sinit+0x2e>
    782c:	4785                	li	a5,1
    782e:	cd1c                	sw	a5,24(a0)
    7830:	842a                	mv	s0,a0
    7832:	2835                	jal	786e <__sfp>
    7834:	c048                	sw	a0,4(s0)
    7836:	8522                	mv	a0,s0
    7838:	281d                	jal	786e <__sfp>
    783a:	c408                	sw	a0,8(s0)
    783c:	8522                	mv	a0,s0
    783e:	2805                	jal	786e <__sfp>
    7840:	c448                	sw	a0,12(s0)
    7842:	4048                	lw	a0,4(s0)
    7844:	4601                	li	a2,0
    7846:	4591                	li	a1,4
    7848:	f03ff0ef          	jal	ra,774a <std>
    784c:	4408                	lw	a0,8(s0)
    784e:	4605                	li	a2,1
    7850:	45a5                	li	a1,9
    7852:	ef9ff0ef          	jal	ra,774a <std>
    7856:	4448                	lw	a0,12(s0)
    7858:	4609                	li	a2,2
    785a:	45c9                	li	a1,18
    785c:	eefff0ef          	jal	ra,774a <std>
    7860:	4785                	li	a5,1
    7862:	cc1c                	sw	a5,24(s0)
    7864:	40b2                	lw	ra,12(sp)
    7866:	4422                	lw	s0,8(sp)
    7868:	0141                	addi	sp,sp,16
    786a:	8082                	ret
    786c:	8082                	ret

0000786e <__sfp>:
    786e:	1141                	addi	sp,sp,-16
    7870:	88418793          	addi	a5,gp,-1916 # 200000f4 <_global_impure_ptr>
    7874:	c226                	sw	s1,4(sp)
    7876:	4384                	lw	s1,0(a5)
    7878:	c04a                	sw	s2,0(sp)
    787a:	c606                	sw	ra,12(sp)
    787c:	4c9c                	lw	a5,24(s1)
    787e:	c422                	sw	s0,8(sp)
    7880:	892a                	mv	s2,a0
    7882:	e781                	bnez	a5,788a <__sfp+0x1c>
    7884:	8526                	mv	a0,s1
    7886:	f7dff0ef          	jal	ra,7802 <__sinit>
    788a:	04848493          	addi	s1,s1,72
    788e:	4480                	lw	s0,8(s1)
    7890:	40dc                	lw	a5,4(s1)
    7892:	17fd                	addi	a5,a5,-1
    7894:	0007d663          	bgez	a5,78a0 <__sfp+0x32>
    7898:	409c                	lw	a5,0(s1)
    789a:	cfb9                	beqz	a5,78f8 <__sfp+0x8a>
    789c:	4084                	lw	s1,0(s1)
    789e:	bfc5                	j	788e <__sfp+0x20>
    78a0:	00c41703          	lh	a4,12(s0)
    78a4:	e739                	bnez	a4,78f2 <__sfp+0x84>
    78a6:	77c1                	lui	a5,0xffff0
    78a8:	0785                	addi	a5,a5,1
    78aa:	06042223          	sw	zero,100(s0)
    78ae:	00042023          	sw	zero,0(s0)
    78b2:	00042223          	sw	zero,4(s0)
    78b6:	00042423          	sw	zero,8(s0)
    78ba:	c45c                	sw	a5,12(s0)
    78bc:	00042823          	sw	zero,16(s0)
    78c0:	00042a23          	sw	zero,20(s0)
    78c4:	00042c23          	sw	zero,24(s0)
    78c8:	4621                	li	a2,8
    78ca:	4581                	li	a1,0
    78cc:	05c40513          	addi	a0,s0,92
    78d0:	8d1f80ef          	jal	ra,1a0 <memset>
    78d4:	02042a23          	sw	zero,52(s0)
    78d8:	02042c23          	sw	zero,56(s0)
    78dc:	04042423          	sw	zero,72(s0)
    78e0:	04042623          	sw	zero,76(s0)
    78e4:	8522                	mv	a0,s0
    78e6:	40b2                	lw	ra,12(sp)
    78e8:	4422                	lw	s0,8(sp)
    78ea:	4492                	lw	s1,4(sp)
    78ec:	4902                	lw	s2,0(sp)
    78ee:	0141                	addi	sp,sp,16
    78f0:	8082                	ret
    78f2:	06840413          	addi	s0,s0,104
    78f6:	bf71                	j	7892 <__sfp+0x24>
    78f8:	4591                	li	a1,4
    78fa:	854a                	mv	a0,s2
    78fc:	ebfff0ef          	jal	ra,77ba <__sfmoreglue>
    7900:	c088                	sw	a0,0(s1)
    7902:	fd49                	bnez	a0,789c <__sfp+0x2e>
    7904:	47b1                	li	a5,12
    7906:	00f92023          	sw	a5,0(s2)
    790a:	4401                	li	s0,0
    790c:	bfe1                	j	78e4 <__sfp+0x76>

0000790e <_fwalk_reent>:
    790e:	7179                	addi	sp,sp,-48
    7910:	d422                	sw	s0,40(sp)
    7912:	d04a                	sw	s2,32(sp)
    7914:	cc52                	sw	s4,24(sp)
    7916:	ca56                	sw	s5,20(sp)
    7918:	c85a                	sw	s6,16(sp)
    791a:	c65e                	sw	s7,12(sp)
    791c:	d606                	sw	ra,44(sp)
    791e:	d226                	sw	s1,36(sp)
    7920:	ce4e                	sw	s3,28(sp)
    7922:	8a2a                	mv	s4,a0
    7924:	8aae                	mv	s5,a1
    7926:	04850413          	addi	s0,a0,72
    792a:	4901                	li	s2,0
    792c:	4b05                	li	s6,1
    792e:	5bfd                	li	s7,-1
    7930:	ec09                	bnez	s0,794a <_fwalk_reent+0x3c>
    7932:	50b2                	lw	ra,44(sp)
    7934:	5422                	lw	s0,40(sp)
    7936:	854a                	mv	a0,s2
    7938:	5492                	lw	s1,36(sp)
    793a:	5902                	lw	s2,32(sp)
    793c:	49f2                	lw	s3,28(sp)
    793e:	4a62                	lw	s4,24(sp)
    7940:	4ad2                	lw	s5,20(sp)
    7942:	4b42                	lw	s6,16(sp)
    7944:	4bb2                	lw	s7,12(sp)
    7946:	6145                	addi	sp,sp,48
    7948:	8082                	ret
    794a:	4404                	lw	s1,8(s0)
    794c:	00442983          	lw	s3,4(s0)
    7950:	19fd                	addi	s3,s3,-1
    7952:	0009d463          	bgez	s3,795a <_fwalk_reent+0x4c>
    7956:	4000                	lw	s0,0(s0)
    7958:	bfe1                	j	7930 <_fwalk_reent+0x22>
    795a:	24de                	lhu	a5,12(s1)
    795c:	00fb7b63          	bgeu	s6,a5,7972 <_fwalk_reent+0x64>
    7960:	00e49783          	lh	a5,14(s1)
    7964:	01778763          	beq	a5,s7,7972 <_fwalk_reent+0x64>
    7968:	85a6                	mv	a1,s1
    796a:	8552                	mv	a0,s4
    796c:	9a82                	jalr	s5
    796e:	00a96933          	or	s2,s2,a0
    7972:	06848493          	addi	s1,s1,104
    7976:	bfe9                	j	7950 <_fwalk_reent+0x42>

00007978 <__malloc_lock>:
    7978:	8082                	ret

0000797a <__malloc_unlock>:
    797a:	8082                	ret

0000797c <_putc_r>:
    797c:	1101                	addi	sp,sp,-32
    797e:	cc22                	sw	s0,24(sp)
    7980:	ce06                	sw	ra,28(sp)
    7982:	842a                	mv	s0,a0
    7984:	c909                	beqz	a0,7996 <_putc_r+0x1a>
    7986:	4d1c                	lw	a5,24(a0)
    7988:	e799                	bnez	a5,7996 <_putc_r+0x1a>
    798a:	c632                	sw	a2,12(sp)
    798c:	c42e                	sw	a1,8(sp)
    798e:	e75ff0ef          	jal	ra,7802 <__sinit>
    7992:	4632                	lw	a2,12(sp)
    7994:	45a2                	lw	a1,8(sp)
    7996:	00006797          	auipc	a5,0x6
    799a:	62a78793          	addi	a5,a5,1578 # dfc0 <__sf_fake_stdin>
    799e:	02f61563          	bne	a2,a5,79c8 <_putc_r+0x4c>
    79a2:	4050                	lw	a2,4(s0)
    79a4:	461c                	lw	a5,8(a2)
    79a6:	17fd                	addi	a5,a5,-1
    79a8:	c61c                	sw	a5,8(a2)
    79aa:	0207df63          	bgez	a5,79e8 <_putc_r+0x6c>
    79ae:	4e18                	lw	a4,24(a2)
    79b0:	00e7c763          	blt	a5,a4,79be <_putc_r+0x42>
    79b4:	0ff5f793          	andi	a5,a1,255
    79b8:	4729                	li	a4,10
    79ba:	02e79763          	bne	a5,a4,79e8 <_putc_r+0x6c>
    79be:	8522                	mv	a0,s0
    79c0:	4462                	lw	s0,24(sp)
    79c2:	40f2                	lw	ra,28(sp)
    79c4:	6105                	addi	sp,sp,32
    79c6:	a0cd                	j	7aa8 <__swbuf_r>
    79c8:	00006797          	auipc	a5,0x6
    79cc:	61878793          	addi	a5,a5,1560 # dfe0 <__sf_fake_stdout>
    79d0:	00f61463          	bne	a2,a5,79d8 <_putc_r+0x5c>
    79d4:	4410                	lw	a2,8(s0)
    79d6:	b7f9                	j	79a4 <_putc_r+0x28>
    79d8:	00006797          	auipc	a5,0x6
    79dc:	5c878793          	addi	a5,a5,1480 # dfa0 <__sf_fake_stderr>
    79e0:	fcf612e3          	bne	a2,a5,79a4 <_putc_r+0x28>
    79e4:	4450                	lw	a2,12(s0)
    79e6:	bf7d                	j	79a4 <_putc_r+0x28>
    79e8:	421c                	lw	a5,0(a2)
    79ea:	0ff5f513          	andi	a0,a1,255
    79ee:	00178713          	addi	a4,a5,1
    79f2:	c218                	sw	a4,0(a2)
    79f4:	a38c                	sb	a1,0(a5)
    79f6:	40f2                	lw	ra,28(sp)
    79f8:	4462                	lw	s0,24(sp)
    79fa:	6105                	addi	sp,sp,32
    79fc:	8082                	ret

000079fe <__sread>:
    79fe:	1141                	addi	sp,sp,-16
    7a00:	c422                	sw	s0,8(sp)
    7a02:	842e                	mv	s0,a1
    7a04:	00e59583          	lh	a1,14(a1)
    7a08:	c606                	sw	ra,12(sp)
    7a0a:	2ba5                	jal	7f82 <_read_r>
    7a0c:	00054963          	bltz	a0,7a1e <__sread+0x20>
    7a10:	487c                	lw	a5,84(s0)
    7a12:	97aa                	add	a5,a5,a0
    7a14:	c87c                	sw	a5,84(s0)
    7a16:	40b2                	lw	ra,12(sp)
    7a18:	4422                	lw	s0,8(sp)
    7a1a:	0141                	addi	sp,sp,16
    7a1c:	8082                	ret
    7a1e:	245e                	lhu	a5,12(s0)
    7a20:	777d                	lui	a4,0xfffff
    7a22:	177d                	addi	a4,a4,-1
    7a24:	8ff9                	and	a5,a5,a4
    7a26:	a45e                	sh	a5,12(s0)
    7a28:	b7fd                	j	7a16 <__sread+0x18>

00007a2a <__swrite>:
    7a2a:	25de                	lhu	a5,12(a1)
    7a2c:	1101                	addi	sp,sp,-32
    7a2e:	cc22                	sw	s0,24(sp)
    7a30:	ca26                	sw	s1,20(sp)
    7a32:	c84a                	sw	s2,16(sp)
    7a34:	c64e                	sw	s3,12(sp)
    7a36:	ce06                	sw	ra,28(sp)
    7a38:	1007f793          	andi	a5,a5,256
    7a3c:	84aa                	mv	s1,a0
    7a3e:	842e                	mv	s0,a1
    7a40:	8932                	mv	s2,a2
    7a42:	89b6                	mv	s3,a3
    7a44:	c791                	beqz	a5,7a50 <__swrite+0x26>
    7a46:	00e59583          	lh	a1,14(a1)
    7a4a:	4689                	li	a3,2
    7a4c:	4601                	li	a2,0
    7a4e:	2921                	jal	7e66 <_lseek_r>
    7a50:	245e                	lhu	a5,12(s0)
    7a52:	777d                	lui	a4,0xfffff
    7a54:	177d                	addi	a4,a4,-1
    7a56:	8ff9                	and	a5,a5,a4
    7a58:	a45e                	sh	a5,12(s0)
    7a5a:	00e41583          	lh	a1,14(s0)
    7a5e:	4462                	lw	s0,24(sp)
    7a60:	40f2                	lw	ra,28(sp)
    7a62:	86ce                	mv	a3,s3
    7a64:	864a                	mv	a2,s2
    7a66:	49b2                	lw	s3,12(sp)
    7a68:	4942                	lw	s2,16(sp)
    7a6a:	8526                	mv	a0,s1
    7a6c:	44d2                	lw	s1,20(sp)
    7a6e:	6105                	addi	sp,sp,32
    7a70:	a8dd                	j	7b66 <_write_r>

00007a72 <__sseek>:
    7a72:	1141                	addi	sp,sp,-16
    7a74:	c422                	sw	s0,8(sp)
    7a76:	842e                	mv	s0,a1
    7a78:	00e59583          	lh	a1,14(a1)
    7a7c:	c606                	sw	ra,12(sp)
    7a7e:	26e5                	jal	7e66 <_lseek_r>
    7a80:	57fd                	li	a5,-1
    7a82:	245a                	lhu	a4,12(s0)
    7a84:	00f51a63          	bne	a0,a5,7a98 <__sseek+0x26>
    7a88:	77fd                	lui	a5,0xfffff
    7a8a:	17fd                	addi	a5,a5,-1
    7a8c:	8ff9                	and	a5,a5,a4
    7a8e:	a45e                	sh	a5,12(s0)
    7a90:	40b2                	lw	ra,12(sp)
    7a92:	4422                	lw	s0,8(sp)
    7a94:	0141                	addi	sp,sp,16
    7a96:	8082                	ret
    7a98:	6785                	lui	a5,0x1
    7a9a:	8fd9                	or	a5,a5,a4
    7a9c:	a45e                	sh	a5,12(s0)
    7a9e:	c868                	sw	a0,84(s0)
    7aa0:	bfc5                	j	7a90 <__sseek+0x1e>

00007aa2 <__sclose>:
    7aa2:	00e59583          	lh	a1,14(a1)
    7aa6:	aadd                	j	7c9c <_close_r>

00007aa8 <__swbuf_r>:
    7aa8:	1101                	addi	sp,sp,-32
    7aaa:	cc22                	sw	s0,24(sp)
    7aac:	ca26                	sw	s1,20(sp)
    7aae:	c84a                	sw	s2,16(sp)
    7ab0:	ce06                	sw	ra,28(sp)
    7ab2:	c64e                	sw	s3,12(sp)
    7ab4:	84aa                	mv	s1,a0
    7ab6:	892e                	mv	s2,a1
    7ab8:	8432                	mv	s0,a2
    7aba:	c509                	beqz	a0,7ac4 <__swbuf_r+0x1c>
    7abc:	4d1c                	lw	a5,24(a0)
    7abe:	e399                	bnez	a5,7ac4 <__swbuf_r+0x1c>
    7ac0:	d43ff0ef          	jal	ra,7802 <__sinit>
    7ac4:	00006797          	auipc	a5,0x6
    7ac8:	4fc78793          	addi	a5,a5,1276 # dfc0 <__sf_fake_stdin>
    7acc:	06f41763          	bne	s0,a5,7b3a <__swbuf_r+0x92>
    7ad0:	40c0                	lw	s0,4(s1)
    7ad2:	4c1c                	lw	a5,24(s0)
    7ad4:	c41c                	sw	a5,8(s0)
    7ad6:	245e                	lhu	a5,12(s0)
    7ad8:	8ba1                	andi	a5,a5,8
    7ada:	c3c1                	beqz	a5,7b5a <__swbuf_r+0xb2>
    7adc:	481c                	lw	a5,16(s0)
    7ade:	cfb5                	beqz	a5,7b5a <__swbuf_r+0xb2>
    7ae0:	481c                	lw	a5,16(s0)
    7ae2:	4008                	lw	a0,0(s0)
    7ae4:	0ff97993          	andi	s3,s2,255
    7ae8:	0ff97913          	andi	s2,s2,255
    7aec:	8d1d                	sub	a0,a0,a5
    7aee:	485c                	lw	a5,20(s0)
    7af0:	00f54663          	blt	a0,a5,7afc <__swbuf_r+0x54>
    7af4:	85a2                	mv	a1,s0
    7af6:	8526                	mv	a0,s1
    7af8:	2619                	jal	7dfe <_fflush_r>
    7afa:	e525                	bnez	a0,7b62 <__swbuf_r+0xba>
    7afc:	441c                	lw	a5,8(s0)
    7afe:	0505                	addi	a0,a0,1
    7b00:	17fd                	addi	a5,a5,-1
    7b02:	c41c                	sw	a5,8(s0)
    7b04:	401c                	lw	a5,0(s0)
    7b06:	00178713          	addi	a4,a5,1
    7b0a:	c018                	sw	a4,0(s0)
    7b0c:	01378023          	sb	s3,0(a5)
    7b10:	485c                	lw	a5,20(s0)
    7b12:	00a78863          	beq	a5,a0,7b22 <__swbuf_r+0x7a>
    7b16:	245e                	lhu	a5,12(s0)
    7b18:	8b85                	andi	a5,a5,1
    7b1a:	cb81                	beqz	a5,7b2a <__swbuf_r+0x82>
    7b1c:	47a9                	li	a5,10
    7b1e:	00f91663          	bne	s2,a5,7b2a <__swbuf_r+0x82>
    7b22:	85a2                	mv	a1,s0
    7b24:	8526                	mv	a0,s1
    7b26:	2ce1                	jal	7dfe <_fflush_r>
    7b28:	ed0d                	bnez	a0,7b62 <__swbuf_r+0xba>
    7b2a:	40f2                	lw	ra,28(sp)
    7b2c:	4462                	lw	s0,24(sp)
    7b2e:	854a                	mv	a0,s2
    7b30:	44d2                	lw	s1,20(sp)
    7b32:	4942                	lw	s2,16(sp)
    7b34:	49b2                	lw	s3,12(sp)
    7b36:	6105                	addi	sp,sp,32
    7b38:	8082                	ret
    7b3a:	00006797          	auipc	a5,0x6
    7b3e:	4a678793          	addi	a5,a5,1190 # dfe0 <__sf_fake_stdout>
    7b42:	00f41463          	bne	s0,a5,7b4a <__swbuf_r+0xa2>
    7b46:	4480                	lw	s0,8(s1)
    7b48:	b769                	j	7ad2 <__swbuf_r+0x2a>
    7b4a:	00006797          	auipc	a5,0x6
    7b4e:	45678793          	addi	a5,a5,1110 # dfa0 <__sf_fake_stderr>
    7b52:	f8f410e3          	bne	s0,a5,7ad2 <__swbuf_r+0x2a>
    7b56:	44c0                	lw	s0,12(s1)
    7b58:	bfad                	j	7ad2 <__swbuf_r+0x2a>
    7b5a:	85a2                	mv	a1,s0
    7b5c:	8526                	mv	a0,s1
    7b5e:	283d                	jal	7b9c <__swsetup_r>
    7b60:	d141                	beqz	a0,7ae0 <__swbuf_r+0x38>
    7b62:	597d                	li	s2,-1
    7b64:	b7d9                	j	7b2a <__swbuf_r+0x82>

00007b66 <_write_r>:
    7b66:	1141                	addi	sp,sp,-16
    7b68:	c422                	sw	s0,8(sp)
    7b6a:	842a                	mv	s0,a0
    7b6c:	852e                	mv	a0,a1
    7b6e:	85b2                	mv	a1,a2
    7b70:	8636                	mv	a2,a3
    7b72:	1fffd797          	auipc	a5,0x1fffd
    7b76:	f607af23          	sw	zero,-130(a5) # 20004af0 <errno>
    7b7a:	c606                	sw	ra,12(sp)
    7b7c:	8c5ff0ef          	jal	ra,7440 <_write>
    7b80:	57fd                	li	a5,-1
    7b82:	00f51963          	bne	a0,a5,7b94 <_write_r+0x2e>
    7b86:	1fffd797          	auipc	a5,0x1fffd
    7b8a:	f6a78793          	addi	a5,a5,-150 # 20004af0 <errno>
    7b8e:	439c                	lw	a5,0(a5)
    7b90:	c391                	beqz	a5,7b94 <_write_r+0x2e>
    7b92:	c01c                	sw	a5,0(s0)
    7b94:	40b2                	lw	ra,12(sp)
    7b96:	4422                	lw	s0,8(sp)
    7b98:	0141                	addi	sp,sp,16
    7b9a:	8082                	ret

00007b9c <__swsetup_r>:
    7b9c:	1141                	addi	sp,sp,-16
    7b9e:	81018793          	addi	a5,gp,-2032 # 20000080 <_impure_ptr>
    7ba2:	c226                	sw	s1,4(sp)
    7ba4:	4384                	lw	s1,0(a5)
    7ba6:	c422                	sw	s0,8(sp)
    7ba8:	c04a                	sw	s2,0(sp)
    7baa:	c606                	sw	ra,12(sp)
    7bac:	892a                	mv	s2,a0
    7bae:	842e                	mv	s0,a1
    7bb0:	c491                	beqz	s1,7bbc <__swsetup_r+0x20>
    7bb2:	4c9c                	lw	a5,24(s1)
    7bb4:	e781                	bnez	a5,7bbc <__swsetup_r+0x20>
    7bb6:	8526                	mv	a0,s1
    7bb8:	c4bff0ef          	jal	ra,7802 <__sinit>
    7bbc:	00006797          	auipc	a5,0x6
    7bc0:	40478793          	addi	a5,a5,1028 # dfc0 <__sf_fake_stdin>
    7bc4:	02f41b63          	bne	s0,a5,7bfa <__swsetup_r+0x5e>
    7bc8:	40c0                	lw	s0,4(s1)
    7bca:	00c41703          	lh	a4,12(s0)
    7bce:	01071793          	slli	a5,a4,0x10
    7bd2:	83c1                	srli	a5,a5,0x10
    7bd4:	0087f693          	andi	a3,a5,8
    7bd8:	eab5                	bnez	a3,7c4c <__swsetup_r+0xb0>
    7bda:	0107f693          	andi	a3,a5,16
    7bde:	ee95                	bnez	a3,7c1a <__swsetup_r+0x7e>
    7be0:	47a5                	li	a5,9
    7be2:	00f92023          	sw	a5,0(s2)
    7be6:	04076713          	ori	a4,a4,64
    7bea:	a45a                	sh	a4,12(s0)
    7bec:	557d                	li	a0,-1
    7bee:	40b2                	lw	ra,12(sp)
    7bf0:	4422                	lw	s0,8(sp)
    7bf2:	4492                	lw	s1,4(sp)
    7bf4:	4902                	lw	s2,0(sp)
    7bf6:	0141                	addi	sp,sp,16
    7bf8:	8082                	ret
    7bfa:	00006797          	auipc	a5,0x6
    7bfe:	3e678793          	addi	a5,a5,998 # dfe0 <__sf_fake_stdout>
    7c02:	00f41463          	bne	s0,a5,7c0a <__swsetup_r+0x6e>
    7c06:	4480                	lw	s0,8(s1)
    7c08:	b7c9                	j	7bca <__swsetup_r+0x2e>
    7c0a:	00006797          	auipc	a5,0x6
    7c0e:	39678793          	addi	a5,a5,918 # dfa0 <__sf_fake_stderr>
    7c12:	faf41ce3          	bne	s0,a5,7bca <__swsetup_r+0x2e>
    7c16:	44c0                	lw	s0,12(s1)
    7c18:	bf4d                	j	7bca <__swsetup_r+0x2e>
    7c1a:	8b91                	andi	a5,a5,4
    7c1c:	c785                	beqz	a5,7c44 <__swsetup_r+0xa8>
    7c1e:	584c                	lw	a1,52(s0)
    7c20:	c991                	beqz	a1,7c34 <__swsetup_r+0x98>
    7c22:	04440793          	addi	a5,s0,68
    7c26:	00f58563          	beq	a1,a5,7c30 <__swsetup_r+0x94>
    7c2a:	854a                	mv	a0,s2
    7c2c:	953ff0ef          	jal	ra,757e <_free_r>
    7c30:	02042a23          	sw	zero,52(s0)
    7c34:	245e                	lhu	a5,12(s0)
    7c36:	00042223          	sw	zero,4(s0)
    7c3a:	fdb7f793          	andi	a5,a5,-37
    7c3e:	a45e                	sh	a5,12(s0)
    7c40:	481c                	lw	a5,16(s0)
    7c42:	c01c                	sw	a5,0(s0)
    7c44:	245e                	lhu	a5,12(s0)
    7c46:	0087e793          	ori	a5,a5,8
    7c4a:	a45e                	sh	a5,12(s0)
    7c4c:	481c                	lw	a5,16(s0)
    7c4e:	eb99                	bnez	a5,7c64 <__swsetup_r+0xc8>
    7c50:	245e                	lhu	a5,12(s0)
    7c52:	20000713          	li	a4,512
    7c56:	2807f793          	andi	a5,a5,640
    7c5a:	00e78563          	beq	a5,a4,7c64 <__swsetup_r+0xc8>
    7c5e:	85a2                	mv	a1,s0
    7c60:	854a                	mv	a0,s2
    7c62:	2479                	jal	7ef0 <__smakebuf_r>
    7c64:	245e                	lhu	a5,12(s0)
    7c66:	0017f713          	andi	a4,a5,1
    7c6a:	c31d                	beqz	a4,7c90 <__swsetup_r+0xf4>
    7c6c:	485c                	lw	a5,20(s0)
    7c6e:	00042423          	sw	zero,8(s0)
    7c72:	40f007b3          	neg	a5,a5
    7c76:	cc1c                	sw	a5,24(s0)
    7c78:	481c                	lw	a5,16(s0)
    7c7a:	4501                	li	a0,0
    7c7c:	fbad                	bnez	a5,7bee <__swsetup_r+0x52>
    7c7e:	00c41783          	lh	a5,12(s0)
    7c82:	0807f713          	andi	a4,a5,128
    7c86:	d725                	beqz	a4,7bee <__swsetup_r+0x52>
    7c88:	0407e793          	ori	a5,a5,64
    7c8c:	a45e                	sh	a5,12(s0)
    7c8e:	bfb9                	j	7bec <__swsetup_r+0x50>
    7c90:	8b89                	andi	a5,a5,2
    7c92:	4701                	li	a4,0
    7c94:	e391                	bnez	a5,7c98 <__swsetup_r+0xfc>
    7c96:	4858                	lw	a4,20(s0)
    7c98:	c418                	sw	a4,8(s0)
    7c9a:	bff9                	j	7c78 <__swsetup_r+0xdc>

00007c9c <_close_r>:
    7c9c:	1141                	addi	sp,sp,-16
    7c9e:	c422                	sw	s0,8(sp)
    7ca0:	842a                	mv	s0,a0
    7ca2:	852e                	mv	a0,a1
    7ca4:	1fffd797          	auipc	a5,0x1fffd
    7ca8:	e407a623          	sw	zero,-436(a5) # 20004af0 <errno>
    7cac:	c606                	sw	ra,12(sp)
    7cae:	26ad                	jal	8018 <_close>
    7cb0:	57fd                	li	a5,-1
    7cb2:	00f51963          	bne	a0,a5,7cc4 <_close_r+0x28>
    7cb6:	1fffd797          	auipc	a5,0x1fffd
    7cba:	e3a78793          	addi	a5,a5,-454 # 20004af0 <errno>
    7cbe:	439c                	lw	a5,0(a5)
    7cc0:	c391                	beqz	a5,7cc4 <_close_r+0x28>
    7cc2:	c01c                	sw	a5,0(s0)
    7cc4:	40b2                	lw	ra,12(sp)
    7cc6:	4422                	lw	s0,8(sp)
    7cc8:	0141                	addi	sp,sp,16
    7cca:	8082                	ret

00007ccc <__sflush_r>:
    7ccc:	25de                	lhu	a5,12(a1)
    7cce:	1101                	addi	sp,sp,-32
    7cd0:	cc22                	sw	s0,24(sp)
    7cd2:	ca26                	sw	s1,20(sp)
    7cd4:	ce06                	sw	ra,28(sp)
    7cd6:	c84a                	sw	s2,16(sp)
    7cd8:	c64e                	sw	s3,12(sp)
    7cda:	0087f713          	andi	a4,a5,8
    7cde:	84aa                	mv	s1,a0
    7ce0:	842e                	mv	s0,a1
    7ce2:	ef61                	bnez	a4,7dba <__sflush_r+0xee>
    7ce4:	41d8                	lw	a4,4(a1)
    7ce6:	00e04d63          	bgtz	a4,7d00 <__sflush_r+0x34>
    7cea:	41b8                	lw	a4,64(a1)
    7cec:	00e04a63          	bgtz	a4,7d00 <__sflush_r+0x34>
    7cf0:	4501                	li	a0,0
    7cf2:	40f2                	lw	ra,28(sp)
    7cf4:	4462                	lw	s0,24(sp)
    7cf6:	44d2                	lw	s1,20(sp)
    7cf8:	4942                	lw	s2,16(sp)
    7cfa:	49b2                	lw	s3,12(sp)
    7cfc:	6105                	addi	sp,sp,32
    7cfe:	8082                	ret
    7d00:	5458                	lw	a4,44(s0)
    7d02:	d77d                	beqz	a4,7cf0 <__sflush_r+0x24>
    7d04:	0004a903          	lw	s2,0(s1)
    7d08:	01379693          	slli	a3,a5,0x13
    7d0c:	0004a023          	sw	zero,0(s1)
    7d10:	0606dc63          	bgez	a3,7d88 <__sflush_r+0xbc>
    7d14:	4870                	lw	a2,84(s0)
    7d16:	245e                	lhu	a5,12(s0)
    7d18:	8b91                	andi	a5,a5,4
    7d1a:	c799                	beqz	a5,7d28 <__sflush_r+0x5c>
    7d1c:	405c                	lw	a5,4(s0)
    7d1e:	8e1d                	sub	a2,a2,a5
    7d20:	585c                	lw	a5,52(s0)
    7d22:	c399                	beqz	a5,7d28 <__sflush_r+0x5c>
    7d24:	403c                	lw	a5,64(s0)
    7d26:	8e1d                	sub	a2,a2,a5
    7d28:	545c                	lw	a5,44(s0)
    7d2a:	500c                	lw	a1,32(s0)
    7d2c:	4681                	li	a3,0
    7d2e:	8526                	mv	a0,s1
    7d30:	9782                	jalr	a5
    7d32:	57fd                	li	a5,-1
    7d34:	245a                	lhu	a4,12(s0)
    7d36:	00f51d63          	bne	a0,a5,7d50 <__sflush_r+0x84>
    7d3a:	4094                	lw	a3,0(s1)
    7d3c:	47f5                	li	a5,29
    7d3e:	06d7e963          	bltu	a5,a3,7db0 <__sflush_r+0xe4>
    7d42:	204007b7          	lui	a5,0x20400
    7d46:	0785                	addi	a5,a5,1
    7d48:	00d7d7b3          	srl	a5,a5,a3
    7d4c:	8b85                	andi	a5,a5,1
    7d4e:	c3ad                	beqz	a5,7db0 <__sflush_r+0xe4>
    7d50:	481c                	lw	a5,16(s0)
    7d52:	00042223          	sw	zero,4(s0)
    7d56:	c01c                	sw	a5,0(s0)
    7d58:	01371793          	slli	a5,a4,0x13
    7d5c:	0007d863          	bgez	a5,7d6c <__sflush_r+0xa0>
    7d60:	57fd                	li	a5,-1
    7d62:	00f51463          	bne	a0,a5,7d6a <__sflush_r+0x9e>
    7d66:	409c                	lw	a5,0(s1)
    7d68:	e391                	bnez	a5,7d6c <__sflush_r+0xa0>
    7d6a:	c868                	sw	a0,84(s0)
    7d6c:	584c                	lw	a1,52(s0)
    7d6e:	0124a023          	sw	s2,0(s1)
    7d72:	ddbd                	beqz	a1,7cf0 <__sflush_r+0x24>
    7d74:	04440793          	addi	a5,s0,68
    7d78:	00f58563          	beq	a1,a5,7d82 <__sflush_r+0xb6>
    7d7c:	8526                	mv	a0,s1
    7d7e:	801ff0ef          	jal	ra,757e <_free_r>
    7d82:	02042a23          	sw	zero,52(s0)
    7d86:	b7ad                	j	7cf0 <__sflush_r+0x24>
    7d88:	500c                	lw	a1,32(s0)
    7d8a:	4601                	li	a2,0
    7d8c:	4685                	li	a3,1
    7d8e:	8526                	mv	a0,s1
    7d90:	9702                	jalr	a4
    7d92:	57fd                	li	a5,-1
    7d94:	862a                	mv	a2,a0
    7d96:	f8f510e3          	bne	a0,a5,7d16 <__sflush_r+0x4a>
    7d9a:	409c                	lw	a5,0(s1)
    7d9c:	dfad                	beqz	a5,7d16 <__sflush_r+0x4a>
    7d9e:	4775                	li	a4,29
    7da0:	00e78563          	beq	a5,a4,7daa <__sflush_r+0xde>
    7da4:	4759                	li	a4,22
    7da6:	04e79363          	bne	a5,a4,7dec <__sflush_r+0x120>
    7daa:	0124a023          	sw	s2,0(s1)
    7dae:	b789                	j	7cf0 <__sflush_r+0x24>
    7db0:	04076713          	ori	a4,a4,64
    7db4:	a45a                	sh	a4,12(s0)
    7db6:	557d                	li	a0,-1
    7db8:	bf2d                	j	7cf2 <__sflush_r+0x26>
    7dba:	0105a983          	lw	s3,16(a1)
    7dbe:	f20989e3          	beqz	s3,7cf0 <__sflush_r+0x24>
    7dc2:	0005a903          	lw	s2,0(a1)
    7dc6:	8b8d                	andi	a5,a5,3
    7dc8:	0135a023          	sw	s3,0(a1)
    7dcc:	41390933          	sub	s2,s2,s3
    7dd0:	4701                	li	a4,0
    7dd2:	e391                	bnez	a5,7dd6 <__sflush_r+0x10a>
    7dd4:	49d8                	lw	a4,20(a1)
    7dd6:	c418                	sw	a4,8(s0)
    7dd8:	f1205ce3          	blez	s2,7cf0 <__sflush_r+0x24>
    7ddc:	541c                	lw	a5,40(s0)
    7dde:	500c                	lw	a1,32(s0)
    7de0:	86ca                	mv	a3,s2
    7de2:	864e                	mv	a2,s3
    7de4:	8526                	mv	a0,s1
    7de6:	9782                	jalr	a5
    7de8:	00a04763          	bgtz	a0,7df6 <__sflush_r+0x12a>
    7dec:	245e                	lhu	a5,12(s0)
    7dee:	0407e793          	ori	a5,a5,64
    7df2:	a45e                	sh	a5,12(s0)
    7df4:	b7c9                	j	7db6 <__sflush_r+0xea>
    7df6:	99aa                	add	s3,s3,a0
    7df8:	40a90933          	sub	s2,s2,a0
    7dfc:	bff1                	j	7dd8 <__sflush_r+0x10c>

00007dfe <_fflush_r>:
    7dfe:	499c                	lw	a5,16(a1)
    7e00:	c3ad                	beqz	a5,7e62 <_fflush_r+0x64>
    7e02:	1101                	addi	sp,sp,-32
    7e04:	cc22                	sw	s0,24(sp)
    7e06:	ce06                	sw	ra,28(sp)
    7e08:	842a                	mv	s0,a0
    7e0a:	c519                	beqz	a0,7e18 <_fflush_r+0x1a>
    7e0c:	4d1c                	lw	a5,24(a0)
    7e0e:	e789                	bnez	a5,7e18 <_fflush_r+0x1a>
    7e10:	c62e                	sw	a1,12(sp)
    7e12:	9f1ff0ef          	jal	ra,7802 <__sinit>
    7e16:	45b2                	lw	a1,12(sp)
    7e18:	00006797          	auipc	a5,0x6
    7e1c:	1a878793          	addi	a5,a5,424 # dfc0 <__sf_fake_stdin>
    7e20:	00f59c63          	bne	a1,a5,7e38 <_fflush_r+0x3a>
    7e24:	404c                	lw	a1,4(s0)
    7e26:	00c59783          	lh	a5,12(a1)
    7e2a:	c79d                	beqz	a5,7e58 <_fflush_r+0x5a>
    7e2c:	8522                	mv	a0,s0
    7e2e:	4462                	lw	s0,24(sp)
    7e30:	40f2                	lw	ra,28(sp)
    7e32:	6105                	addi	sp,sp,32
    7e34:	e99ff06f          	j	7ccc <__sflush_r>
    7e38:	00006797          	auipc	a5,0x6
    7e3c:	1a878793          	addi	a5,a5,424 # dfe0 <__sf_fake_stdout>
    7e40:	00f59463          	bne	a1,a5,7e48 <_fflush_r+0x4a>
    7e44:	440c                	lw	a1,8(s0)
    7e46:	b7c5                	j	7e26 <_fflush_r+0x28>
    7e48:	00006797          	auipc	a5,0x6
    7e4c:	15878793          	addi	a5,a5,344 # dfa0 <__sf_fake_stderr>
    7e50:	fcf59be3          	bne	a1,a5,7e26 <_fflush_r+0x28>
    7e54:	444c                	lw	a1,12(s0)
    7e56:	bfc1                	j	7e26 <_fflush_r+0x28>
    7e58:	40f2                	lw	ra,28(sp)
    7e5a:	4462                	lw	s0,24(sp)
    7e5c:	4501                	li	a0,0
    7e5e:	6105                	addi	sp,sp,32
    7e60:	8082                	ret
    7e62:	4501                	li	a0,0
    7e64:	8082                	ret

00007e66 <_lseek_r>:
    7e66:	1141                	addi	sp,sp,-16
    7e68:	c422                	sw	s0,8(sp)
    7e6a:	842a                	mv	s0,a0
    7e6c:	852e                	mv	a0,a1
    7e6e:	85b2                	mv	a1,a2
    7e70:	8636                	mv	a2,a3
    7e72:	1fffd797          	auipc	a5,0x1fffd
    7e76:	c607af23          	sw	zero,-898(a5) # 20004af0 <errno>
    7e7a:	c606                	sw	ra,12(sp)
    7e7c:	22f1                	jal	8048 <_lseek>
    7e7e:	57fd                	li	a5,-1
    7e80:	00f51963          	bne	a0,a5,7e92 <_lseek_r+0x2c>
    7e84:	1fffd797          	auipc	a5,0x1fffd
    7e88:	c6c78793          	addi	a5,a5,-916 # 20004af0 <errno>
    7e8c:	439c                	lw	a5,0(a5)
    7e8e:	c391                	beqz	a5,7e92 <_lseek_r+0x2c>
    7e90:	c01c                	sw	a5,0(s0)
    7e92:	40b2                	lw	ra,12(sp)
    7e94:	4422                	lw	s0,8(sp)
    7e96:	0141                	addi	sp,sp,16
    7e98:	8082                	ret

00007e9a <__swhatbuf_r>:
    7e9a:	7119                	addi	sp,sp,-128
    7e9c:	daa6                	sw	s1,116(sp)
    7e9e:	84ae                	mv	s1,a1
    7ea0:	00e59583          	lh	a1,14(a1)
    7ea4:	dca2                	sw	s0,120(sp)
    7ea6:	de86                	sw	ra,124(sp)
    7ea8:	8432                	mv	s0,a2
    7eaa:	0005db63          	bgez	a1,7ec0 <__swhatbuf_r+0x26>
    7eae:	24de                	lhu	a5,12(s1)
    7eb0:	0006a023          	sw	zero,0(a3)
    7eb4:	0807f793          	andi	a5,a5,128
    7eb8:	e39d                	bnez	a5,7ede <__swhatbuf_r+0x44>
    7eba:	40000793          	li	a5,1024
    7ebe:	a015                	j	7ee2 <__swhatbuf_r+0x48>
    7ec0:	0830                	addi	a2,sp,24
    7ec2:	c636                	sw	a3,12(sp)
    7ec4:	28cd                	jal	7fb6 <_fstat_r>
    7ec6:	46b2                	lw	a3,12(sp)
    7ec8:	fe0543e3          	bltz	a0,7eae <__swhatbuf_r+0x14>
    7ecc:	4772                	lw	a4,28(sp)
    7ece:	67bd                	lui	a5,0xf
    7ed0:	8ff9                	and	a5,a5,a4
    7ed2:	7779                	lui	a4,0xffffe
    7ed4:	97ba                	add	a5,a5,a4
    7ed6:	0017b793          	seqz	a5,a5
    7eda:	c29c                	sw	a5,0(a3)
    7edc:	bff9                	j	7eba <__swhatbuf_r+0x20>
    7ede:	04000793          	li	a5,64
    7ee2:	c01c                	sw	a5,0(s0)
    7ee4:	50f6                	lw	ra,124(sp)
    7ee6:	5466                	lw	s0,120(sp)
    7ee8:	54d6                	lw	s1,116(sp)
    7eea:	4501                	li	a0,0
    7eec:	6109                	addi	sp,sp,128
    7eee:	8082                	ret

00007ef0 <__smakebuf_r>:
    7ef0:	25de                	lhu	a5,12(a1)
    7ef2:	1101                	addi	sp,sp,-32
    7ef4:	cc22                	sw	s0,24(sp)
    7ef6:	ce06                	sw	ra,28(sp)
    7ef8:	ca26                	sw	s1,20(sp)
    7efa:	c84a                	sw	s2,16(sp)
    7efc:	8b89                	andi	a5,a5,2
    7efe:	842e                	mv	s0,a1
    7f00:	cf89                	beqz	a5,7f1a <__smakebuf_r+0x2a>
    7f02:	04740793          	addi	a5,s0,71
    7f06:	c01c                	sw	a5,0(s0)
    7f08:	c81c                	sw	a5,16(s0)
    7f0a:	4785                	li	a5,1
    7f0c:	c85c                	sw	a5,20(s0)
    7f0e:	40f2                	lw	ra,28(sp)
    7f10:	4462                	lw	s0,24(sp)
    7f12:	44d2                	lw	s1,20(sp)
    7f14:	4942                	lw	s2,16(sp)
    7f16:	6105                	addi	sp,sp,32
    7f18:	8082                	ret
    7f1a:	0074                	addi	a3,sp,12
    7f1c:	0030                	addi	a2,sp,8
    7f1e:	84aa                	mv	s1,a0
    7f20:	f7bff0ef          	jal	ra,7e9a <__swhatbuf_r>
    7f24:	45a2                	lw	a1,8(sp)
    7f26:	892a                	mv	s2,a0
    7f28:	8526                	mv	a0,s1
    7f2a:	ef8ff0ef          	jal	ra,7622 <_malloc_r>
    7f2e:	e919                	bnez	a0,7f44 <__smakebuf_r+0x54>
    7f30:	00c41783          	lh	a5,12(s0)
    7f34:	2007f713          	andi	a4,a5,512
    7f38:	fb79                	bnez	a4,7f0e <__smakebuf_r+0x1e>
    7f3a:	9bf1                	andi	a5,a5,-4
    7f3c:	0027e793          	ori	a5,a5,2
    7f40:	a45e                	sh	a5,12(s0)
    7f42:	b7c1                	j	7f02 <__smakebuf_r+0x12>
    7f44:	00000797          	auipc	a5,0x0
    7f48:	86c78793          	addi	a5,a5,-1940 # 77b0 <_cleanup_r>
    7f4c:	d49c                	sw	a5,40(s1)
    7f4e:	245e                	lhu	a5,12(s0)
    7f50:	c008                	sw	a0,0(s0)
    7f52:	c808                	sw	a0,16(s0)
    7f54:	0807e793          	ori	a5,a5,128
    7f58:	a45e                	sh	a5,12(s0)
    7f5a:	47a2                	lw	a5,8(sp)
    7f5c:	c85c                	sw	a5,20(s0)
    7f5e:	47b2                	lw	a5,12(sp)
    7f60:	cb99                	beqz	a5,7f76 <__smakebuf_r+0x86>
    7f62:	00e41583          	lh	a1,14(s0)
    7f66:	8526                	mv	a0,s1
    7f68:	2041                	jal	7fe8 <_isatty_r>
    7f6a:	c511                	beqz	a0,7f76 <__smakebuf_r+0x86>
    7f6c:	245e                	lhu	a5,12(s0)
    7f6e:	9bf1                	andi	a5,a5,-4
    7f70:	0017e793          	ori	a5,a5,1
    7f74:	a45e                	sh	a5,12(s0)
    7f76:	245e                	lhu	a5,12(s0)
    7f78:	00f96933          	or	s2,s2,a5
    7f7c:	01241623          	sh	s2,12(s0)
    7f80:	b779                	j	7f0e <__smakebuf_r+0x1e>

00007f82 <_read_r>:
    7f82:	1141                	addi	sp,sp,-16
    7f84:	c422                	sw	s0,8(sp)
    7f86:	842a                	mv	s0,a0
    7f88:	852e                	mv	a0,a1
    7f8a:	85b2                	mv	a1,a2
    7f8c:	8636                	mv	a2,a3
    7f8e:	1fffd797          	auipc	a5,0x1fffd
    7f92:	b607a123          	sw	zero,-1182(a5) # 20004af0 <errno>
    7f96:	c606                	sw	ra,12(sp)
    7f98:	20c1                	jal	8058 <_read>
    7f9a:	57fd                	li	a5,-1
    7f9c:	00f51963          	bne	a0,a5,7fae <_read_r+0x2c>
    7fa0:	1fffd797          	auipc	a5,0x1fffd
    7fa4:	b5078793          	addi	a5,a5,-1200 # 20004af0 <errno>
    7fa8:	439c                	lw	a5,0(a5)
    7faa:	c391                	beqz	a5,7fae <_read_r+0x2c>
    7fac:	c01c                	sw	a5,0(s0)
    7fae:	40b2                	lw	ra,12(sp)
    7fb0:	4422                	lw	s0,8(sp)
    7fb2:	0141                	addi	sp,sp,16
    7fb4:	8082                	ret

00007fb6 <_fstat_r>:
    7fb6:	1141                	addi	sp,sp,-16
    7fb8:	c422                	sw	s0,8(sp)
    7fba:	842a                	mv	s0,a0
    7fbc:	852e                	mv	a0,a1
    7fbe:	85b2                	mv	a1,a2
    7fc0:	1fffd797          	auipc	a5,0x1fffd
    7fc4:	b207a823          	sw	zero,-1232(a5) # 20004af0 <errno>
    7fc8:	c606                	sw	ra,12(sp)
    7fca:	28b9                	jal	8028 <_fstat>
    7fcc:	57fd                	li	a5,-1
    7fce:	00f51963          	bne	a0,a5,7fe0 <_fstat_r+0x2a>
    7fd2:	1fffd797          	auipc	a5,0x1fffd
    7fd6:	b1e78793          	addi	a5,a5,-1250 # 20004af0 <errno>
    7fda:	439c                	lw	a5,0(a5)
    7fdc:	c391                	beqz	a5,7fe0 <_fstat_r+0x2a>
    7fde:	c01c                	sw	a5,0(s0)
    7fe0:	40b2                	lw	ra,12(sp)
    7fe2:	4422                	lw	s0,8(sp)
    7fe4:	0141                	addi	sp,sp,16
    7fe6:	8082                	ret

00007fe8 <_isatty_r>:
    7fe8:	1141                	addi	sp,sp,-16
    7fea:	c422                	sw	s0,8(sp)
    7fec:	842a                	mv	s0,a0
    7fee:	852e                	mv	a0,a1
    7ff0:	1fffd797          	auipc	a5,0x1fffd
    7ff4:	b007a023          	sw	zero,-1280(a5) # 20004af0 <errno>
    7ff8:	c606                	sw	ra,12(sp)
    7ffa:	283d                	jal	8038 <_isatty>
    7ffc:	57fd                	li	a5,-1
    7ffe:	00f51963          	bne	a0,a5,8010 <_isatty_r+0x28>
    8002:	1fffd797          	auipc	a5,0x1fffd
    8006:	aee78793          	addi	a5,a5,-1298 # 20004af0 <errno>
    800a:	439c                	lw	a5,0(a5)
    800c:	c391                	beqz	a5,8010 <_isatty_r+0x28>
    800e:	c01c                	sw	a5,0(s0)
    8010:	40b2                	lw	ra,12(sp)
    8012:	4422                	lw	s0,8(sp)
    8014:	0141                	addi	sp,sp,16
    8016:	8082                	ret

00008018 <_close>:
    8018:	05800793          	li	a5,88
    801c:	1fffd717          	auipc	a4,0x1fffd
    8020:	acf72a23          	sw	a5,-1324(a4) # 20004af0 <errno>
    8024:	557d                	li	a0,-1
    8026:	8082                	ret

00008028 <_fstat>:
    8028:	05800793          	li	a5,88
    802c:	1fffd717          	auipc	a4,0x1fffd
    8030:	acf72223          	sw	a5,-1340(a4) # 20004af0 <errno>
    8034:	557d                	li	a0,-1
    8036:	8082                	ret

00008038 <_isatty>:
    8038:	05800793          	li	a5,88
    803c:	1fffd717          	auipc	a4,0x1fffd
    8040:	aaf72a23          	sw	a5,-1356(a4) # 20004af0 <errno>
    8044:	4501                	li	a0,0
    8046:	8082                	ret

00008048 <_lseek>:
    8048:	05800793          	li	a5,88
    804c:	1fffd717          	auipc	a4,0x1fffd
    8050:	aaf72223          	sw	a5,-1372(a4) # 20004af0 <errno>
    8054:	557d                	li	a0,-1
    8056:	8082                	ret

00008058 <_read>:
    8058:	05800793          	li	a5,88
    805c:	1fffd717          	auipc	a4,0x1fffd
    8060:	a8f72a23          	sw	a5,-1388(a4) # 20004af0 <errno>
    8064:	557d                	li	a0,-1
    8066:	8082                	ret
    8068:	1672                	slli	a2,a2,0x3c
    806a:	0000                	unimp
    806c:	5320                	lw	s0,96(a4)
    806e:	0000                	unimp
    8070:	530c                	lw	a1,32(a4)
    8072:	0000                	unimp
    8074:	52f2                	lw	t0,60(sp)
    8076:	0000                	unimp
    8078:	5290                	lw	a2,32(a3)
    807a:	0000                	unimp
    807c:	522c                	lw	a1,96(a2)
    807e:	0000                	unimp
    8080:	5218                	lw	a4,32(a2)
    8082:	0000                	unimp
    8084:	51f8                	lw	a4,100(a1)
    8086:	0000                	unimp
    8088:	1672                	slli	a2,a2,0x3c
    808a:	0000                	unimp
    808c:	5184                	lw	s1,32(a1)
    808e:	0000                	unimp
    8090:	5170                	lw	a2,100(a0)
    8092:	0000                	unimp
    8094:	5156                	lw	sp,116(sp)
    8096:	0000                	unimp
    8098:	50f4                	lw	a3,100(s1)
    809a:	0000                	unimp
    809c:	5090                	lw	a2,32(s1)
    809e:	0000                	unimp
    80a0:	507c                	lw	a5,100(s0)
    80a2:	0000                	unimp
    80a4:	505a                	0x505a
    80a6:	0000                	unimp
    80a8:	1672                	slli	a2,a2,0x3c
    80aa:	0000                	unimp
    80ac:	501c                	lw	a5,32(s0)
    80ae:	0000                	unimp
    80b0:	5006                	0x5006
    80b2:	0000                	unimp
    80b4:	4fe8                	lw	a0,92(a5)
    80b6:	0000                	unimp
    80b8:	4f86                	lw	t6,64(sp)
    80ba:	0000                	unimp
    80bc:	4f22                	lw	t5,8(sp)
    80be:	0000                	unimp
    80c0:	4f0e                	lw	t5,192(sp)
    80c2:	0000                	unimp
    80c4:	4eea                	lw	t4,152(sp)
    80c6:	0000                	unimp
    80c8:	1672                	slli	a2,a2,0x3c
    80ca:	0000                	unimp
    80cc:	4eac                	lw	a1,88(a3)
    80ce:	0000                	unimp
    80d0:	4e96                	lw	t4,68(sp)
    80d2:	0000                	unimp
    80d4:	4e78                	lw	a4,92(a2)
    80d6:	0000                	unimp
    80d8:	4e12                	lw	t3,4(sp)
    80da:	0000                	unimp
    80dc:	4daa                	lw	s11,136(sp)
    80de:	0000                	unimp
    80e0:	4d94                	lw	a3,24(a1)
    80e2:	0000                	unimp
    80e4:	4d6e                	lw	s10,216(sp)
    80e6:	0000                	unimp
    80e8:	1672                	slli	a2,a2,0x3c
    80ea:	0000                	unimp
    80ec:	4d2e                	lw	s10,200(sp)
    80ee:	0000                	unimp
    80f0:	4cca                	lw	s9,144(sp)
    80f2:	0000                	unimp
    80f4:	4ca8                	lw	a0,88(s1)
    80f6:	0000                	unimp
    80f8:	4c42                	lw	s8,16(sp)
    80fa:	0000                	unimp
    80fc:	4bc4                	lw	s1,20(a5)
    80fe:	0000                	unimp
    8100:	4c2c                	lw	a1,88(s0)
    8102:	0000                	unimp
    8104:	4b1c                	lw	a5,16(a4)
    8106:	0000                	unimp
    8108:	1672                	slli	a2,a2,0x3c
    810a:	0000                	unimp
    810c:	4ae8                	lw	a0,84(a3)
    810e:	0000                	unimp
    8110:	4a84                	lw	s1,16(a3)
    8112:	0000                	unimp
    8114:	4a62                	lw	s4,24(sp)
    8116:	0000                	unimp
    8118:	49fc                	lw	a5,84(a1)
    811a:	0000                	unimp
    811c:	4994                	lw	a3,16(a1)
    811e:	0000                	unimp
    8120:	497e                	lw	s2,220(sp)
    8122:	0000                	unimp
    8124:	4972                	lw	s2,28(sp)
    8126:	0000                	unimp
    8128:	1672                	slli	a2,a2,0x3c
    812a:	0000                	unimp
    812c:	4946                	lw	s2,80(sp)
    812e:	0000                	unimp
    8130:	490e                	lw	s2,192(sp)
    8132:	0000                	unimp
    8134:	4904                	lw	s1,16(a0)
    8136:	0000                	unimp
    8138:	4888                	lw	a0,16(s1)
    813a:	0000                	unimp
    813c:	480a                	lw	a6,128(sp)
    813e:	0000                	unimp
    8140:	47e2                	lw	a5,24(sp)
    8142:	0000                	unimp
    8144:	47d2                	lw	a5,20(sp)
    8146:	0000                	unimp
    8148:	1672                	slli	a2,a2,0x3c
    814a:	0000                	unimp
    814c:	479c                	lw	a5,8(a5)
    814e:	0000                	unimp
    8150:	4764                	lw	s1,76(a4)
    8152:	0000                	unimp
    8154:	475a                	lw	a4,148(sp)
    8156:	0000                	unimp
    8158:	46f8                	lw	a4,76(a3)
    815a:	0000                	unimp
    815c:	4694                	lw	a3,8(a3)
    815e:	0000                	unimp
    8160:	4680                	lw	s0,8(a3)
    8162:	0000                	unimp
    8164:	4664                	lw	s1,76(a2)
    8166:	0000                	unimp
    8168:	1672                	slli	a2,a2,0x3c
    816a:	0000                	unimp
    816c:	45e6                	lw	a1,88(sp)
    816e:	0000                	unimp
    8170:	45de                	lw	a1,212(sp)
    8172:	0000                	unimp
    8174:	45d4                	lw	a3,12(a1)
    8176:	0000                	unimp
    8178:	45ca                	lw	a1,144(sp)
    817a:	0000                	unimp
    817c:	45c0                	lw	s0,12(a1)
    817e:	0000                	unimp
    8180:	45a8                	lw	a0,72(a1)
    8182:	0000                	unimp
    8184:	4590                	lw	a2,8(a1)
    8186:	0000                	unimp
    8188:	4588                	lw	a0,8(a1)
    818a:	0000                	unimp
    818c:	1672                	slli	a2,a2,0x3c
    818e:	0000                	unimp
    8190:	456a                	lw	a0,152(sp)
    8192:	0000                	unimp
    8194:	4560                	lw	s0,76(a0)
    8196:	0000                	unimp
    8198:	4556                	lw	a0,84(sp)
    819a:	0000                	unimp
    819c:	454c                	lw	a1,12(a0)
    819e:	0000                	unimp
    81a0:	4534                	lw	a3,72(a0)
    81a2:	0000                	unimp
    81a4:	45a0                	lw	s0,72(a1)
    81a6:	0000                	unimp
    81a8:	4598                	lw	a4,8(a1)
    81aa:	0000                	unimp
    81ac:	452c                	lw	a1,72(a0)
    81ae:	0000                	unimp
    81b0:	1672                	slli	a2,a2,0x3c
    81b2:	0000                	unimp
    81b4:	44f2                	lw	s1,28(sp)
    81b6:	0000                	unimp
    81b8:	44e8                	lw	a0,76(s1)
    81ba:	0000                	unimp
    81bc:	44de                	lw	s1,212(sp)
    81be:	0000                	unimp
    81c0:	44c6                	lw	s1,80(sp)
    81c2:	0000                	unimp
    81c4:	44be                	lw	s1,204(sp)
    81c6:	0000                	unimp
    81c8:	44b4                	lw	a3,72(s1)
    81ca:	0000                	unimp
    81cc:	44aa                	lw	s1,136(sp)
    81ce:	0000                	unimp
    81d0:	44a0                	lw	s0,72(s1)
    81d2:	0000                	unimp
    81d4:	1672                	slli	a2,a2,0x3c
    81d6:	0000                	unimp
    81d8:	4482                	lw	s1,0(sp)
    81da:	0000                	unimp
    81dc:	4476                	lw	s0,92(sp)
    81de:	0000                	unimp
    81e0:	445c                	lw	a5,12(s0)
    81e2:	0000                	unimp
    81e4:	4452                	lw	s0,20(sp)
    81e6:	0000                	unimp
    81e8:	4448                	lw	a0,12(s0)
    81ea:	0000                	unimp
    81ec:	443e                	lw	s0,204(sp)
    81ee:	0000                	unimp
    81f0:	4434                	lw	a3,72(s0)
    81f2:	0000                	unimp
    81f4:	4428                	lw	a0,72(s0)
    81f6:	0000                	unimp
    81f8:	1672                	slli	a2,a2,0x3c
    81fa:	0000                	unimp
    81fc:	43de                	lw	t2,212(sp)
    81fe:	0000                	unimp
    8200:	43c4                	lw	s1,4(a5)
    8202:	0000                	unimp
    8204:	43ba                	lw	t2,140(sp)
    8206:	0000                	unimp
    8208:	43b0                	lw	a2,64(a5)
    820a:	0000                	unimp
    820c:	43a6                	lw	t2,72(sp)
    820e:	0000                	unimp
    8210:	439c                	lw	a5,0(a5)
    8212:	0000                	unimp
    8214:	4390                	lw	a2,0(a5)
    8216:	0000                	unimp
    8218:	4384                	lw	s1,0(a5)
    821a:	0000                	unimp
    821c:	1672                	slli	a2,a2,0x3c
    821e:	0000                	unimp
    8220:	4332                	lw	t1,12(sp)
    8222:	0000                	unimp
    8224:	4328                	lw	a0,64(a4)
    8226:	0000                	unimp
    8228:	4310                	lw	a2,0(a4)
    822a:	0000                	unimp
    822c:	42f8                	lw	a4,68(a3)
    822e:	0000                	unimp
    8230:	42e0                	lw	s0,68(a3)
    8232:	0000                	unimp
    8234:	42c6                	lw	t0,80(sp)
    8236:	0000                	unimp
    8238:	42ae                	lw	t0,200(sp)
    823a:	0000                	unimp
    823c:	4298                	lw	a4,0(a3)
    823e:	0000                	unimp
    8240:	4288                	lw	a0,0(a3)
    8242:	0000                	unimp
    8244:	4270                	lw	a2,68(a2)
    8246:	0000                	unimp
    8248:	4268                	lw	a0,68(a2)
    824a:	0000                	unimp
    824c:	4260                	lw	s0,68(a2)
    824e:	0000                	unimp
    8250:	4258                	lw	a4,4(a2)
    8252:	0000                	unimp
    8254:	424e                	lw	tp,208(sp)
    8256:	0000                	unimp
    8258:	4244                	lw	s1,4(a2)
    825a:	0000                	unimp
    825c:	423a                	lw	tp,140(sp)
    825e:	0000                	unimp
    8260:	4222                	lw	tp,8(sp)
    8262:	0000                	unimp
    8264:	1672                	slli	a2,a2,0x3c
    8266:	0000                	unimp
    8268:	411a                	lw	sp,132(sp)
    826a:	0000                	unimp
    826c:	40ac                	lw	a1,64(s1)
    826e:	0000                	unimp
    8270:	403e                	0x403e
    8272:	0000                	unimp
    8274:	3fce                	lhu	a1,60(a5)
    8276:	0000                	unimp
    8278:	3f5e                	lhu	a5,60(a4)
    827a:	0000                	unimp
    827c:	3eee                	lhu	a1,62(a3)
    827e:	0000                	unimp
    8280:	3e68                	lbu	a0,31(a2)
    8282:	0000                	unimp
    8284:	3e00                	lbu	s0,25(a2)
    8286:	0000                	unimp
    8288:	3d8a                	lhu	a0,56(a1)
    828a:	0000                	unimp
    828c:	3d14                	lbu	a3,25(a0)
    828e:	0000                	unimp
    8290:	3c9e                	lhu	a5,56(s1)
    8292:	0000                	unimp
    8294:	3c26                	lhu	s1,58(s0)
    8296:	0000                	unimp
    8298:	3bae                	lhu	a1,50(a5)
    829a:	0000                	unimp
    829c:	3b36                	lhu	a3,50(a4)
    829e:	0000                	unimp
    82a0:	3aaa                	lhu	a0,50(a3)
    82a2:	0000                	unimp
    82a4:	3a3a                	lhu	a4,50(a2)
    82a6:	0000                	unimp
    82a8:	39b6                	lhu	a3,50(a1)
    82aa:	0000                	unimp
    82ac:	3932                	lhu	a2,50(a0)
    82ae:	0000                	unimp
    82b0:	38ae                	lhu	a1,50(s1)
    82b2:	0000                	unimp
    82b4:	3828                	lbu	a0,19(s0)
    82b6:	0000                	unimp
    82b8:	37a2                	lhu	s0,42(a5)
    82ba:	0000                	unimp
    82bc:	371c                	lbu	a5,9(a4)
    82be:	0000                	unimp
    82c0:	3688                	lbu	a0,9(a3)
    82c2:	0000                	unimp
    82c4:	3672                	lhu	a2,46(a2)
    82c6:	0000                	unimp
    82c8:	35de                	lhu	a5,44(a1)
    82ca:	0000                	unimp
    82cc:	354a                	lhu	a0,44(a0)
    82ce:	0000                	unimp
    82d0:	34b6                	lhu	a3,42(s1)
    82d2:	0000                	unimp
    82d4:	3420                	lbu	s0,11(s0)
    82d6:	0000                	unimp
    82d8:	338a                	lhu	a0,32(a5)
    82da:	0000                	unimp
    82dc:	32f4                	lbu	a3,7(a3)
    82de:	0000                	unimp
    82e0:	3256                	lhu	a3,36(a2)
    82e2:	0000                	unimp
    82e4:	31d4                	lbu	a3,5(a1)
    82e6:	0000                	unimp
    82e8:	3176                	lhu	a3,38(a0)
    82ea:	0000                	unimp
    82ec:	3118                	lbu	a4,1(a0)
    82ee:	0000                	unimp
    82f0:	30ba                	lhu	a4,34(s1)
    82f2:	0000                	unimp
    82f4:	305a                	lhu	a4,36(s0)
    82f6:	0000                	unimp
    82f8:	2ffa                	lhu	a4,30(a5)
    82fa:	0000                	unimp
    82fc:	2f9a                	lhu	a4,24(a5)
    82fe:	0000                	unimp
    8300:	2f2c                	lbu	a1,26(a4)
    8302:	0000                	unimp
    8304:	2ed6                	lhu	a3,28(a3)
    8306:	0000                	unimp
    8308:	2e80                	lbu	s0,24(a3)
    830a:	0000                	unimp
    830c:	2e2a                	lhu	a0,26(a2)
    830e:	0000                	unimp
    8310:	2dd4                	lbu	a3,28(a1)
    8312:	0000                	unimp
    8314:	2d7c                	lbu	a5,30(a0)
    8316:	0000                	unimp
    8318:	2d24                	lbu	s1,26(a0)
    831a:	0000                	unimp
    831c:	2ccc                	lbu	a1,28(s1)
    831e:	0000                	unimp
    8320:	2c62                	lhu	s0,30(s0)
    8322:	0000                	unimp
    8324:	2c4c                	lbu	a1,28(s0)
    8326:	0000                	unimp
    8328:	2bfa                	lhu	a4,22(a5)
    832a:	0000                	unimp
    832c:	2ba8                	lbu	a0,18(a5)
    832e:	0000                	unimp
    8330:	2b56                	lhu	a3,20(a4)
    8332:	0000                	unimp
    8334:	2b02                	lhu	s0,16(a4)
    8336:	0000                	unimp
    8338:	2aae                	lhu	a1,18(a3)
    833a:	0000                	unimp
    833c:	2a5a                	lhu	a4,20(a2)
    833e:	0000                	unimp
    8340:	29f2                	lhu	a2,22(a1)
    8342:	0000                	unimp
    8344:	29a6                	lhu	s1,18(a1)
    8346:	0000                	unimp
    8348:	291c                	lbu	a5,16(a0)
    834a:	0000                	unimp
    834c:	2892                	lhu	a2,16(s1)
    834e:	0000                	unimp
    8350:	2808                	lbu	a0,16(s0)
    8352:	0000                	unimp
    8354:	277c                	lbu	a5,14(a4)
    8356:	0000                	unimp
    8358:	26f0                	lbu	a2,14(a3)
    835a:	0000                	unimp
    835c:	2664                	lbu	s1,14(a2)
    835e:	0000                	unimp
    8360:	25c6                	lhu	s1,12(a1)
    8362:	0000                	unimp
    8364:	25b4                	lbu	a3,10(a1)
    8366:	0000                	unimp
    8368:	2578                	lbu	a4,14(a0)
    836a:	0000                	unimp
    836c:	253c                	lbu	a5,10(a0)
    836e:	0000                	unimp
    8370:	1644                	addi	s1,sp,804
    8372:	0000                	unimp
    8374:	2516                	lhu	a3,8(a0)
    8376:	0000                	unimp
    8378:	24a0                	lbu	s0,10(s1)
    837a:	0000                	unimp
    837c:	2460                	lbu	s0,14(s0)
    837e:	0000                	unimp
    8380:	23de                	lhu	a5,4(a5)
    8382:	0000                	unimp
    8384:	23a8                	lbu	a0,2(a5)
    8386:	0000                	unimp
    8388:	236c                	lbu	a1,6(a4)
    838a:	0000                	unimp
    838c:	2340                	lbu	s0,4(a4)
    838e:	0000                	unimp
    8390:	230e                	lhu	a1,0(a4)
    8392:	0000                	unimp
    8394:	22e8                	lbu	a0,6(a3)
    8396:	0000                	unimp
    8398:	2276                	lhu	a3,6(a2)
    839a:	0000                	unimp
    839c:	2216                	lhu	a3,0(a2)
    839e:	0000                	unimp
    83a0:	218e                	lhu	a1,0(a1)
    83a2:	0000                	unimp
    83a4:	2158                	lbu	a4,4(a0)
    83a6:	0000                	unimp
    83a8:	211c                	lbu	a5,0(a0)
    83aa:	0000                	unimp
    83ac:	20de                	lhu	a5,4(s1)
    83ae:	0000                	unimp
    83b0:	20ac                	lbu	a1,2(s1)
    83b2:	0000                	unimp
    83b4:	208c                	lbu	a1,0(s1)
    83b6:	0000                	unimp
    83b8:	2016                	lhu	a3,0(s0)
    83ba:	0000                	unimp
    83bc:	1fd4                	addi	a3,sp,1012
    83be:	0000                	unimp
    83c0:	1f44                	addi	s1,sp,948
    83c2:	0000                	unimp
    83c4:	1f0e                	slli	t5,t5,0x23
    83c6:	0000                	unimp
    83c8:	1ed2                	slli	t4,t4,0x34
    83ca:	0000                	unimp
    83cc:	1ea6                	slli	t4,t4,0x29
    83ce:	0000                	unimp
    83d0:	1e74                	addi	a3,sp,828
    83d2:	0000                	unimp
    83d4:	1e54                	addi	a3,sp,820
    83d6:	0000                	unimp
    83d8:	1de4                	addi	s1,sp,764
    83da:	0000                	unimp
    83dc:	1d86                	slli	s11,s11,0x21
    83de:	0000                	unimp
    83e0:	1cee                	slli	s9,s9,0x3b
    83e2:	0000                	unimp
    83e4:	1cba                	slli	s9,s9,0x2e
    83e6:	0000                	unimp
    83e8:	1c80                	addi	s0,sp,624
    83ea:	0000                	unimp
    83ec:	1c42                	slli	s8,s8,0x30
    83ee:	0000                	unimp
    83f0:	1c12                	slli	s8,s8,0x24
    83f2:	0000                	unimp
    83f4:	1ba4                	addi	s1,sp,504
    83f6:	0000                	unimp
    83f8:	1b30                	addi	a2,sp,440
    83fa:	0000                	unimp
    83fc:	1aee                	slli	s5,s5,0x3b
    83fe:	0000                	unimp
    8400:	1a86                	slli	s5,s5,0x21
    8402:	0000                	unimp
    8404:	1a50                	addi	a2,sp,308
    8406:	0000                	unimp
    8408:	1a16                	slli	s4,s4,0x25
    840a:	0000                	unimp
    840c:	1a06                	slli	s4,s4,0x21
    840e:	0000                	unimp
    8410:	19d6                	slli	s3,s3,0x35
    8412:	0000                	unimp
    8414:	19a8                	addi	a0,sp,248
    8416:	0000                	unimp
    8418:	1938                	addi	a4,sp,184
    841a:	0000                	unimp
    841c:	1d86                	slli	s11,s11,0x21
    841e:	0000                	unimp
    8420:	18d4                	addi	a3,sp,116
    8422:	0000                	unimp
    8424:	189e                	slli	a7,a7,0x27
    8426:	0000                	unimp
    8428:	1864                	addi	s1,sp,60
    842a:	0000                	unimp
    842c:	17f2                	slli	a5,a5,0x3c
    842e:	0000                	unimp
    8430:	17c2                	slli	a5,a5,0x30
    8432:	0000                	unimp
    8434:	17b4                	addi	a3,sp,1000
    8436:	0000                	unimp
    8438:	1744                	addi	s1,sp,932
    843a:	0000                	unimp
    843c:	16d8                	addi	a4,sp,868
    843e:	0000                	unimp
    8440:	1676                	slli	a2,a2,0x3d
    8442:	0000                	unimp
    8444:	434c                	lw	a1,4(a4)
    8446:	0000                	unimp
    8448:	43ea                	lw	t2,152(sp)
    844a:	0000                	unimp
    844c:	448e                	lw	s1,192(sp)
    844e:	0000                	unimp
    8450:	44fc                	lw	a5,76(s1)
    8452:	0000                	unimp
    8454:	4572                	lw	a0,28(sp)
    8456:	0000                	unimp
    8458:	45ee                	lw	a1,216(sp)
    845a:	0000                	unimp
    845c:	1d86                	slli	s11,s11,0x21
    845e:	0000                	unimp
    8460:	4188                	lw	a0,0(a1)
    8462:	0000                	unimp
    8464:	51c0                	lw	s0,36(a1)
	...

00008468 <OPCODES_CYCLES>:
    8468:	0a04 0507 0505 0407 0a04 0507 0505 0407     ................
    8478:	0a04 0507 0505 0407 0a04 0507 0505 0407     ................
    8488:	0a04 0510 0505 0407 0a04 0510 0505 0407     ................
    8498:	0a04 050d 0a0a 040a 0a04 050d 0505 0407     ................
    84a8:	0505 0505 0505 0507 0505 0505 0505 0507     ................
    84b8:	0505 0505 0505 0507 0505 0505 0505 0507     ................
    84c8:	0505 0505 0505 0507 0505 0505 0505 0507     ................
    84d8:	0707 0707 0707 0707 0505 0505 0505 0507     ................
    84e8:	0404 0404 0404 0407 0404 0404 0404 0407     ................
    84f8:	0404 0404 0404 0407 0404 0404 0404 0407     ................
    8508:	0404 0404 0404 0407 0404 0404 0404 0407     ................
    8518:	0404 0404 0404 0407 0404 0404 0404 0407     ................
    8528:	0a05 0a0a 0b0b 0b07 0a05 0a0a 110b 0b07     ................
    8538:	0a05 0a0a 0b0b 0b07 0a05 0a0a 110b 0b07     ................
    8548:	0a05 120a 0b0b 0b07 0505 040a 110b 0b07     ................
    8558:	0a05 040a 0b0b 0b07 0505 040a 110b 0b07     ................

00008568 <bsext_rom>:
    8568:	5955 59d7 1955 5955 5955 5956 5957 9956     UY.YU.UYUYVYWYV.
    8578:	5955 5957 5955 5957 5955 5957 5955 5957     UYWYUYWYUYWYUYWY
    8588:	5954 59d7 5956 5956 d946 59d6 d9d5 d955     TY.YVYVYF..Y..U.
    8598:	5955 5d57 5957 5d57 1955 5915 d955 5b55     UYW]WYW]U..YU.U[
    85a8:	5155 5915 1955 5955 59d7 d954 4917 9957     UQ.YU.UY.YT..IW.
    85b8:	59d5 5915 5557 5955 5dd4 5954 5955 1954     .Y.YWUUY.]TYUYT.
    85c8:	5957 5955 5956 5957 59d5 5954 d956 99d7     WYUYVYWY.YTYV...
    85d8:	5155 d957 5d55 5d56 59d7 59d5 5955 5957     UQW.U]V].Y.YUYWY
    85e8:	e6eb 26ea a6ea e6aa a6aa eeea e6e8 e7ea     ...&............
    85f8:	a6aa a6ea e6aa e6aa e6ee a6ab e6aa e6aa     ................
    8608:	a6a8 a68a e6fa eea9 26aa e6ab a6a9 eea9     .........&......
    8618:	a6ea a6a8 aeaa a6a8 a6a0 a6aa a6a8 a6ea     ................
    8628:	a6a9 e6aa e6aa a6aa a2ab a6aa e668 e6a8     ............h...
    8638:	a6ea a2aa a2ab a6e8 a6e9 e6ab a6ab e6a9     ................
    8648:	a6ab a6ab a6ab e6a9 e6aa aeeb e6ea 668a     ...............f
    8658:	a6a9 a6aa a2ab a6a9 a6ea a6a8 c62a a6a8     ............*...
    8668:	d55d 5545 9545 d555 d755 955d 5551 945d     ].EUE.U.U.].QU].
    8678:	555d 5455 5545 5555 5555 555d 957d 5555     ]UUTEUUUUU]U}.UU
    8688:	9555 1555 9555 5575 d45d 5571 9755 d751     U.U.U.uU].qUU.Q.
    8698:	554d 5555 d555 1565 d545 9555 5545 d551     MUUUU.e.E.U.EUQ.
    86a8:	1555 5551 9545 5555 d575 9561 d559 d55d     U.QUE.UUu.a.Y.].
    86b8:	5555 9555 d545 d575 5555 5575 9555 5555     UUU.E.u.UUuUU.UU
    86c8:	9555 1545 5555 d455 9555 d775 9555 955d     U.E.UUU.U.u.U.].
    86d8:	5555 d555 9575 5555 d555 5555 1565 5551     UUU.u.UUU.UUe.QU
    86e8:	eaba eaae eaaa 2eae eaae eaae 2a9e eaae     .............*..
    86f8:	eaaa 6aae eaae eaae eaae eaae eaae aaae     ...j............
    8708:	eaba 6a8a 6a9a 2a9e eaa2 6ba6 ea86 6bbe     ...j.j.*...k...k
    8718:	68aa a88a 6a8a aaaa eaaa ea8e 2aae eaae     .h...j.......*..
    8728:	aaba 6a8a 6bba ea9e eabe aaaa 2aae e8ae     ...j.k.......*..
    8738:	abaa ea8a aaaa aaaa aaaa aaae ea8a abae     ................
    8748:	6aaa aabe ea8e eaae ebaa aaaa 69ae 6a8a     .j...........i.j
    8758:	eaaa aa8a aaaa eaba aaaa ea9a 6aaa 6a8a     .............j.j
    8768:	0100 0302 0504 0706 0908 0b0a 0d0c 0f0e     ................
    8778:	1110 1312 1514 1716 0000 0000 0000 0000     ................
    8788:	0001 0302 0504 0706 0908 0b0a 0d0c 0f0e     ................
    8798:	1110 1312 1514 1716 0000 0000 0000 0000     ................
    87a8:	b07a 2ae5 83da 6f85 e17e e5c9 08cd cd0f     z..*...o~.......
    87b8:	0efa fe3a e67d 32df 7dfe c3e1 01f9 127e     ..:.}..2.}....~.
    87c8:	1323 790b c2b0 0e5e 7ec9 2b12 0b1b b079     #..y..^..~.+..y.
    87d8:	69c2 c90e 937d 7c6f 679a 7dc9 6f2f 2f7c     .i..}.o|.g.}/o|/
    87e8:	2367 31c9 8600 da21 7e83 b623 d2c2 210e     g#.1..!..~#....!
    87f8:	8608 0021 010c 0200 0011 cd7e 0e5e 003a     ..!.......~.^.:.
    8808:	fed0 c2ff 0ec6 003a fee0 cafb 0eb7 1421     ......:.......!.
    8818:	2286 8600 d2c3 210e 8602 0022 2186 bffe     .".....!.."..!..
    8828:	1222 c385 0ed2 0221 2288 8800 ff21 22bf     ".....!.."..!.."
    8838:	8616 0021 220e 83da c33e 5121 3201 83dd     ..!.."..>.!Q.2..
    8848:	de22 cd83 0f17 3bc3 2100 7e00 0001 1602     "......;.!.~....
    8858:	7220 0b23 b178 f1c2 c90e 4b21 110f 7ee5      r#.x.....!K...~
    8868:	1501 cd00 0e5e c9fb e9cd 210e 83f8 0801     ....^......!....
    8878:	1600 cd00 0ef1 21c9 84ec 5e11 77e2 7323     .......!...^.w#s
    8888:	7223 1123 e1ff 0506 2377 2373 2372 c205     #r#.....w#s#r#..
    8898:	0f28 b23e ff32 977d ff32 3e7d 3203 7dff     (.>.2.}.2.}>.2.}
    88a8:	0e3e f932 3e7d 3240 7df9 0ec9 170f 1420     >.2.}>@2.}.... .
    88b8:	2d0b 3038 0920 2013 0f17 0b12 0e09 2e07     .-80 .. ........
	...
    8968:	1d21 2210 83de 1421 2286 8600 6ccd 11fa     !.."..!.."...l..
    8978:	18d3 cd97 18fe f011 9718 fecd 3118 8600     .............1..
    8988:	3afb 8487 cab7 1039 7d3a 3d84 32ca cd10     .:....9.:}.=.2..
    8998:	190c bf11 9718 fecd 2118 1040 0222 2186     .........!@."..!
    89a8:	0000 0822 2286 8604 3e3e a8cd d510 b011     ..".."..>>......
    89b8:	cdbf 183b 0ccd 7cf0 c1b5 1aca 1b11 127c     ..;....|......|.
    89c8:	7d1b c512 79d5 f593 d6cd d510 7fc2 d510     .}...y..........
    89d8:	f4cd c110 002a cd86 1100 6960 0022 c186     ....*.....`i"...
    89e8:	002a f186 fee5 ca03 101d 6f85 003e 678c     *..........o>..g
    89f8:	ae11 cdbf 1781 90d2 2218 8600 cdd1 110b     ........."......
    8a08:	e1d1 00cd c311 1048 3a47 8487 c2b7 10b7     ......H.G:......
    8a18:	cd78 1919 bbc3 af10 46cd 11f9 841d b001     x........F......
    8a28:	d5bf 3ae1 841c 853d cd6f 1100 d1c5 e5c9     ...:..=.o.......
    8a38:	022a c386 10e3 b77c 89fa 1118 8614 2ae5     *.....|........*
    8a48:	8600 cd2b 1781 d8e1 951a 1347 9c1a f5da     ..+.......G.....
    8a58:	1b10 c9b0 1313 fe1a c20d 10f5 c313 10de     ................
    8a68:	81cd c817 021a 0313 00c3 7811 c292 1113     ...........x....
    8a78:	9379 1bc8 1a2b c377 110b 203e 8132 2184     y...+.w...> 2..!
    8a88:	1165 0ccd d5f0 131a 2efe 43ca 2311 cabe     e..........C.#..
    8a98:	1126 7f3e be1b 4ada 2311 d2be 1139 d123     &.>....J.#..9.#.
    8aa8:	25c3 3e11 237f d2be 1145 e67e 237f 676e     .%.>.#..E.~..#ng
    8ab8:	e9f1 cde3 f00c 23be 62ca c511 064e 0900     .......#.b..N...
    8ac8:	1bc1 2313 c9e3 494c 5453 ae93 4f4c 4441     ...#..LIST..LOAD
    8ad8:	9248 5426 5041 4845 2c92 5552 964e 4e17     H.&TAPEH.,RUN..N
    8ae8:	5745 f691 4f4d 924e 531d 5359 4554 924d     EW..MON..SYSTEM.
    8af8:	4523 4944 9254 4e32 5845 9254 4cec 5445     #EDIT.2NEXT..LET
    8b08:	e595 4e49 5550 9454 49f9 9346 4786 544f     ..INPUT..IF..GOT
    8b18:	964f 4706 534f 4255 3c92 4552 5554 4e52     O..GOSUB.<RETURN
    8b28:	5e92 4552 934d 468e 524f 7992 5250 4e49     .^REM..FOR.yPRIN
    8b38:	9454 4305 454c 5241 5095 5543 5352 524f     T..CLEAR.PCURSOR
    8b48:	5695 4f50 454b 7a95 4143 4c4c 9295 5453     .VPOKE.zCALL..ST
    8b58:	504f 1792 dd95 fb21 c311 1122 4e4f 0292     OP....!...".ON..
    8b68:	0e92 3bcd 7d18 02fe 00ca c3e0 1882 4ccd     ...;.}.........L
    8b78:	2116 8614 0022 cd86 164c 1dc3 cd10 f125     .!.."...L.....%.
    8b88:	1dc3 c310 f000 03cd c3f0 101d 06cd c3f0     ................
    8b98:	101d 873a 2f84 8732 c384 101d 41cd cd13     ..:../2......A..
    8ba8:	1655 cdd5 10d6 8ac2 2a18 8602 2ae5 8604     U........*...*..
    8bb8:	21e5 0000 0822 3986 0422 c386 1626 4ccd     .!.."..9"...&..L
    8bc8:	2a16 8604 b57c 82ca f918 22e1 8604 22e1     .*..|......"..."
    8bd8:	8602 cdd1 136a 33c3 cd16 1341 f0cd 2b15     ....j..3..A....+
    8be8:	0822 2186 1288 22c3 5411 924f 988f cd82     "..!...".TO.....
    8bf8:	1655 0c22 2186 129a 22c3 5311 4554 9250     U."..!...".STEP.
    8c08:	92a3 cda9 1655 acc3 2112 0001 0a22 2a86     ....U....!.."..*
    8c18:	8602 0e22 eb86 1022 0186 000a 082a eb86     .."...".....*...
    8c28:	6860 3e39 7e09 b623 e5ca 7e12 ba2b c4c2     `h9>.~#....~+...
    8c38:	7e12 c2bb 12c4 21eb 0000 4439 214d 000a     .~.....!..9DM!..
    8c48:	cd19 110b 2af9 8610 c3eb 1633 07cd da18     .....*....3.....
    8c58:	1882 0622 d586 2aeb 8608 b57c 83ca cd18     .."....*..|.....
    8c68:	1781 0fca d113 6acd 2a13 8606 f5c3 5e12     .......j.*.....^
    8c78:	5623 0a2a e586 eb19 082a 7386 7223 0c2a     #V*.....*..s#r*.
    8c88:	f186 f2b7 1327 cdeb 177b dad1 133b 0e2a     ....'...{...;.*.
    8c98:	2286 8602 102a eb86 33c3 cd16 136a 33c3     ."..*....3..j..3
    8ca8:	2116 8580 6fcd c117 d239 1890 082a 7c86     .!...o..9...*..|
    8cb8:	cab5 1367 102a e586 0e2a e586 0c2a e586     ..g.*...*...*...
    8cc8:	0a2a e586 082a e586 c9c5 e1c1 0822 7c86     *...*......."..|
    8cd8:	cab5 1384 22e1 860a 22e1 860c 22e1 860e     ....."..."..."..
    8ce8:	22e1 8610 c9c5 55cd 7c16 c2b5 162d 0021     .".....U.|..-.!.
    8cf8:	cd00 10f6 26d2 c316 101d d6cd d510 23e1     .....&.........#
    8d08:	0222 c986 2ae5 8600 222b 8602 c9e1 3bcd     "....*..+".....;
    8d18:	7c18 c2b5 13c1 d6cd d510 a4cd d113 e4c3     .|..............
    8d28:	e513 52cd 2c11 cd19 183b b57c d6c2 e113     ...R.,..;.|.....
    8d38:	d6cd c310 13b9 9acd e113 d6cd c310 13e4     ................
    8d48:	cde1 139a 1dda cd10 13f0 cfcd c310 13e4     ................
    8d58:	6f1a 1a13 1367 040e abcd 3e14 cd20 1912     .o..g......> ...
    8d68:	cd97 18fe 0ec9 cd06 1152 063b 0ccd c319     ........R.;.....
    8d78:	162d 52cd 4811 2a2b 847d b9cd 2afa 847f     -..R.H+*}....*..
    8d88:	cde5 15ba 7cc1 c2b7 143c fe78 d280 143c     .....|..<.x...<.
    8d98:	027d cd03 1152 072c c3c5 1421 89c3 c318     }...R.,...!.....
    8da8:	1633 52cd 0d11 cd06 190c 1dc3 cd16 1152     3..R..........R.
    8db8:	0723 55cd 4d16 5fc3 cd14 147b 70c3 cd14     #..U.M._..{..p..
    8dc8:	1152 062c 39cd c316 1412 0ccd c319 1633     R.,..9........3.
    8dd8:	55cd c516 abcd c114 5fc3 cd14 1152 0522     .U......._..R.".
    8de8:	223e 8cc3 cd14 1152 0e27 273e fecd fe18     >"....R.'.>'....
    8df8:	e10d 1dca c316 14a6 52cd 5f11 3e0d cd8d     .........R._.>..
    8e08:	1912 12cd e119 2323 e923 d5c9 0a11 d500     ......###.......
    8e18:	0642 0d20 6ccd f217 14bd 2d06 c50d 4fcd     B. ..l.....-...O
    8e28:	7817 cab1 14ce 2de3 60e5 c369 14be 0dc1     .x.....-.`i.....
    8e38:	b779 ddfa 3e14 cd20 1912 cfc3 7814 12cd     y....> ......x..
    8e48:	5d19 fe7b d10a c6c8 cd30 1912 e2c3 2a14     .]{.....0......*
    8e58:	8606 e1f9 0222 d186 d5d1 7bcd c314 1509     ...."......{....
    8e68:	07cd da18 1547 1bc3 d515 07cd da18 1882     ....G...........
    8e78:	4f1a 1297 cdd1 18fe 1b79 d512 2aeb 8602     .O......y....*..
    8e88:	21e5 14f9 0222 2186 0000 2239 8606 3ed5     .!.."..!..9"...>
    8e98:	cd3f 1919 bbcd 1110 bfb0 55cd d116 73eb     ?..........U...s
    8ea8:	7223 22e1 8602 f1d1 52cd 2c11 c3e6 14f9     #r.".....R.,....
    8eb8:	6ccd c3fa 1633 55cd 3e16 2d1f 9fcd 2c15     .l..3..U.>.-...,
    8ec8:	cde5 187c 55cd 3e16 2d0f 9fcd 7d15 323c     ..|..U.>.-...}<2
    8ed8:	847e 7de1 7d32 c384 1633 c9cd cd15 187c     ~..}2}..3.....|.
    8ee8:	cde5 15c9 b77c 8fc2 7d15 77e1 33c3 c316     ....|....}.w.3..
    8ef8:	1889 a9cd 0115 159b c5d5 d1e9 33c3 bd16     .............3..
    8f08:	89da 7c18 c2b7 1889 cdc9 15ba fffe b8ca     ...|............
    8f18:	cd15 1152 0248 c9b7 c937 0ccd 21f0 8414     ..R.H...7....!..
    8f28:	cdeb f6a6 2aeb 8414 d5c9 a9cd da15 15d2     .....*..........
    8f38:	c9f1 cdd1 1807 82da cd18 1802 cdc9 1642     ..............B.
    8f48:	0dfe 33ca cd16 15f0 52cd 2c11 c346 15e5     ...3.....R.,F...
    8f58:	07cd da18 1882 cde5 1152 3a3d 55cd 4416     ........R.=:.U.D
    8f68:	e14d 2371 c970 55cd d516 4ccd cd16 10d6     M.q#p..U...L....
    8f78:	8ac2 f118 26c3 cd16 164c 1411 2186 0000     .....&..L....!..
    8f88:	decd da10 101d 22eb 8602 13eb 2113 1196     .......".....!..
    8f98:	22c3 cd11 1639 82c3 cd18 1152 043b c3f1     ."..9.....R.;...
    8fa8:	162d 52cd 0d11 f104 1dc3 c916 0ccd fef0     -..R............
    8fb8:	c80d 82c3 cd18 16b3 21e5 165e 22c3 3e11     .........!^..".>
    8fc8:	963d 2375 7b96 963e 3d81 9096 3d3c 8896     =.u#.{>..=..<=..
    8fd8:	963c 9696 cd9c 169e 6fd8 cdc9 169e 6fc8     <........o.....o
    8fe8:	cdc9 169e d8c8 c96f 9ecd 6f16 d8c8 c96c     ......o....o..l.
    8ff8:	9ecd c016 c96f 9ecd d016 c96f c9e1 e179     ....o.....o...y.
    9008:	e5c1 4fc5 b3cd eb16 cde3 177b 21d1 0000     ...O......{..!..
    9018:	013e cdc9 1152 062d 0021 c300 16d7 52cd     >...R.-.!......R
    9028:	2b11 cd00 16ef 52cd 2b11 e507 efcd c316     .+.....R.+......
    9038:	16de 52cd 2d11 e58d efcd cd16 176f e3eb     ...R.-......o...
    9048:	aa7c 197a fad1 16c6 f2ac 16c6 89c3 cd18     |.z.............
    9058:	1787 52cd 2a11 e52b 87cd 0617 cd00 176c     ...R.*+.......l.
    9068:	e3eb 6ccd 7c17 cab7 1710 b27a c2eb 188a     ...l.|....z.....
    9078:	2e7d b700 41ca 1917 8ada 3d18 17c2 c317     }....A.....=....
    9088:	1741 52cd 2f11 e53d 87cd 0617 cd00 176c     A..R./=.......l.
    9098:	e3eb 6ccd 7a17 cab3 188a cdc5 174f 6960     ...l.z......O.`i
    90a8:	d1c1 b77c 89fa 7818 fcb7 176f f2c3 e516     ..|....x..o.....
    90b8:	266c cd00 175a 7d41 67e1 ff0e cd0c 1765     l&..Z.A}.g....e.
    90c8:	5cd2 1917 7dc9 6f93 9a7c c967 b77c 7cf0     .\...}.o|.g.|..|
    90d8:	672f 2f7d 236f ee78 4780 7cc9 f2aa 1781     /g}/o#x..G.|....
    90e8:	7ceb c0ba bb7d 21c9 178c 22c3 5211 444e     .|..}..!...".RND
    90f8:	a597 4241 9753 53ce 5a49 9745 50da 4545     ..ABS..SIZE..PEE
    9108:	974b 97e7 cdfc 186e b77c 89fa b518 89ca     K.....n.|.......
    9118:	d518 2ae5 8612 e67c 6707 0011 1910 235e     ...*..|..g....^#
    9128:	2256 8612 ebe1 cdc5 174f d1c1 c923 6ecd     V"......O...#..n
    9138:	cd18 176c b47c 89fa c918 002a d586 21eb     ..l.|.....*....!
    9148:	bfae 65cd d117 cdc9 1152 0d28 c9cd cd15     ...e....R.(.....
    9158:	1152 0529 267e 6f00 c3c9 1882 07cd da18     R.).~&.o........
    9168:	1868 237e 6f66 cdc9 f00c 40d6 c2d8 182b     h.~#fo.....@..+.
    9178:	cd13 186e da29 1889 ebd5 dacd cd17 1781     ..n.)...........
    9188:	91da 2118 bfae 65cd d117 fec9 3f1b 13d8     ...!...e.....?..
    9198:	2621 0785 6f85 003e 678c 21c9 0000 cd44     !&...o>..g.!..D.
    91a8:	f00c 30fe fed8 d03a f03e c2a4 1889 c504     ...0..:.>.......
    91b8:	4d44 2929 2909 131a 0fe6 6f85 003e 678c     DM)).).....o>..g
    91c8:	1ac1 89fa c318 1842 3bcd 7818 c0b7 52cd     ......B..;.x...R
    91d8:	2811 cd0f 1655 52cd 2911 c907 52cd 2c11     .(..U..R.)...R.,
    91e8:	c901 11d5 18c7 94c3 d518 c211 c318 1894     ................
    91f8:	11d5 18cd cd97 18fe 1ad1 97f5 2a12 8602     .............*..
    9208:	7ee5 b623 cad1 101d b77e effa cd14 13f0     .~#.....~.......
    9218:	f11b 3e12 cd3f 1912 cd97 18fe 1dc3 4f10     ...>?..........O
    9228:	0d4b 4f48 3f57 570d 4148 3f54 530d 524f     K.HOW?.WHAT?.SOR
    9238:	5952 4c0d 5645 4c45 2031 4f43 504d 5441     RY.LEVEL1 COMPAT
    9248:	4249 454c 5420 4e49 2059 4142 4953 0d43     IBLE TINY BASIC.
    9258:	4b54 382d 2030 4445 5449 4f49 0d4e 1a47     TK-80 EDITION.G.
    9268:	b813 cdc8 1912 0dfe ffc2 c918 0d3e 12cd     ............>...
    9278:	c919 7932 cd84 f9a0 cdc9 1912 c5f5 e5d5     ..2y............
    9288:	7d2a cd84 fab9 a5cd 2119 841d 0006 bbcd     *}.......!......
    9298:	fe19 c20a 1938 0d3e 7932 fe84 ca0d 198b     ....8.>.2y......
    92a8:	08fe 5dca fe19 ca7f 1977 a0cd cdf9 19a5     ...]....w.......
    92b8:	784f 50fe 2ed2 7119 0423 2ec3 7819 cab7     Ox.P...q#....x..
    92c8:	192e 2b05 b3cd f519 203e 8132 f184 a0cd     ...+....> 2.....
    92d8:	cdf9 19a5 2ec3 cd19 19b3 013e 7d32 cd84     ..........>.2}..
    92e8:	fab9 dccd cdfa 19a5 29c3 7719 b3cd 3e19     .........).w...>
    92f8:	320d 8479 a0cd cdf9 19a5 0404 3278 841c     .2y.........x2..
    9308:	d1e1 f1c1 e5c9 7f2a f584 327e 8481 1f36     ......*...~2..6.
    9318:	e1f1 e5c9 7f2a 3684 e120 3ac9 7dfe 20e6     ....*..6 ..:.}. 
    9328:	bbca 3a19 7dfc 3ac9 7dfe 20e6 c7ca 3a19     ...:.}.:.}. ...:
    9338:	7dfc 00c9 0000 0000 0000 0000 0000 0000     .}..............
	...

00009360 <bsfont_rom>:
    9360:	413e 3901 4949 003e 221c 7f41 4141 0041     >A.9II>.."A.AAA.
    9370:	417e 7e41 4141 007e 413e 4040 4140 003e     ~AA~AA~.>A@@@A>.
    9380:	427c 4141 4241 007c 407f 7e40 4040 007f     |BAAAB|..@@~@@..
    9390:	407f 7e40 4040 0040 413e 4f40 4141 003e     .@@~@@@.>A@OAA>.
    93a0:	4141 7f41 4141 0041 0808 0808 0808 0008     AAA.AAA.........
    93b0:	041f 0404 4404 0038 4442 7048 4448 0042     .....D8.BDHpHDB.
    93c0:	4040 4040 4040 007e 6341 4955 4141 0041     @@@@@@~.AcUIAAA.
    93d0:	6141 4951 4345 0041 221c 4141 2241 001c     AaQIECA.."AAA"..
    93e0:	417e 7e41 4040 0040 221c 4141 2245 001d     ~AA~@@@.."AAE"..
    93f0:	417e 7e41 4244 0041 413e 3e40 4101 003e     ~AA~DBA.>A@>.A>.
    9400:	087f 0808 0808 0008 4141 4141 4141 003e     ........AAAAAA>.
    9410:	4141 4141 1422 0008 4141 4941 5549 0022     AAAA"...AAAIIU".
    9420:	2241 0814 2214 0041 4141 1422 0808 0008     A"..."A.AA".....
    9430:	027f 0804 2010 007f 203c 2020 2020 003c     ..... ..<     <.
    9440:	2241 7f14 7f08 0808 043c 0404 0404 003c     A"......<.....<.
    9450:	1408 0022 0000 0000 0000 0000 0000 ff00     ..".............
	...
    9468:	0808 0808 0000 0008 2424 0024 0000 0000     ........$$$.....
    9478:	2222 227f 227f 0022 3f08 3e48 7e09 0008     "".".""..?H>.~..
    9488:	6200 0864 2610 0046 423c 1824 4639 007b     .bd..&F.<B$.9F{.
    9498:	1030 0020 0000 0000 0804 1010 0810 0004     0. .............
    94a8:	1020 0808 1008 0020 0800 1c2a 082a 0000      ..... ...*.*...
    94b8:	0800 3e08 0808 0000 0000 0000 0818 0010     ...>............
    94c8:	0000 7e00 0000 0000 0000 0000 1800 0018     ...~............
    94d8:	0200 0804 2010 0040 433e 4945 6151 003e     ..... @.>CEIQa>.
    94e8:	1808 0808 0808 001c 413e 0e01 2010 007f     ........>A... ..
    94f8:	027f 020c 4101 003e 140c 4424 047f 0004     .....A>...$D....
    9508:	407f 017e 4101 003e 201e 7e40 4141 003e     .@~..A>.. @~AA>.
    9518:	027f 0804 1010 0010 221c 3e22 4141 003e     ........."">AA>.
    9528:	413e 3f41 0201 003c 1800 0018 1818 0000     >AA?..<.........
    9538:	1800 0018 0818 0010 1008 4020 1020 0008     .......... @ ...
    9548:	0000 007e 007e 0000 0408 0102 0402 0008     ..~.~...........
    9558:	423c 0c02 0010 0010 211f 0a51 0804 0070     <B.......!Q...p.
    9568:	0804 0878 08ff 0070 4900 4949 0402 0038     ..x...p..III..8.
    9578:	003e 087f 0808 0010 1010 1810 1014 0010     >...............
    9588:	0808 087f 1008 0020 3e00 0000 0000 007f     ...... ..>......
    9598:	3f00 0a01 0a04 0030 7f08 0402 2a1c 0008     .?....0......*..
    95a8:	0202 0402 1008 0060 0408 4102 4141 0041     ......`....AAAA.
    95b8:	4040 407f 4040 003f 7f00 0101 0201 003c     @@.@@@?.......<.
    95c8:	1000 4428 0102 0000 7f08 0808 492a 0008     ..(D........*I..
    95d8:	017f 0201 0814 0004 0810 1224 2448 0810     ..........$.H$..
    95e8:	0800 2010 7e44 0001 0101 1402 1408 0060     ... D~........`.
    95f8:	7f00 7f10 1010 001f 1010 117f 1012 0010     ................
    9608:	3c00 0404 0404 007f 017f 7f01 0101 007f     .<..............
    9618:	003e 017f 0402 0018 4242 4242 0402 0008     >.......BBBB....
    9628:	2828 2928 2a29 004c 4040 4442 5048 0060     ((())*L.@@BDHP`.
    9638:	7e00 4242 4242 007e 7f00 4141 0201 001c     .~BBBB~...AA....
    9648:	7000 0101 0402 0078 4810 0020 0000 0000     .p....x..H .....
    9658:	5070 0070 0000 0000 0000 0000 0000 0000     pPp.............
    9668:	0000 0000 5070 0070 080e 0808 0000 0000     ....pPp.........
    9678:	0000 1000 1010 0070 0000 0000 2040 0010     ......p.....@ ..
    9688:	0000 3000 0030 0000 7f00 7f01 0201 001c     ...00...........
    9698:	0000 023e 080c 0010 0000 0804 2818 0008     ..>..........(..
    96a8:	0000 3e08 0222 001c 0000 3e00 0808 003e     ...>"......>..>.
    96b8:	0000 3e04 140c 0024 0000 7e20 2422 0020     ...>..$... ~"$ .
    96c8:	0000 1c00 0404 003e 0000 043c 043c 003c     ......>...<.<.<.
    96d8:	0000 2a00 022a 000c 0000 7e00 0000 0000     ...**......~....
    96e8:	017f 0a09 080c 0010 0402 1808 4828 0008     ............(H..
    96f8:	7f08 4141 0201 000c 3e00 0808 0808 007f     ..AA.....>......
    9708:	7f04 140c 4424 0004 7f10 1111 1111 0022     ....$D........".
    9718:	7f08 7f08 0808 0008 223e 4222 0804 0030     ........>""B..0.
    9728:	3f20 0444 0404 0008 7f00 0101 0101 007f      ?D.............
    9738:	7f22 2222 0402 0008 7000 7101 0201 007c     "."".....p.q..|.
    9748:	017f 0402 120c 0021 7f20 2422 2020 003f     ......!. ."$  ?.
    9758:	4100 2141 0201 001c ffff ffff ffff ffff     .AA!............
    9768:	01aa 0180 0180 5580 f0f0 f0f0 f0f0 f0f0     .......U........
    9778:	0f0f 0f0f 0f0f 0f0f c0c0 c0c0 c0c0 c0c0     ................
    9788:	3030 3030 3030 3030 0c0c 0c0c 0c0c 0c0c     00000000........
    9798:	0303 0303 0303 0303 8080 8080 8080 8080     ................
    97a8:	4040 4040 4040 4040 2020 2020 2020 2020     @@@@@@@@        
    97b8:	1010 1010 1010 1010 0808 0808 0808 0808     ................
    97c8:	0404 0404 0404 0404 0202 0202 0202 0202     ................
    97d8:	0101 0101 0101 0101 ffff ffff 0000 0000     ................
    97e8:	0000 0000 ffff ffff ffff 0000 0000 0000     ................
    97f8:	0000 ffff 0000 0000 0000 0000 ffff 0000     ................
    9808:	0000 0000 0000 ffff 00ff 0000 0000 0000     ................
    9818:	ff00 0000 0000 0000 0000 00ff 0000 0000     ................
    9828:	0000 ff00 0000 0000 0000 0000 00ff 0000     ................
    9838:	0000 0000 ff00 0000 0000 0000 0000 00ff     ................
    9848:	0000 0000 0000 ff00 80ff 8080 8080 8080     ................
    9858:	01ff 0101 0101 0101 8080 8080 8080 ff80     ................
    9868:	0101 0101 0101 ff01 f0f0 f0f0 0f0f 0f0f     ................
    9878:	0f0f 0f0f f0f0 f0f0 1010 1010 10ff 1010     ................
    9888:	1010 1010 00ff 0000 0000 0000 10ff 1010     ................
    9898:	1010 1010 10f0 1010 1010 1010 101f 1010     ................
    98a8:	0000 0000 0f0f 0f0f 0000 0000 f0f0 f0f0     ................
    98b8:	0f0f 0f0f 0000 0000 f0f0 f0f0 0000 0000     ................
    98c8:	0000 0000 101f 1010 0000 0000 10f0 1010     ................
    98d8:	1010 1010 001f 0000 1010 1010 00f0 0000     ................
    98e8:	feff f8fc e0f0 80c0 0301 0f07 3f1f ff7f     .............?..
    98f8:	0201 0804 2010 8040 c080 f0e0 fcf8 fffe     ..... @.........
    9908:	7fff 1f3f 070f 0103 4080 1020 0408 0102     ..?......@ .....
    9918:	c381 ffe7 e7ff 81c3 7eff 183c 3c18 ff7e     .........~<..<~.
    9928:	4281 1824 2418 8142 c080 f0e0 e0f0 80c0     .B$..$B.........
    9938:	7eff 183c 0000 0000 0301 0f07 070f 0103     .~<.............
    9948:	0000 0000 3c18 ff7e 4080 1020 2010 8040     .....<~..@ .. @.
    9958:	4281 1824 0000 0000 0201 0804 0408 0102     .B$.............
    9968:	0000 0000 2418 8142 0000 0f03 1f1f 3f3f     .....$B.......??
    9978:	0000 f0c0 f8f8 fcfc 3f3f 1f1f 030f 0000     ........??......
    9988:	fcfc f8f8 c0f0 0000 0000 0807 2010 2020     .............   
    9998:	0000 10e0 0408 0404 2020 1020 0708 0000     ........   .....
    99a8:	0404 0804 e010 0000 1800 7e3c 3c7e 0018     ..........<~~<..
    99b8:	e7ff 81c3 c381 ffe7 1800 4224 2442 0018     ..........$BB$..
    99c8:	ff55 ff55 ff55 ff55 f050 f050 f050 f050     U.U.U.U.P.P.P.P.
    99d8:	0f0a 0f0a 0f0a 0f0a ff55 ff55 0000 0000     ........U.U.....
    99e8:	0000 0000 55ff 55ff 1c08 7f3e 1c7f 003e     .....U.U..>...>.
    99f8:	7f36 7f7f 1c3e 0008 1c08 7f3e 1c3e 0008     6...>.....>.>...
    9a08:	1c1c 7f7f 086b 007f 2000 7070 2070 0020     ....k.... ppp  .
    9a18:	1000 1038 7c38 0010 1000 9238 547c 0038     ..8.8|....8.|T8.
    9a28:	1000 1038 7c38 0038 3810 3838 7c10 0038     ..8.8|8..888.|8.
    9a38:	0a00 3e1e 2e7e 000e 5400 7c54 3838 007c     ...>~....TT|88|.
    9a48:	1800 1818 3c18 007e 7c10 fefe feff 7cfe     .....<~..|.....|
    9a58:	7c10 8282 8283 7c82 0000 0000 007e 0000     .|.....|....~...
    9a68:	0000 003c 7e00 0000 0000 003c 0018 007e     ..<..~....<...~.
    9a78:	0000 aafe 82ce 00fe 0000 207c 247c 00fe     ..........| |$..
    9a88:	1000 fe10 2400 4122 2000 ff20 2020 003e     .....$"A.  .  >.
    9a98:	0000 2828 4224 0001 2000 24fc 4424 0086     ..(($B... .$$D..
    9aa8:	1000 7c10 1010 0010 10ff 427e 427e 007e     ...|......~B~B~.
    9ab8:	7806 ff08 0808 0808 ff00 1e10 1212 4422     .x............"D
    9ac8:	497f 7f49 4141 0041 417f 7f41 4141 007f     .II.AAA..AA.AA..
    9ad8:	213f 213f 213f 0041 2a08 082a 2214 0041     ?!?!?!A..**.."A.
    9ae8:	0908 0c3a 2a1c 0049 0808 083e 2a1c 0049     ..:..*I...>..*I.
    9af8:	1408 493e 1c3e 007f 0800 3e08 0808 007f     ..>I>......>....
    9b08:	4808 487e 083e 007f 3e20 3c48 7e28 0008     .H~H>... >H<(~..
    9b18:	7e04 7f54 7f52 000a 1800 4224 143c 0024     .~T.R.....$B<.$.
    9b28:	1238 177f 523b 0014 4200 1800 0018 0042     8...;R...B....B.
    9b38:	0080 0080 0080 0080 0000 0000 0000 5500     ...............U
    9b48:	0200 0800 2000 8000 0080 0020 0008 0002     ..... .... .....
    9b58:	0808 1c08 1cff 0808 0202 0001 0000 0000     ................
    9b68:	0000 221c 4642 003a 4040 625c 6242 005c     ..."BF:.@@\bBb\.
    9b78:	0000 423c 4240 003c 0202 463a 4642 003a     ..<B@B<...:FBF:.
    9b88:	0000 423c 407e 003c 120c 7c10 1010 0010     ..<B~@<....|....
    9b98:	463a 4642 023a 003c 4040 625c 4242 0042     :FBF:.<.@@\bBBB.
    9ba8:	0008 0808 0808 0008 0002 0202 1212 000c     ................
    9bb8:	4040 4844 6850 0044 0818 0808 0808 001c     @@DHPhD.........
    9bc8:	0000 4976 4949 0049 0000 625c 4242 0042     ..vIIII...\bBBB.
    9bd8:	0000 423c 4242 003c 5c00 4262 5c62 4040     ..<BBB<..\bBb\@@
    9be8:	3a00 4246 3a46 0202 0000 625c 4040 0040     .:FBF:....\b@@@.
    9bf8:	0000 403e 023c 007c 1010 107c 1010 001c     ..>@<.|...|.....
    9c08:	0000 4444 4444 0038 0000 4444 2844 0010     ..DDDD8...DDD(..
    9c18:	0000 4941 4949 0036 4400 1028 4428 0000     ..AIII6..D(.(D..
    9c28:	4200 4642 023a 003c 0000 047e 2018 007e     .BBF:.<...~.. ~.
    9c38:	100c 7010 1010 000c 0808 0008 0808 0008     ...p............
    9c48:	0830 0e08 0808 0030 4931 0046 0000 0000     0.....0.1IF.....
    9c58:	ffff ffff ffff ffff 0000 0000 0000 0000     ................
    9c68:	0808 0808 0000 0008 2424 0024 0000 0000     ........$$$.....
    9c78:	2222 227f 227f 0022 3f08 3e48 7e09 0008     "".".""..?H>.~..
    9c88:	6200 0864 2610 0046 423c 1824 4639 007b     .bd..&F.<B$.9F{.
    9c98:	1030 0020 0000 0000 0804 1010 0810 0004     0. .............
    9ca8:	1020 0808 1008 0020 0800 1c2a 082a 0000      ..... ...*.*...
    9cb8:	0800 3e08 0808 0000 0000 0000 0818 0010     ...>............
    9cc8:	0000 7e00 0000 0000 0000 0000 1800 0018     ...~............
    9cd8:	0200 0804 2010 0040 433e 4945 6151 003e     ..... @.>CEIQa>.
    9ce8:	1808 0808 0808 001c 413e 0e01 2010 007f     ........>A... ..
    9cf8:	027f 020c 4101 003e 140c 4424 047f 0004     .....A>...$D....
    9d08:	407f 017e 4101 003e 201e 7e40 4141 003e     .@~..A>.. @~AA>.
    9d18:	027f 0804 1010 0010 221c 3e22 4141 003e     ........."">AA>.
    9d28:	413e 3f41 0201 003c 1800 0018 1818 0000     >AA?..<.........
    9d38:	1800 0018 0818 0010 1008 4020 1020 0008     .......... @ ...
    9d48:	0000 007e 007e 0000 0408 0102 0402 0008     ..~.~...........
    9d58:	423c 0c02 0010 0010 413e 3901 4949 003e     <B......>A.9II>.
    9d68:	221c 7f41 4141 0041 417e 7e41 4141 007e     ."A.AAA.~AA~AA~.
    9d78:	413e 4040 4140 003e 427c 4141 4241 007c     >A@@@A>.|BAAAB|.
    9d88:	407f 7e40 4040 007f 407f 7e40 4040 0040     .@@~@@...@@~@@@.
    9d98:	413e 4f40 4141 003e 4141 7f41 4141 0041     >A@OAA>.AAA.AAA.
    9da8:	0808 0808 0808 0008 041f 0404 4404 0038     .............D8.
    9db8:	4442 7048 4448 0042 4040 4040 4040 007e     BDHpHDB.@@@@@@~.
    9dc8:	6341 4955 4141 0041 6141 4951 4345 0041     AcUIAAA.AaQIECA.
    9dd8:	221c 4141 2241 001c 417e 7e41 4040 0040     ."AAA"..~AA~@@@.
    9de8:	221c 4141 2245 001d 417e 7e41 4244 0041     ."AAE"..~AA~DBA.
    9df8:	413e 3e40 4101 003e 087f 0808 0808 0008     >A@>.A>.........
    9e08:	4141 4141 4141 003e 4141 4141 1422 0008     AAAAAA>.AAAA"...
    9e18:	4141 4941 5549 0022 2241 0814 2214 0041     AAAIIU".A"..."A.
    9e28:	4141 1422 0808 0008 027f 0804 2010 007f     AA".......... ..
    9e38:	203c 2020 2020 003c 4000 1020 0408 0002     <     <..@ .....
    9e48:	043c 0404 0404 003c 1408 0022 0000 0000     <.....<...".....
    9e58:	0000 0000 0000 ff00 0000 4639 4444 003b     ..........9FDD;.
    9e68:	211e 213e 203e 0040 1360 1814 3010 0030     .!>!> @.`....00.
    9e78:	201e 1020 221c 001c 100c 3c20 1020 000c     .  ..".... < ...
    9e88:	0e16 2010 021c 000c 2c00 1252 1212 0202     ... .....,R.....
    9e98:	221c 7f41 2241 001c 4000 4040 4840 0030     ."A.A"...@@@@H0.
    9ea8:	4400 5048 5460 0048 6000 1010 2418 0043     .DHP`TH..`...$C.
    9eb8:	4848 4848 4074 0040 4200 2422 3028 0020     HHHHt@@..B"$(0 .
    9ec8:	1e20 1e20 3c20 0c02 1800 4224 2442 0018      . . <....$BB$..
    9ed8:	3e01 1454 1414 0012 221c 2121 203e 4020     .>T......"!!>  @
    9ee8:	1e00 4224 2442 0018 3e01 1050 1210 001c     ..$BB$...>P.....
    9ef8:	6600 2424 2424 0018 3810 5454 3854 1010     .f$$$$...8TTT8..
    9f08:	0100 1462 1408 0023 2a2a 1c2a 0808 0008     ..b...#.***.....
    9f18:	2200 4941 4949 0036 423c 8181 2442 00e7     ."AIII6.<B..B$..
    9f28:	203f 2020 a020 2060 0000 0408 04fe 0008     ?    .` ........
    9f38:	0000 2010 207f 0010 0800 2a1c 0808 0008     ... . .....*....
    9f48:	0800 3e00 0800 0000 40ff 1020 4020 00ff     ...>.....@ . @..
    9f58:	4931 0046 4931 0046 ffff ffff ffff ffff     1IF.1IF.........
    9f68:	01aa 0180 0180 5580 f0f0 f0f0 f0f0 f0f0     .......U........
    9f78:	0f0f 0f0f 0f0f 0f0f c0c0 c0c0 c0c0 c0c0     ................
    9f88:	3030 3030 3030 3030 0c0c 0c0c 0c0c 0c0c     00000000........
    9f98:	0303 0303 0303 0303 8080 8080 8080 8080     ................
    9fa8:	4040 4040 4040 4040 2020 2020 2020 2020     @@@@@@@@        
    9fb8:	1010 1010 1010 1010 0808 0808 0808 0808     ................
    9fc8:	0404 0404 0404 0404 0202 0202 0202 0202     ................
    9fd8:	0101 0101 0101 0101 ffff ffff 0000 0000     ................
    9fe8:	0000 0000 ffff ffff ffff 0000 0000 0000     ................
    9ff8:	0000 ffff 0000 0000 0000 0000 ffff 0000     ................
    a008:	0000 0000 0000 ffff 00ff 0000 0000 0000     ................
    a018:	ff00 0000 0000 0000 0000 00ff 0000 0000     ................
    a028:	0000 ff00 0000 0000 0000 0000 00ff 0000     ................
    a038:	0000 0000 ff00 0000 0000 0000 0000 00ff     ................
    a048:	0000 0000 0000 ff00 80ff 8080 8080 8080     ................
    a058:	01ff 0101 0101 0101 8080 8080 8080 ff80     ................
    a068:	0101 0101 0101 ff01 f0f0 f0f0 0f0f 0f0f     ................
    a078:	0f0f 0f0f f0f0 f0f0 1010 1010 10ff 1010     ................
    a088:	1010 1010 00ff 0000 0000 0000 10ff 1010     ................
    a098:	1010 1010 10f0 1010 1010 1010 101f 1010     ................
    a0a8:	0000 0000 0f0f 0f0f 0000 0000 f0f0 f0f0     ................
    a0b8:	0f0f 0f0f 0000 0000 f0f0 f0f0 0000 0000     ................
    a0c8:	0000 0000 101f 1010 0000 0000 10f0 1010     ................
    a0d8:	1010 1010 001f 0000 1010 1010 00f0 0000     ................
    a0e8:	feff f8fc e0f0 80c0 0301 0f07 3f1f ff7f     .............?..
    a0f8:	0201 0804 2010 8040 c080 f0e0 fcf8 fffe     ..... @.........
    a108:	7fff 1f3f 070f 0103 4080 1020 0408 0102     ..?......@ .....
    a118:	c381 ffe7 e7ff 81c3 7eff 183c 3c18 ff7e     .........~<..<~.
    a128:	4281 1824 2418 8142 c080 f0e0 e0f0 80c0     .B$..$B.........
    a138:	7eff 183c 0000 0000 0301 0f07 070f 0103     .~<.............
    a148:	0000 0000 3c18 ff7e 4080 1020 2010 8040     .....<~..@ .. @.
    a158:	4281 1824 0000 0000 0201 0804 0408 0102     .B$.............
    a168:	0000 0000 2418 8142 0000 0f03 1f1f 3f3f     .....$B.......??
    a178:	0000 f0c0 f8f8 fcfc 3f3f 1f1f 030f 0000     ........??......
    a188:	fcfc f8f8 c0f0 0000 0000 0807 2010 2020     .............   
    a198:	0000 10e0 0408 0404 2020 1020 0708 0000     ........   .....
    a1a8:	0404 0804 e010 0000 1800 7e3c 3c7e 0018     ..........<~~<..
    a1b8:	e7ff 81c3 c381 ffe7 1800 4224 2442 0018     ..........$BB$..
    a1c8:	ff55 ff55 ff55 ff55 f050 f050 f050 f050     U.U.U.U.P.P.P.P.
    a1d8:	0f0a 0f0a 0f0a 0f0a ff55 ff55 0000 0000     ........U.U.....
    a1e8:	0000 0000 55ff 55ff 1c08 7f3e 1c7f 003e     .....U.U..>...>.
    a1f8:	7f36 7f7f 1c3e 0008 1c08 7f3e 1c3e 0008     6...>.....>.>...
    a208:	1c1c 7f7f 086b 007f 2000 7070 2070 0020     ....k.... ppp  .
    a218:	1000 1038 7c38 0010 1000 9238 547c 0038     ..8.8|....8.|T8.
    a228:	1000 1038 7c38 0038 3810 3838 7c10 0038     ..8.8|8..888.|8.
    a238:	0a00 3e1e 2e7e 000e 5400 7c54 3838 007c     ...>~....TT|88|.
    a248:	1800 1818 3c18 007e 7c10 fefe feff 7cfe     .....<~..|.....|
    a258:	7c10 8282 8283 7c82 0100 0201 0402 207c     .|.....|......| 
    a268:	0000 8000 4080 087c 0810 1308 1814 0020     .....@|....... .
    a278:	2010 9020 3050 0008 7e00 4040 4040 0040     .  .P0...~@@@@@.
    a288:	0602 120a 4222 00fe 0602 120a 4222 0082     ...."B......"B..
    a298:	3c00 1008 083c 3c10 7c00 2828 2828 0028     .<..<..<.|(((((.
    a2a8:	7c00 1020 2010 007c 1000 5438 3854 0010     .| .. |...8TT8..
    a2b8:	5400 3854 1010 0010 3800 4444 2844 006c     .TT8.....8DDD(l.
    a2c8:	1000 4428 1028 0000 0c00 3810 2010 007e     ..(D(......8. ~.
    a2d8:	1000 5038 5050 1038 0101 0101 0907 1d13     ..8PPP8.........
    a2e8:	4080 8040 0000 4080 1115 0709 3131 000e     .@@....@....11..
    a2f8:	4040 0080 0000 0000 0000 0000 3000 6050     @@...........0P`
    a308:	1010 1010 3010 6054 1010 1010 3010 6050     .....0T`.....0P`
    a318:	1010 1010 3010 6074 1010 1010 3010 6070     .....0t`.....0p`
    a328:	1810 1214 3412 6070 4200 1800 0018 0042     .....4p`.B....B.
    a338:	0080 0080 0080 0080 0000 0000 0000 5500     ...............U
    a348:	0200 0800 2000 8000 0080 0020 0008 0002     ..... .... .....
    a358:	0808 1c08 1cff 0808                         ........

0000a360 <bsmonitor_rom>:
    a360:	8fc3 c3f1 f5f3 dfc3 c3f3 f3e9 fe1a c020     .............. .
    a370:	c313 f00c 0000 0000 0000 0000 c5f5 e5d5     ................
    a380:	7d2a cd84 fab9 18cd 21fa 841d 0006 53cd     *}.......!.....S
    a390:	fefa c20a f038 0d3e 7932 fe84 ca0d f08b     ....8.>.2y......
    a3a0:	08fe 5dca fef0 ca7f f077 a0cd cdf9 fa18     ...]....w.......
    a3b0:	784f 50fe 2ed2 71f0 0423 2ec3 78f0 cab7     Ox.P...q#....x..
    a3c0:	f02e 2b05 a5cd f5f0 203e 8132 f184 a0cd     ...+....> 2.....
    a3d0:	cdf9 fa18 2ec3 cdf0 f0a5 013e 7d32 cd84     ..........>.2}..
    a3e0:	fab9 dccd cdfa fa18 29c3 77f0 a5cd 3ef0     .........).w...>
    a3f0:	320d 8479 a0cd cdf9 fa18 0404 3278 841c     .2y.........x2..
    a400:	d1e1 f1c1 e5c9 7f2a 3684 e120 e5c9 382a     ......*..6 ...*8
    a410:	2384 3822 e184 98c9 8096 420f 0140 a086     .#"8.......B@...
    a420:	2700 0010 e803 0000 0064 0a00 0080 0100     .'......d.......
    a430:	0000 4000 0fc9 02db 0fc9 03db 0fc9 00db     ...@............
    a440:	0080 0200 72b1 0018 0fc9 01db cb96 03e5     .....r..........
    a450:	feff 0f00 24f4 1400 50c3 1100 00a0 0400     .....$...P......
    a460:	0080 0000 7795 6f7a 4b4f 480d 574f 0d3f     .....wzoOK.HOW?.
    a470:	4857 5441 0d3f 4f53 5252 0d59 0000 0000     WHAT?.SORRY.....
    a480:	0000 0000 f300 3ef5 3201 848f fbf1 4cc9     .......>.2.....L
    a490:	5645 4c45 322d 4320 4d4f 4150 4954 4c42     EVEL-2 COMPATIBL
    a4a0:	2045 4142 4953 2043 3156 312e 210d 83f8     E BASIC V1.1.!..
    a4b0:	0806 0036 0523 52c2 c9f1 917d 7c6f 6798     ..6.#..R..}.o|.g
    a4c0:	85c9 3e6f 8c00 c967 237e 6f66 cdc9 f00c     ..o>..g.~#fo....
    a4d0:	2cfe 13c2 13f2 0cc3 21f0 84a7 b77e cdc8     .,.......!..~...
    a4e0:	f188 c323 f17c 0d3e 7932 cd84 f9a0 21c9     ..#.|.>.2y.....!
    a4f0:	fe1b de22 3183 8600 17cd cd0f fa6c 2021     .."..1......l.! 
    a500:	cdff f17c 73cd 3efe 32c3 8488 8c32 3284     ..|..s.>.2..2..2
    a510:	849e c121 22f1 8489 0021 2286 8498 d8c3     ..!.."..!.."....
    a520:	21f1 8600 9822 f984 c121 22f1 8489 982a     .!.."...!.."..*.
    a530:	f984 4121 cdff f17c 113a cd84 f188 1ccd     ..!A..|.:.......
    a540:	21f0 f238 1d11 cd84 f00c 0dfe f5c2 cdf1     .!8.............
    a550:	fe6a ebc3 d5f4 be1a 09c2 13f2 231a c2be     j............#..
    a560:	f20a 23c1 cd13 f168 23e9 2323 d123 b77e     ...#..h..####.~.
    a570:	f5c2 21f1 ff44 7ccd c3f1 f1ce 5321 c3ff     ...!D..|....!S..
    a580:	f216 7c21 cdff f186 7ccd c9f1 8d21 c3ff     ..!|.....|..!...
    a590:	f225 9e21 c3ff f225 4142 feab 3142 feb1     %.!...%.BA..B1..
    a5a0:	4343 fdcd 4f43 fde2 4f47 f28d 4d44 f29b     CC..CO..GO..DM..
    a5b0:	4d43 f31c 4c43 f385 5942 0000 4d4d f38b     CM..CL..BY..MM..
    a5c0:	5453 f41c 5042 f4a0 5452 f4eb 464f f4fa     ST..BP..RT..OF..
    a5d0:	5243 f563 5244 f506 444c fdba 544c f5ed     CRc.DR..LD..LT..
    a5e0:	5443 f5e4 4342 f4c5 414b f670 cd00 fef9     CT..BC..KAp.....
    a5f0:	2aeb 8498 ebf9 cde5 fe96 cdc9 fef9 cde5     .*..............
    a600:	f00c 2cfe aec2 13f2 afcd c3f6 f2b3 0f3e     ...,..........>.
    a610:	61cd d1f1 efcd 21fe fe1b de22 af83 9d32     .a.....!.."...2.
    a620:	2184 84a7 c5e5 2036 cd23 feb7 c0cd c1fe     .!....6 #.......
    a630:	083e c5f5 cd1a f74c 2036 1323 0bc1 b178     >.....L.6 #...x.
    a640:	09ca f1f3 c23d f2d2 0036 cde1 f17c 9d3a     ....=...6...|.:.
    a650:	3c84 10fe 00c2 cdf3 fa53 0afe 10ca aff3     .<......S.......
    a660:	9d32 cd84 f186 c1c3 f1f2 0036 cde1 f17c     2.........6...|.
    a670:	86cd 21f1 fdfd de22 c383 8488 f9cd ebfe     ...!..".........
    a680:	a721 e584 c0cd cdfe fec0 b7cd 36fe 2320     !............6 #
    a690:	cd1a f74c c7cd e1fe 7ccd cdf1 f347 88ca     ..L......|..G...
    a6a0:	da84 f213 20c3 d5f3 1ccd d1f0 1c3a d684     ..... ......:...
    a6b0:	c802 11d5 841d c23d f365 fe1a ca20 f37a     ......=.e... .z.
    a6c0:	58fe 7eca cdf3 f6af fe1a c20d f382 b77c     .X.~..........|.
    a6d0:	82c2 d1f3 127d af13 c93d 13d1 c9b7 1bd1     ....}...=.......
    a6e0:	c9b7 37f1 cdc9 fa6c 88c3 cd84 fef9 cde5     ...7..l.........
    a6f0:	fef9 cde5 fef9 c1d1 d5c5 c5e5 50d5 cd59     .............PY.
    a700:	0e74 4d44 d1e1 74cd da0e f21c b778 c2fa     t.DM...t....x...
    a710:	50f3 cd59 f77f c2da c1f3 d1e1 22cd c3f9     .PY.........."..
    a720:	8488 e1c1 cdd1 f937 88c3 c584 21d5 ff63     ......7......!c.
    a730:	7ccd cdf1 f01c 1d21 7e84 c1d1 59fe 2ac9     .|....!..~...Y.*
    a740:	8600 012b 8600 f0c3 2af3 8802 012b 8800     ..+......*..+...
    a750:	21e5 84a7 1d11 1a84 fe13 ca0d f40f 2cfe     .!.............,
    a760:	f7c2 1af3 0dfe 0fca 77f4 2313 03c3 cdf4     .........w.#....
    a770:	f883 c5e1 cdd1 feef 25cd c9f4 e7cd cdfe     .........%......
    a780:	f425 88c3 cd84 f3cb cdc0 f840 cde5 f876     %.........@...v.
    a790:	78e1 c2b7 f43c fe79 da11 f451 cdc5 f468     .x..<.y...Q...h.
    a7a0:	103e 76cd c1f4 d679 4f10 de78 4700 31c3     >..v..y..Ox..G.1
    a7b0:	79f4 68cd cdf4 f476 6b21 cdff f879 7721     .y.h..v.!k..y.!w
    a7c0:	cdff f17c 6bcd c9f8 a721 3684 233a 36c9     ..|..k..!..6:#.6
    a7d0:	2330 3036 c923 cdf5 f74c b7cd cdfe f46f     0#60#...L.....o.
    a7e0:	47f1 8382 1a4f 4f81 c51a 4ccd c1f7 0513     .G..O..O...L....
    a7f0:	85c2 79f4 3c2f 4ccd cdf7 f883 76cd c9f8     ...y/<.L.....v..
    a800:	e3cd cdf4 ff00 d67c da80 f21c 50fe 1cd2     ......|......P..
    a810:	f3f2 1222 7e84 1032 3684 f3ff fd21 22fd     .."..~2..6..!.."
    a820:	83de 88c3 2a84 83de fd11 cdfd f793 88c2     .....*..........
    a830:	cd84 f4e3 1b21 22fe 83de 0021 2200 8412     ....!.."..!.."..
    a840:	88c3 2a84 8412 103a 7784 cdc9 fe6a 73cd     ...*..:..w..j..s
    a850:	2afe 8498 cdf9 fe96 c9fb 6acd cdfe fe9f     .*.........j....
    a860:	73cd c3fe f1c1 b021 06ff c508 35cd ebf5     .s....!......5..
    a870:	cde5 f168 e17e 2323 cdeb f74c 43cd c1f5     ..h.~.##..L..C..
    a880:	c205 f50b 0206 cdc5 f54b 43cd c1f5 c205     ........K..C....
    a890:	f526 88c3 1184 84a7 0501 cd00 0e5e cdeb     &...........^...
    a8a0:	fec0 cdc9 fecd 79cd ebf1 cdc9 f535 e5eb     .......y....5...
    a8b0:	68cd 4ef1 4623 23e1 eb23 cd78 f74c cd79     .h.N#F.##.x.L.y.
    a8c0:	f74c 21c9 ffb0 0806 cdc5 f535 e5eb 68cd     L..!......5....h
    a8d0:	44f1 e14d c50a ebe5 4ccd cdf7 fec7 79cd     .DM......L.....y
    a8e0:	ebf1 23e1 d123 cde5 f347 c1e1 88ca da84     ...##...G.......
    a8f0:	f213 c205 f568 4bcd cdf5 fec7 79cd cdf1     ....h..K.....y..
    a900:	f01c 1d11 cd84 f6af 9822 c384 8488 11d5     ........".......
    a910:	841d cdd5 fed9 1312 c205 f5b3 12af cdd1     ................
    a920:	f6af c9d1 8b3a 8584 3284 848b c97d 0206     ....:....2..}...
    a930:	aecd c9f5 0406 aecd cdf5 f5c4 12c9 c9af     ................
    a940:	1a4f c9b9 e021 cdf5 f5f9 88c3 cd84 f5f3     O...!...........
    a950:	88c3 cd84 e4ee dd21 22f5 848d c33e 8c32     ......!.."..>.2.
    a960:	cd84 f82f cbcd c0f3 d9cd fefe ca3a f616     ../.........:...
    a970:	67cd c3f6 f608 32af 848b cecd cdf5 f5c4     .g.....2........
    a980:	b747 57ca c5f6 d4cd ebf5 cecd c1f5 c2b7     G..W............
    a990:	f222 cdc5 f5ce c4cd cdf5 848c c2c1 f232     ".............2.
    a9a0:	0513 32c2 cdf6 f5ce 8b3a 2f84 bd3c 2cc2     ...2....:../<..,
    a9b0:	cdf2 f667 08c3 cdf6 f5d4 cecd 7df5 01fe     ..g..........}..
    a9c0:	2cc2 cdf2 f667 cdc9 fed9 0afe 67c2 c9f6     .,..g........g..
    a9d0:	6dcd 21f1 0e20 fe1a ca31 f684 30fe 13c2     .m.! ...1....0..
    a9e0:	21f2 0e00 da22 c383 8488 0000 0000 0000     .!.."...........
	...
    aa04:	0000 cdeb f6af 1422 eb84 c5c9 0021 0e00     ......".....!...
    aa14:	1aff c9cd daf6 f6c6 2929 2929 6fb5 c313     ........)))).o..
    aa24:	f6b5 c179 d6c9 da30 f6e7 0afe e2da d6f6     ..y...0.........
    aa34:	da11 f6e7 06fe e6d2 c6f6 0e0a c900 0eb7     ................
    aa44:	c900 c937 0000 0000 0000 0000 0000 0000     ..7.............
	...
    aaac:	0f47 0f0f cd0f f75d 2377 cd78 f75d 2377     G.....].w#x.].w#
    aabc:	e6c9 fe0f d20a f767 30f6 d6c9 f609 c940     ......g..0....@.
	...
    aadc:	0000 cd00 0e74 8ad2 cdf7 0e7b c937 b57c     ....t.....{.7.|.
    aaec:	7cc9 f2aa f793 7ceb c0ba bb7d e5c9 266c     .|.....|..}...l&
    aafc:	cd00 f7a4 7d41 67e1 ff0e cd0c 0e74 a6d2     ....A}.g....t...
    ab0c:	19f7 7cc9 f0b7 7bcd 780e 80ee c947 cbcd     ...|...{.x..G...
    ab1c:	c0f3 40cd 21f8 f88c 9f22 cd84 f805 1b3e     ...@.!..".....>.
    ab2c:	8ccd c9f8 cbcd c0f3 eecd cde4 f82f 1d11     ............/...
    ab3c:	d584 d9cd 12fe fe13 ca1b f800 0dfe dec2     ................
    ab4c:	cdf7 fed9 cdd1 f00c 75cd cdef f00c b9cd     .........u......
    ab5c:	c3e2 f7da cdd1 f86b 11c9 8806 22cd 3ee8     ......k......".>
    ab6c:	cd0a f88c 002a cd88 f793 c3c8 f808 ec21     ....*.........!.
    ab7c:	2284 849f 05cd c9f8 0e3e f932 3e7d 3240     ."......>.2.}>@2
    ab8c:	7df9 cdc9 f824 4e3e f932 3e7d 3204 7df9     .}..$.>N2.}>.2.}
    ab9c:	f83a c97d 24cd 3ef8 32ce 7df9 013e f932     :.}..$.>.2.}>.2.
    abac:	3a7d 7df8 3ac9 7df9 02e6 51ca 3af8 7df8     }:.}.:.}...Q.:.}
    abbc:	f5c9 f93a e67d ca01 f85e 32f1 7df8 3ac9     ..:.}...^..2.}.:
    abcc:	7df9 05e6 05ee 6bc2 c9f8 a721 7e84 c8b7     .}.....k..!..~..
    abdc:	8ccd 23f8 79c3 36f8 230d 0a36 3623 c900     ...#.y.6.#6.#6..
    abec:	0afe 94ca cdf8 f188 5dcd c9f8 0000 0000     .........]......
	...
    ac80:	0000 e5c5 74cd e50e d1c1 09e1 03eb 69cd     .....t.........i
    ac90:	c90e 0000 0000 d500 cdc5 0e74 e523 d1c1     ..........t.#...
    aca0:	cde1 0e5e 00c9 c5f5 e5d5 a3cd cdfd fa27     ..^...........'.
    acb0:	0afe 57c2 3ef9 320d 8479 0dfe 7cca fef9     ...W.>.2y....|..
    acc0:	ca13 fc2e 7ffe fcca fefc ca14 fd3c a0cd     ............<...
    acd0:	cdf9 fa18 08fe fcca c3fc f94d 73cd cdfd     ..........M..s..
    ace0:	fb1e a1cd 3efb 320d 8479 a0cd cdf9 fa18     .....>.2y.......
    acf0:	a8cd e1fd c1d1 c9f1 0000 0000 0000 0000     ................
    ad00:	c5f5 e5d5 7d2a e584 cdc1 fa62 793a fe84     ....*}....b.:y..
    ad10:	ca0d f9db 08fe ebca fef9 da20 faf7 90cd     .......... .....
    ad20:	c5fd f507 4707 78f1 b71f c11f 0c77 fe79     .....G.x....w.y.
    ad30:	da21 fa0b cd78 fb4c dbc3 0ef9 0401 fe78     !...x.L.......x.
    ad40:	da11 fa0b cd05 fa92 0bc3 cdfa fb1e c20d     ................
    ad50:	fa0b cd05 fb41 09c2 c3fa fa04 c20d fa0b     ....A...........
    ad60:	c205 fa09 0c04 0bc3 0efa c520 22e1 847d     .......... .."}.
    ad70:	b9cd e1fa c1d1 c9f1 2ae5 847f 7ef5 8132     .........*...~2.
    ad80:	cd84 fdad e1f1 3ac9 0223 cdfe 53c2 e5fa     .......:#....S..
    ad90:	cdc5 0223 e1c1 fffe 44ca fefa ca15 fa44     ..#......D....D.
    ada0:	10fe 00d0 fe3a cd7d f0ad 20e6 2fca 3afa     ....:.}.... ./.:
    adb0:	7dfc 3ac9 7dfe adcd e6f0 ca20 fa53 fc3a     .}.:.}.... .S.:.
    adc0:	c97d b9cd 2afa 847f 00c9 0000 c5e5 21f5     }....*.........!
    add0:	7e00 0001 3602 2320 790b c2b0 fa75 8321     .~...6 #.y..u.!.
    ade0:	7784 772b 362b 2120 0101 7d22 f184 e1c1     .w+w+6 !.."}....
    adf0:	00c9 d5c5 2021 117e 7e00 e001 7e01 2312     ....! ~..~...~.#
    ae00:	0b13 b079 9dc2 3efa 0620 1220 0513 abc2     ..y....> . .....
    ae10:	cdfa fb7a c1d1 00c9 c500 e5d5 16f5 0100     ..z.............
    ae20:	7e00 7d2a 7c84 2d3d 6feb 2929 2929 7d29     .~*}.|=-.o)))))}
    ae30:	6f83 2209 847f e1f1 c1d1 00c9 d5c5 f5e5     .o."............
    ae40:	7d3a 4784 213e 4f90 62cd 36fa 2320 c20d     :}.G>!.O.b.6 #..
    ae50:	faeb e1f1 c1d1 cdc9 fb1e 11fe fcca fef9     ................
    ae60:	ca10 f9cd 12fe 28ca fefb ca17 f9dd 16fe     .......(........
    ae70:	16ca c3fb f9be c205 fa0b c304 fa0b 2af5     ...............*
    ae80:	847f 813a 7784 c9f1 6ccd c3fa fa10 40fe     ..:..w...l.....@
    ae90:	39d2 fefb d020 40f6 f6c9 fe80 d8e0 bfe6     .9.. ..@........
    aea0:	e5c9 cdc5 fb61 7e4f c1a1 c9e1 c5e5 61cd     ....a.O~.......a
    aeb0:	b6fb c177 c9e1 c5e5 61cd 2ffb 77a6 e1c1     ..w......a./.w..
    aec0:	21c9 8482 fe78 da09 fb6e 08d6 2347 72cd     .!..x...n...G#.r
    aed0:	c9fb 37af 0517 74c2 c9fb 8321 7e84 771f     ...7...t..!..~.w
    aee0:	2bf5 7ef1 771f c5c9 203e 7d32 cd84 fa62     .+.~.w..> 2}..b.
    aef0:	1f06 fe7e c220 fb9d 052b 92c2 78fb c13c     ..~. ...+....x<.
    af00:	cdc9 fbbf 1d11 4784 3c3c 1c32 fe84 c802     .......G<<2.....
    af10:	cd7e fb2e 1312 0523 b0c2 3efb 120d 21c9     ~.....#....>...!
    af20:	847d 0136 0006 7e23 cdf5 fc0f 62cd 78fa     }.6...#~.....b.x
    af30:	03fe e1da f1fb 7e3a c684 3203 847e 4f3e     ......:~...2~.>O
    af40:	f1c9 02cd 78fc 03fe d6d2 79fb 7e32 af84     .....x.....y2~..
    af50:	0504 faca c6fb c320 fbf1 e54f 87cd e1fb     ...... ...O.....
    af60:	c981 c54f cd41 fb41 c8c1 0c04 03c3 c5fc     ..O.A.A.........
    af70:	0546 41cd c1fb 04c8 c335 fc0f 7e3a 0684     F..A....5...:~..
    af80:	f500 02cd f1fc 3280 847e 87cd c9fb 863a     .......2~.....:.
    af90:	2f84 8632 cd84 fa62 adcd c3fd f94d 7d2a     ./2...b.....M.*}
    afa0:	e584 b9cd cdfa fb1e e5e5 1ccd fefc c220     .............. .
    afb0:	fc74 23e5 fe7c da80 fc68 e1e1 22e1 847f     t..#|...h...."..
    afc0:	22e1 847d 18cd c9fa 3ae5 847e d2cd e1fc     ."}......:~.....
    afd0:	91cd e1fc 42d1 034b cde5 f77f dae1 fc83     .....BK.........
    afe0:	22cd e1f9 7f22 3684 cd20 fa18 22e1 847d     .".."..6 ...."}.
    aff0:	e5c9 01e5 0020 d109 c1e5 fe78 ca80 fca6     .... .....x.....
    b000:	df21 cd7f f922 06e1 3620 2320 c205 fca9     !..."... 6 #....
    b010:	47c9 c5d5 5f7e f517 cd57 fb72 b3f5 f15f     .G..~_..W.r..._.
    b020:	3d17 2f47 4f17 a17a 7b57 5fa0 77b2 c1f1     .=G/.Oz.W{._.w..
    b030:	c9d1 8221 fe84 ca08 fce6 f1d2 cdfc fcb1     ..!.............
    b040:	23f5 c3f1 fcec f67e 7780 b723 177e f8c3     .#....~..w#.~...
    b050:	23fc 08d6 b1cd 7efc 7fe6 c977 7d2a e584     .#.....~..w.*}..
    b060:	b9cd cdfa fb1e e5e5 1ccd d1fc 74cd eb0e     .............t..
    b070:	2eda 7afd cab3 fd2c cde5 f77f cae1 fd2c     ...z..,.......,.
    b080:	2eda d5fd e5c1 23d1 5ecd 2b0e 2036 22e1     .......#.^.+6 ."
    b090:	847f 18cd e1fa 7d22 c384 f94d 7d2a e584     ......"}..M.*}..
    b0a0:	7f2a e584 e5e5 1ccd d1fc 7fcd 45f7 e104     *............E..
    b0b0:	2036 0523 50c2 e1fd 7f22 cd84 fa18 7e3a     6 #..P..".....:~
    b0c0:	e184 7d22 9484 444f 56cd 04fb c20d fd68     .."}..OD.V....h.
    b0d0:	4dc3 3af9 8486 c8b7 7d3a 4f84 213e f591     .M.:....:}.O>!..
    b0e0:	3ecd f1fc c23d fd7f 7e3a 4784 56cd c9fb     .>..=...:~.G.V..
    b0f0:	c5f5 e5d5 863a b784 9eca cdfd fc3e d1e1     ....:.......>...
    b100:	f1c1 cdc9 fa62 1f36 32af 8486 3ac9 8486     ....b.6..2...:..
    b110:	c2b7 fdb7 1f36 36c9 c980 fadb 80e6 c8ca     ....6..6........
    b120:	3efd d30e c3fb 8488 0f3e c3c3 3afd 7dfe     .>......>....:.}
    b130:	02e6 ddca 3efd 3202 7dff 88c3 3e84 c303     .....>.2.}...>..
    b140:	fdd7 fe3a e67d c201 fdef 013e d7c3 affd     ..:.}.....>.....
    b150:	d7c3 22fd 8498 142a cd84 fe8d f3c9 1422     ..."..*.......".
    b160:	2184 0000 cd39 fdf3 122a eb84 2be3 93cd     .!..9...*....+..
    b170:	c2f7 fe66 103a 7784 27c3 f3fe 1422 2184     ..f.:..w.'.."..!
    b180:	0000 cd39 fdf3 22e3 849a 21eb 84a7 2336     ..9...."...!..6#
    b190:	cd23 feb7 cdcd cdfe f179 9c3a b784 54ca     #.......y.:....T
    b1a0:	3dfe 9c32 ca84 fe54 982a f984 9a2a e384     .=2...T.*...*...
    b1b0:	96cd c9fe 9a2a e384 79cd 3bfe 213b f1ce     ....*....y.;;!..
    b1c0:	8922 c384 f1ce c323 fe27 113a fe84 c024     ".....#.'.:...$.
    b1d0:	13c3 3ef2 3224 8411 3ec9 c32a fe75 113a     ...>$2...>*.u.:.
    b1e0:	fe84 c824 4421 cdff f17c cec3 cdf1 d2fe     ..$.!D..|.......
    b1f0:	e1f5 9622 c984 962a e584 cdf1 d30e 21c9     .."...*........!
    b200:	8490 0c06 0036 c205 fea4 cdc9 fe7e 00c3     ....6.......~...
    b210:	cde0 fe7e 00c3 7a10 4ccd 7bf7 4ccd c9f7     ..~....z.L.{.L..
    b220:	203e 2377 2377 36c9 232d 0036 36c9 230d     > w#w#.6-#6..6.#
    b230:	0036 d5c9 51cd d1f8 cdc9 fed3 0afe d5c8     6....Q..........
    b240:	cdf5 f188 d1f1 cdc9 fef9 cde5 fef9 cdd1     ................
    b250:	0e74 1cda 44f2 034d cdc9 f16d afcd c9f6     t....DM...m.....
    b260:	32af 849c 6dcd cdf1 f00c 2cfe fcc2 f1fe     .2...m.....,....
    b270:	cd13 f6af b77c 13c2 7df2 9c32 c384 8488     ....|....}2.....
    b280:	2a2a 4b54 382d 4230 2053 4f4d 494e 4f54     **TK-80BS MONITO
    b290:	2052 4953 554d 414c 4954 4e4f 2a2a 0d0d     R SIMULATION**..
    b2a0:	4000 000d 5953 544e 5841 4520 5252 524f     .@..SYNTAX ERROR
    b2b0:	0d0d 4100 4444 4552 5353 4520 5252 524f     ...ADDRESS ERROR
    b2c0:	0d0d 5200 4145 5944 0d3f 3a00 3030 3030     ...READY?..:0000
    b2d0:	3030 3130 0a0d 4500 444e 000d 4154 4550     0001...END..TAPE
    b2e0:	5220 4145 2044 5245 4f52 0d52 4300 4548      READ ERROR..CHE
    b2f0:	4b43 5320 4d55 4520 5252 524f 000d 4f43     CK SUM ERROR..CO
    b300:	504d 5241 5349 4e4f 4520 5252 524f 000d     MPARISON ERROR..
    b310:	2020 2d20 9641 2084 2020 422d 8493 2020        -A..   -B..  
    b320:	2d20 9243 2084 2020 442d 8495 2020 2d20      -C..   -D..   -
    b330:	9445 2084 2020 482d 8491 2020 2d20 904c     E..   -H..   -L.
    b340:	2084 462d 474c 8496 2020 532d 9850 2084     . -FLG..  -SP.. 
    b350:	2d20 4350 849a 00ff 0000 0000 0000 0000      -PC............

0000b360 <l2basic_rom>:
    b360:	2ae5 8494 237e 9422 e184 2ac9 86a2 2323     .*..~#"....*..##
    b370:	c923 0ecd 7ed0 e5c9 12cd e1d0 2bc9 2b2b     #....~.......+++
    b380:	cdc9 d2fe 7aeb 3eb7 f210 d031 45cd 3ed0     .....z.>..1..E.>
    b390:	2a90 86a2 0bcd 77d0 2daf 2d77 2d73 cd72     .*.....w.-w-s-r.
    b3a0:	d2d1 0ec3 3ed3 aaff 3e57 abff 135f cdc9     .....>..W>.._...
    b3b0:	d2fe a22a cd86 d012 e647 cd7f d373 92ca     ..*.....G...s...
    b3c0:	fad0 d092 2b2b 2b5e d656 4f10 89ca b7d0     ....++^+V..O....
    b3d0:	1f7a 7b57 5f1f c20c d06f b778 82f2 cdd0     z.W{._..o.x.....
    b3e0:	d045 cdd5 d30e afe1 78c9 91fe e1ca c3e1     E........x......
    b3f0:	d082 0ecd 21d3 0000 c9af d421 cdf0 d2fe     .....!....!.....
    b400:	2aeb 86a2 cdeb d31b 0ec3 cdd3 d2fe 2aeb     .*.............*
    b410:	86a2 1bcd c3d3 d30e fecd 0ed2 cd6f d11a     ............o...
    b420:	0ec3 cdd3 d2fe 6f0e 1ecd c3d1 d30e fecd     .......o........
    b430:	0ed2 cd6f d21a e4c3 cdd0 d2fe 6f0e 77cd     ..o..........o.w
    b440:	c3d2 d0e4 69f5 2aeb 86a2 cdeb d31b 0ecd     .....i.*........
    b450:	f1d3 cdc9 d2fe 6f0e c8cd cdd4 d30e c91b     .......o........
    b460:	fecd 21d2 8633 6f0e 62cd c3d6 d30e c3cd     ...!3..o.b......
    b470:	cdd0 d329 cdc8 d017 c907 c3af d120 803e     ..)......... .>.
    b480:	33cd cdd4 d331 cdc8 d388 5aca 57d1 3dda     .3..1......Z.W.=
    b490:	93d1 7fe6 5d57 2c69 6873 42c3 7bd1 e692     ....W]i,sh.B.{..
    b4a0:	577f 183e d2ba d14a 1816 cdb7 d340 c215     .W>...J.....@...
    b4b0:	d14a b87d 5ac2 69d1 6e2c becd cdd1 d433     J.}..Z.i,n....3.
    b4c0:	02fe 68c2 c3d1 d4b6 0116 caa2 d194 2bcd     ...h...........+
    b4d0:	cad4 d177 687d cd47 d35e accd cdd1 d42b     ..w.}hG.^.....+.
    b4e0:	d1ca 7dd2 4768 4879 475d 50cd 78d4 4f41     ...}hGyH]G.P.xAO
    b4f0:	c36b d2d1 88cd d2d3 d19d 65cd cdd4 d1ac     k..........e....
    b500:	47cd d2d3 d416 40cd c3d3 d3fa 695d e67e     .G.....@....]i~.
    b510:	6b80 0ecd 5fd0 e67e 837f c377 d01d e9cd     .k..._~...w.....
    b520:	bbd3 f0da c2d1 d1f9 da83 d1de 25cd f2d4     .............%..
    b530:	d202 38cd dad4 d210 04c2 3ed2 c902 25cd     ...8.......>...%
    b540:	f2d4 d20a 38cd dad4 d207 0dc2 c3d2 d1db     .....8..........
    b550:	25cd fad4 d202 d2c3 cdd1 d425 0afa c3d2     .%........%.....
    b560:	d1e4 c9af 013e 3ec9 c903 803e 3ec9 c981     ....>..>..>..>..
    b570:	833e cdc9 d388 c3c0 d438 dacd cdd3 d329     >.......8.....).
    b580:	c1ca cdd4 d331 c1ca 5dd4 cd69 d357 166b     ....1....]i.W.k.
    b590:	cd18 d340 5eda 7dd2 4f69 40cd 7dd3 4f69     ..@..^.}iO.@.}iO
    b5a0:	c215 d231 25cd fad4 d3aa 695d 38cd 6bd3     ..1..%....]i.8.k
    b5b0:	79cd 83d3 80fe d3ca d6d3 c301 d3b5 697d     .y............}i
    b5c0:	cd4f d347 3ada 7ad2 c23d d23a 697d 2323     O.G..:.z=.:.}i##
    b5d0:	3523 4f69 44c3 cdd2 d3da 29cd c2d3 d289     #5iO.D.....)....
    b5e0:	31cd cad3 d4af c1c3 cdd4 d331 ccca 5dd3     .1........1....]
    b5f0:	cd69 d357 cd6b d396 cd69 d338 1716 cd6b     i.W.k...i.8...k.
    b600:	d390 ca15 d2b2 697d cd4f d338 597d c34f     ......}iO.8.}YO.
    b610:	d29e 25cd fad4 d2c3 697d cd4f d338 6b4d     ...%....}iO.8.Mk
    b620:	b1c3 cdd3 d379 fe93 ca7f d3cc 01c6 b5c3     ....y...........
    b630:	5dd3 6ecd 57d3 cd6b d329 b6ca 7ed4 fab7     .].n.Wk.)....~..
    b640:	d2ef fe7a cac0 d471 38cd 15d3 ddc3 c3d2     ..z...q..8......
    b650:	d407 cd5d d00e 77af 166b c318 d2d7 9022     ..]....wk.....".
    b660:	6084 2269 8492 22eb 8494 902a c984 942a     .`i"..."..*...*.
    b670:	eb84 922a 4484 2a4d 8490 06c9 7e04 2312     ..*..DM*.....~.#
    b680:	0513 1dc2 c9d3 a22a 2386 7e23 b62d b62d     ......*..##~-.-.
    b690:	5dc9 cd68 d329 c96b 2323 cdb7 d8bd c923     .]h.).k.##....#.
    b6a0:	cd5d d8d6 6b2b d5c9 54e5 135d 6813 2323     ]...+k...T]..h##
    b6b0:	b6cd e1d7 5dd1 afc9 d7cd 2dd5 c92d e5d5     .....].....--...
    b6c0:	5d54 1313 2368 cd23 d7ac d1e1 c95d 12cd     T]..h##.....]...
    b6d0:	e6d0 c67f ee40 b740 5dc9 cd68 d36e 5f6b     ....@.@..]h.n.k_
    b6e0:	6ecd cdd3 d01d c957 79cd 57d3 1793 c97a     .n....W..y.W..z.
    b6f0:	38cd dad3 d39d 38cd d2d4 d39d cdc9 d35e     .8.....8......^.
    b700:	695d 2323 c67e 7701 c96b 79cd 83d3 b5c3     ]i##~..wk..y....
    b710:	cdd3 d379 fe93 da40 d3c4 80fe ccda fed3     ..y...@.........
    b720:	dac0 d3d3 695d cd57 d407 c96b 695d 7fcd     ....]iW...k.]i..
    b730:	6bd4 5dc9 cd69 d471 c96b e9cd abd3 e1c3     .k.]i.q.k.......
    b740:	5dd3 cd69 d00e 6b77 5dc9 cd68 d012 80e6     .]i...wk.]h.....
    b750:	5f6b 12cd e6d0 c380 d01d 6ecd fed3 ca3f     k_.........n..?.
    b760:	d484 1457 0ac3 cdd4 d00e 7f3e 57a2 e67e     ..W.......>..W~.
    b770:	b280 cd77 d01d c9af 6ecd fed3 cac0 d476     ..w......n....v.
    b780:	1557 0ac3 5dd4 7e69 6bb7 5dc9 1669 7e02     W....]i~.k.]i..~
    b790:	a26b 5dc9 7769 c96b d5e5 5d54 1a68 c2be     k..]iwk...T]h...
    b7a0:	d44d 1323 be1a 4dc2 23d4 1a13 d1be c9e1     M.#....M.#......
    b7b0:	0416 7e69 776b 1c0c c215 d452 d67b 5f04     ..i~kw....R.{.._
    b7c0:	d679 4f04 5dc9 cd68 d012 cd6b d00e 6b77     y..O.]h...k...wk
    b7d0:	16c9 cd40 d497 003e 90cd 3ed4 b7ff 16c9     ..@...>....>....
    b7e0:	cd3f d497 ff3e 90cd 3ed4 b77f e1c3 c9e1     ?...>....>......
    b7f0:	772d 772d 772d cdc9 d012 80e6 77b2 16c9     -w-w-w.......w..
    b800:	cd3f d497 ff3e 90cd 3ed4 b73f e1c3 5de1     ?...>....>?....]
    b810:	cd69 d49f c96b 0ecd 36d0 af40 90cd b7d4     i...k....6@.....
    b820:	5dc9 cd69 d4b6 c96b 7945 0fc6 706f 0c0c     .]i...k.Ey..op..
    b830:	d3cd 2cd5 cd77 d56b fefe 28ca fed5 ca15     ...,w.k....(....
    b840:	d53f b8cd cdd5 d632 7fe6 e65f 0740 47b7     ?.....2..._.@..G
    b850:	ca7b d4f7 803e 8093 2e77 cdf8 d63d 32cd     {...>...w...=..2
    b860:	e6d6 fe3f fa05 d511 17cd d6d6 7705 01c3     ..?..........w..
    b870:	2ed5 cdfc d63d 32cd e6d6 b73f bcca cdd5     ....=..2..?.....
    b880:	d617 01d6 c377 d519 30c6 2d69 362d cd00     ....w....0i--6..
    b890:	d5b2 695f 2d2d cd46 d632 7b70 ddc3 cdd4     .._i--F.2.p{....
    b8a0:	d5b8 bccd cdd5 d5d3 6bcd 69d5 2323 e67e     .........k.i##~.
    b8b0:	471f 7e2c 78b7 5cfa 3ed5 9000 862c 7977     .G,~.x.\.>..,.wy
    b8c0:	0dc6 6e6f cd7c d64b e5c3 cdd4 d000 20fe     ..on|.K........ 
    b8d0:	6bca fed5 c22d d581 cd69 d00e 8036 b2c3     .k..-...i...6...
    b8e0:	fed5 ca2b d56b 30d6 fef8 f00a f55f 30c6     ..+.k..0...._..0
    b8f0:	cdf1 d5cd cd73 d5dd c0b7 cdcd 69d5 2323     ....s........i##
    b900:	7786 7e2d 00ce 2d77 ce7e 7700 2dd8 462d     .w-~..w-~..w.--F
    b910:	7004 00cd c3d0 d586 c369 d2f9 c679 6f0d     .p......i...y..o
    b920:	6b5e 712c 4b69 cd7c d64b b74f 79c9 0ec6     ^k,qiK|.K.O..y..
    b930:	7e6f 69c9 77af 772c 772c 772c 1ec9 cd01     o~.i.w,w,w,w....
    b940:	d605 2d69 c679 4f09 cd7c d64b d679 4f09     ..i-y..O|.K.y..O
    b950:	021e 2d69 09cd 69d6 c679 470a 47cd 2dd3     ..i-...iy..G.G.-
    b960:	687e 8e2d 69c9 af2d 1d77 cdf8 d00e cdb7     ~h-..i-.w.......
    b970:	d8bd 177e 08c3 cdd6 d632 455f 6904 c679     ..~.....2._E.iy.
    b980:	4f09 e67b ca80 d637 1acd 79d2 6f4d cd7c     .O{...7....yMo|.
    b990:	d64b 2c69 12c3 cdd0 d277 2bc3 79d6 05c6     K.i,....w..+.y..
    b9a0:	3e4f cdf0 d64b d679 4f05 44c9 7e67 562c     O>..K.y..O.Dg~,V
    b9b0:	5e2c 6e2c 4560 7769 7e2c 2c72 2c73 c970     ,^,n`Eiw,~r,s,p.
    b9c0:	c937 cdd5 d679 2036 3623 eb00 a42a eb86     7...y.6 #6..*...
    b9d0:	74cd eb0e 732b d135 cdc9 d329 89c2 2ad6     .t..+s5...)....*
    b9e0:	86a4 2036 3623 2330 e5c9 f6cd e1d8 60cd     ..6 #60#.......`
    b9f0:	fed8 d214 d7cd 32af 8699 8a11 cd86 d31b     .......2........
    ba00:	8d21 4686 a42a 3686 7820 80e6 b5ca 36d6     !..F*..6 x.....6
    ba10:	782d 7fe6 2347 3036 e678 ca40 d6cd 3e23     -x..G#60x.@...#>
    ba20:	9080 cd47 d8cc c205 d6c3 eec3 78d6 c2b7     ..G..........x..
    ba30:	d6d6 c323 d6ee aacd 05d8 d6c2 06d6 1106     ..#.............
    ba40:	f0bc 4bcd cdd7 d903 3ec8 3201 8699 863a     ...K.....>.2..:.
    ba50:	4786 063e c290 d704 8a3a 0786 e5d0 cd2b     .G>.....:.....+.
    ba60:	d91e c9e1 3647 af2e 8932 3c86 8632 2286     ....G6..2..<2.."
    ba70:	869a 6acd 7ed8 30fe 1fc2 2bd7 15c3 fed7     ...j.~.0...+....
    ba80:	c82e 7823 c0b7 993a b786 e5c0 9a2a 2386     ..#x..:.....*..#
    ba90:	e17e 30fe afc0 9232 3286 8686 a22a cd86     ~..0..2..2..*...
    baa0:	d017 53cd cdd8 d80b 4dc3 d5d8 72cd d1d7     ...S.....M...r..
    bab0:	1313 0513 4bc2 3ad7 8686 c2b7 d76a 893a     .....K.:....j.:.
    bac0:	b786 6aca 3ed7 3201 8686 893a c686 7730     ...j.>.2..:...0w
    bad0:	c923 000e 21e5 8689 cdeb d792 3ae1 8686     #....!.......:..
    bae0:	c2b7 d78c b779 78c8 323c 8686 303e 7781     ....y..x<2..>0.w
    baf0:	c923 d5e5 9ecd d1d7 d8e1 c30c d792 d5e5     #...............
    bb00:	cdb7 d7ac e1d1 cdd0 d7b6 c937 c1cd cdd7     ..........7.....
    bb10:	d7c1 c1cd c9d7 cdb7 d7c7 c7cd cdd7 d7c7     ................
    bb20:	1ac9 129e 1b2b 1ac9 128e 1b2b e5c9 d921     ....+.....+...!.
    bb30:	22d0 8694 2d21 22d8 8697 afe1 9232 cd86     ."..!-."....2...
    bb40:	d017 40e6 47c2 cdd8 d7f1 923a cd86 f74c     ...@.G....:...L.
    bb50:	3ac9 8692 06c6 3227 8692 f421 cdf0 db44     .:....'2..!...D.
    bb60:	93cd cd86 d860 14fe f1d2 cdd7 d815 96cd     ....`...........
    bb70:	36d6 2345 c3c9 8696 923a c686 2701 9232     .6E#....:....'2.
    bb80:	2186 f0fc 44cd cddb 8693 15c3 cdd8 d017     .!...D..........
    bb90:	04fe c2d8 d818 fe7e d8a0 18c3 e5d8 6ecd     ......~........n
    bba0:	e1d3 f03d 18c3 cdd8 d853 f1cd 36d7 232d     ..=.....S....6-#
    bbb0:	eac3 21d7 d0ce 9422 2186 d83d 9722 c986     ...!.."..!=."...
    bbc0:	cde5 d36e 3de1 2ff0 c93c cd23 d87c 30c6     ..n..=./<.#.|..0
    bbd0:	cd77 d903 05c8 6ac2 c3d8 d90c c5e5 a2cd     w......j........
    bbe0:	cdd8 d8e5 a2cd cdd8 d8a2 8c11 2186 8691     .............!..
    bbf0:	b6cd cdd7 d7c7 893a 4f86 32af 8689 c179     ......:..O.2..y.
    bc00:	c9e1 21e5 868c c3b7 d8b5 21e5 868c cdb7     ...!.......!....
    bc10:	d8c7 c7cd cdd8 d8bd c7cd e1d8 cdc9 d8c7     ................
    bc20:	c7cd cdd8 d8c7 7ec9 7717 c92b 21e5 868a     .......~.w+..!..
    bc30:	cdb7 d8d6 c9e1 e0cd cdd8 d8e0 e0cd c9d8     ................
    bc40:	1f7e 2377 21c9 868c 9111 0686 7e04 2b12     ~.w#.!.......~.+
    bc50:	051b edc2 c9d8 8621 0686 360c 0500 c223     ......!....6..#.
    bc60:	d8fb e5c9 8a21 cd86 d329 c9e1 8a3a 0786     ....!...)...:...
    bc70:	e5d0 a42a 2386 e17e 39fe 1ec2 c9d9 c5e5     ..*..#~..9......
    bc80:	fe7e ca39 d93a 2efe 3cca fed9 ca20 d941     ~.9.:....<.. .A.
    bc90:	2dfe 41ca c1d9 3404 c9e1 3036 052b 20c3     .-.A...4..60+.. 
    bca0:	36d9 c131 c9e1 cd87 f161 68cd e9f1 cde1     .61.....a..h....
    bcb0:	d954 c9d1 2fcd 3ada 86a0 01e6 75ca cdd9     T..../.:.....u..
    bcc0:	d326 e1ca cde1 d975 55cd c3db de81 26cd     &.....u..U.....&
    bcd0:	c8d3 45cd cdde d326 cdc8 de3d fdcd 21dd     ...E..&...=....!
    bce0:	0011 21cd 01d0 000f a22a c586 c5e5 16cd     ...!....*.......
    bcf0:	e1de 21cd cdd0 de23 d9cd c1d0 41c5 c3cd     ...!..#......A..
    bd00:	cdd0 de06 55cd d1db 1bcd cdd3 ddfd 79c1     .....U.........y
    bd10:	0b0b c23d d988 a23a d686 320c 86a2 a22a     ..=...:....2..*.
    bd20:	c986 cde1 d9c8 c9d1 2fcd e6da 2103 d9e4     ........./...!..
    bd30:	46c3 e1d9 d9cd d1d9 cdc9 da2f 03e6 e621     .F......../...!.
    bd40:	c3d9 d946 d9ee d9f8 da10 da16 d9ee 1ccd     ..F.............
    bd50:	cdda de59 c3c9 d0d9 1ccd 21da f0e0 9dcd     ..Y........!....
    bd60:	cdd0 de23 d9cd 21d0 f0cc 44cd c3db d0c3     ..#....!...D....
    bd70:	eecd c3d9 de81 f8cd c3d9 de81 6ecd cdd9     .............n..
    bd80:	de99 cc21 cdf0 db44 b8cd cdd0 de09 afc9     ..!...D.........
    bd90:	a032 cd86 d326 cdc8 dde8 e821 cdf0 db44     2...&.....!...D.
    bda0:	d9cd 21d0 f100 44cd cddb d0b8 c8cd cdde     ...!...D........
    bdb0:	d04f a022 2186 869c abcd 21d0 dff3 44cd     O."..!.....!...D
    bdc0:	cddb d0ce f721 cddf db44 d9cd cdd0 de09     ....!...D.......
    bdd0:	c3cd cdd0 ddeb 9c21 cd86 d09d 0421 cdf1     ......!.....!...
    bde0:	db44 cecd cdd0 de09 b8cd 3ad0 86a0 e1c9     D..........:....
    bdf0:	95cd d1da e5c9 12cd b7d0 d7fa e1da e8cd     ................
    be00:	21dd f0cc 44cd cddb d10e d1da 21da f0cc     .!...D.......!..
    be10:	9dcd 3ad0 86a2 04d6 2a47 86a2 d9cd cdd0     ...:....G*......
    be20:	dae1 09cd 21de f0e8 9dcd cdd0 de23 c3c3     .....!......#...
    be30:	cdd0 de09 e1c3 e6da 777f cde1 da9e 81c3     .........w......
    be40:	cdde de99 fdcd 21dd f0d0 9dcd cdd0 de16     .......!........
    be50:	0821 e500 21cd 2ad0 86a2 2bcd cdde de23     !....!.*...+..#.
    be60:	cecd cdd0 ddeb a22a cd86 de59 23cd cdde     ......*...Y..#..
    be70:	d0b8 cc21 cdf0 db44 b8cd cdd0 de09 d9cd     ..!...D.........
    be80:	3ad0 86a2 04d6 cd47 d0ce 3dcd e1de c22d     .:....G....=..-.
    be90:	daf3 cc21 cdf0 db44 b8cd 45d0 cdc5 de16     ..!...D....E....
    bea0:	c3c1 d0d9 ebcd cddd d09d 09c3 cdde d012     ................
    beb0:	fab7 e1e1 45c9 cdc5 ddeb cc21 cdf0 d09d     .....E....!.....
    bec0:	2ac1 86a2 d9cd c3d0 de06 cd45 ddeb a22a     .*........E...*.
    bed0:	cd86 d0d9 06c3 e1de 29cd cad3 e1e1 83cd     .........)......
    bee0:	d1db e5c9 4dcd cddb d373 a1f2 e1db cd45     .....M..s.....E.
    bef0:	db55 cde5 d00e 367e e102 a4cd cddb de78     U.....~6......x.
    bf00:	36c9 e102 cdf5 dc1e 09cd 0edc c50a 23cd     .6.............#
    bf10:	cdde d0ce 34cd cdde ddf4 e021 cdf0 db44     .....4....!...D.
    bf20:	b8cd 3ad0 86a2 d647 320c 86a2 a22a cd86     ...:..G..2..*...
    bf30:	d0d9 09cd cdde d0b8 f4cd c1dd c20d dbad     ................
    bf40:	16cd cdde de5f ebcd 21dd f0e4 9dcd cdd0     ...._....!......
    bf50:	ddeb 6ff1 0026 fe11 19ff 21cd cdd0 de09     ...o&......!....
    bf60:	cecd cdd0 de09 b8c3 cdd0 de3d f4cd cddd     ..........=.....
    bf70:	de99 ebcd 21dd f0cc 9dcd c3d0 de16 3dcd     .....!.........=
    bf80:	21de f0cc 44cd cddb d0c3 f4cd 21dd f0cc     .!...D.......!..
    bf90:	44cd cddb d0b8 c545 16cd c1de d9c3 e1d0     .D....E.........
    bfa0:	cde5 db4d 73cd b7d3 5cca f2dc dc52 c3af     ..M..s...\..R...
    bfb0:	dc5c 0136 b73d d21f dc5c 0236 f5e1 e8cd     \.6.=...\.6.....
    bfc0:	0edd c50a 2bcd cdde de09 e8cd cddd de23     .....+........#.
    bfd0:	d9cd cdd0 d0b8 45cd c1de c20d dc63 06cd     .......E....c...
    bfe0:	f1de e547 12cd 80d0 e177 c9d1 26cd c8d3     ..G.....w....&..
    bff0:	e421 cdf0 db44 d9cd cdd0 dde8 bdcd cdde     !...D...........
    c000:	d04f 327d 868e 09cd cdde de23 c3cd 21d0     O.}2......#....!
    c010:	f0e4 44cd c3db d0ce cde1 dcbe c9d1 17cd     ...D............
    c020:	b7d0 cef2 cddc de81 cecd c3dc db55 32af     ............U..2
    c030:	868e 8ccd cddc dceb cde5 d00e 8e3a b786     ............:...
    c040:	e7c2 3cdc e8c3 86dc e177 cdc9 de99 f4cd     ...<....w.......
    c050:	21dd 001e 21cd e5d0 16cd cdde dde8 23cd     .!...!.........#
    c060:	cdde d0d9 7de1 04d6 02fe 25ca 6fdd cde5     .....}.....%.o..
    c070:	ddeb 21cd cdd0 de09 b8cd cdd0 de2b ebcd     ...!........+...
    c080:	e1dd f7c3 21dc f0e0 44cd cddb d0b8 34cd     .....!...D.....4
    c090:	e5de 16cd d1de 1bcd cdd3 de23 b8cd cdd0     ..........#.....
    c0a0:	ddf4 23cd cdde d0c3 16cd c3de d0d9 17cd     ...#............
    c0b0:	b7d0 64fa cddd d329 6dc2 cddd de09 cc21     ...d..)..m....!.
    c0c0:	c3f0 d09d 81cd cdde dd6d 55c3 cddb dde8     ........m..U....
    c0d0:	e8cd cddd debd 09cd cdde d10e c5ca cddd     ................
    c0e0:	de09 4fcd e5d0 ebcd 2add 86a2 34cd cdde     ...O.....*...4..
    c0f0:	de16 3dcd cdde ddf4 a22a cd86 db83 09cd     ...=....*.......
    c100:	cdde d0ce cecd cddc de2b 7ce1 cab5 ddbc     ........+..|....
    c110:	d4cd 3add 86a2 08c6 c347 d0ce a22a cd86     ...:....G...*...
    c120:	de34 09c3 cdde de09 4fcd 7dd0 c23d ddd4     4........O.}=...
    c130:	09cd c9de cde5 de09 2bcd c1de 23cd 0dde     .........+...#..
    c140:	cecd 0dd0 e0c2 c9dd 2bcd 3ade 86a2 04c6     .........+.:....
    c150:	a232 c986 a23a c686 3208 86a2 3ac9 86a2     2...:....2...:..
    c160:	0cc6 a232 c986 34cd 3ade 86a2 d647 3204     ..2....4.:..G..2
    c170:	86a2 a22a c986 a23a 4786 08d6 a232 2a86     ..*...:..G..2..*
    c180:	86a2 2ac9 86a2 c67d 4704 e5c9 13d1 1313     ...*..}..G......
    c190:	c313 d31b d1e5 1b1b 1b1b 1bc3 54d3 c67d     .............T}.
    c1a0:	5f08 1bc3 e5d3 12cd b7d0 53f2 3dde 80f6     ._.........S.=..
    c1b0:	56c3 3dde 7fe6 e177 e5c9 5fcd e1de cdc9     .V.=..w...._....
    c1c0:	d012 f2b7 de6c f63c c380 de6f e63c 777f     ....l.<...o.<..w
    c1d0:	44c9 294d 0929 c929 cde5 d012 80f6 e177     .DM)).).......w.
    c1e0:	e5c9 12cd eed0 7780 c9e1 cde1 de90 c9d1     .......w........
    c1f0:	cde5 d012 7fe6 e177 2ac9 86a2 c545 e8cd     ......w..*..E...
    c200:	c1dd cec3 21d0 f0d0 9dc3 cdd0 decf ebcd     .....!..........
    c210:	21dd f0cc 9dcd cdd0 de09 c3c3 2ad0 86a2     .!...........*..
    c220:	12cd c3d0 decf d1e1 12cd b7d0 abfa e6de     ................
    c230:	4f7f 73cd cad3 dea5 a5fa 79de c62f 4f19     .O.s.......y/..O
    c240:	f8e6 1f1f 471f 0504 f1ca 2bde 0036 e7c3     .....G.....+6...
    c250:	2bde e679 4707 c304 defa 02cd 3ddf a62f     .+y..G.......=/.
    c260:	c977 37af 0517 04c2 c9df d1e1 29cd c8d3     w..7.........)..
    c270:	12cd e5d0 80e6 01f6 21f5 f0cc 9dcd f1d0     .........!......
    c280:	77e1 1dc3 d5d0 46cd cddf d021 f021 cdf0     .w.....F..!.!...
    c290:	db44 d9cd d1d0 d5c9 ebcd cddd df25 09cd     D...........%...
    c2a0:	cdde d0ce c9d1 2a2a 7d86 6784 3711 195b     ......**.}.g.7[.
    c2b0:	5c55 22eb 8628 7ceb 7fe6 2267 862a cdc9     U\."(..|..g"*...
    c2c0:	dfe1 092d 9ccd cddf de81 73c3 cddf dfdb     ..-........s....
    c2d0:	9ccd cddf dfdb 88c2 cddf ddeb 9ccd cddf     ................
    c2e0:	de09 b8cd c3d0 df73 e1cd 2ddf cd4d ddeb     ......s....-M...
    c2f0:	9ccd cddf de09 c3cd c3d0 df73 c7cd cddf     ..........s.....
    c300:	dfe1 0f2a ebcd cddd dfc7 09cd cdde d0ce     ..*.............
    c310:	9fc3 cddf dfe1 222f ebcd cddd dfc7 09cd     ....../"........
    c320:	cdde d0d9 9fc3 cddf e181 e1cd 5edf cd0b     .............^..
    c330:	ddeb c7cd d5df 4ecd d1dd 1ac9 2bfe 13c0     .......N.....+..
    c340:	e3c9 be1a ca23 dfef 4ec5 0006 c109 131b     ....#....N......
    c350:	e323 c9c9 0010 800c 0000 000c 0000 0000     #...............
    c360:	27c3 00e2 7ff0 b7eb e0e4 93e7 e4ed f3e1     .'..............
    c370:	dee1 eae1 f9e1 d5e1 efef 0884 f9e6 d8ea     ................
    c380:	d0e6 d6e4 6ee4 89e5 cee5 01e9 33e9 61eb     .....n.......3.a
    c390:	67ea 8bea a3ea d6ea 19e8 37e7 25e7 bce7     .g.........7.%..
    c3a0:	cded 19e7 f2e7 f884 6e84 4ceb f5e5 a084     .........n.L....
    c3b0:	b4e5 c4e5 a3e7 8aed b8de 84dc 0aed c2df     ................
    c3c0:	3fd9 77dc c6db d3de 4ed9 8fd9 fbda 9a84     .?.w.....N......
    c3d0:	e6d0 a1ec b2ec cdec 6fec 4eec 48ed 5bed     .........o.N.H.[
    c3e0:	63ed 54ed 69ed d3ed 5359 4554 d24d 4e55     .c.T.i..YSTEM.UN
    c3f0:	45ce cc57 5349 d354 5a49 cc45 414f 4844     .EW.IST.IZE.OADH
    c400:	4fcc 4441 41d3 4556 d348 5641 c845 534c     .OAD.AVEH.AVE.LS
    c410:	c354 4e4f 4954 554e c345 5355 5245 45ce     T.ONTINUE.USER.E
    c420:	5458 45cc c954 c546 444e 54d3 504f 45d2     XT.ET.F.ND.TOP.E
    c430:	5554 4e52 4fc6 c952 504e 5455 52d0 4e49     TURN.OR.NPUT.RIN
    c440:	cf54 c34e 454c 5241 55c3 5352 524f 4fd0     T.N.LEAR.URSOR.O
    c450:	454b 41c3 4c4c 49d0 5443 5255 c445 5441     KE.ALL.ICTURE.AT
    c460:	d241 4145 d244 5345 4f54 4552 49c4 d24d     A.EAD.ESTORE.IM.
    c470:	4e41 4f44 494d 455a 45d2 d34d 5355 5245     ANDOMIZE.EM.USER
    c480:	55d0 c754 544f c74f 534f 4255 45c7 d454     .UT.OTO.OSUB.ET.
    c490:	d34f 4554 d450 4548 d04e 4545 c14b 5342     O.TEP.HEN.EEK.BS
    c4a0:	58c5 d250 444e 47d3 d34e 4e49 51d3 cc52     .XP.ND.GN.IN.QR.
    c4b0:	474f 4ec9 c354 534f 41d4 c14e 4e54 48c3     OG.NT.OS.AN.TN.H
    c4c0:	4345 d04b cc49 4e45 45cc 5446 49d2 4847     ECK.I.EN.EFT.IGH
    c4d0:	cd54 4449 41d4 bc42 be3e bc3d bd3d bcbe     T.ID.AB.>.=.=...
    c4e0:	cdff e395 29c2 feee ca29 eda3 ffda fee1     .....)..).......
    c4f0:	ca2c ed84 36fe a0d2 f5e1 b3cd f1e1 e5d5     ,....6..........
    c500:	0321 87e0 61cd cdf1 f168 fee9 d225 e1ff     !....a..h...%...
    c510:	a0c3 cde1 e1c0 2ecd cded e1d0 a22a c986     ............*...
    c520:	c7cd c2e1 e1ff 1ac9 28fe 13c0 cdc9 ecf3     .........(......
    c530:	e1cd 29df c92a 131a 2cfe c3c8 e1ff 09cd     ...)*....,......
    c540:	c3f0 e261 03cd c3f0 e261 cacd cdeb f7ba     ..a.....a.......
    c550:	61c3 cde2 f7d0 61c3 cde2 f81a 61c3 21e2     .a.....a.....a.!
    c560:	f110 0ec3 21e2 f10b 0ec3 21e2 f116 a9cd     .....!.....!....
    c570:	2aef 8602 7ee5 b623 cad1 e261 b77e c4fa     .*...~#...a.~...
    c580:	cde9 e822 61c3 cde2 f14d 2521 22f1 83de     .."..a..M.!%."..
    c590:	1a21 22bf 8804 0621 2288 8802 eecd 36e4     !.."..!..".....6
    c5a0:	2100 eff9 9f22 2184 0415 2a22 3e86 32c3     .!.."..!.."*.>.2
    c5b0:	8693 9632 3286 849e 6ccd 21fa f12f a9cd     ..2..2...l.!/...
    c5c0:	31ef 8600 affb 8f32 2184 eff9 9f22 3e84     .1....2..!.."..>
    c5d0:	32c3 849e 7d3a 3d84 7eca cde2 eff4 0821     .2..:}.=.~....!.
    c5e0:	cdf1 efa9 8b21 22e2 8602 0021 2200 8608     ....!.."..!.."..
    c5f0:	0422 2186 8633 a222 2186 86a7 a422 cd86     "..!3."..!.."...
    c600:	f946 1d11 cd84 f00c 75cd cdef f00c b57c     F........u....|.
    c610:	58ca cde4 e2b9 9fc3 d5e2 cde5 e50d d1e1     .X..............
    c620:	d5e5 21eb bfb0 2373 2372 e5d1 bd21 3ee0     ...!..s#r#..!..>
    c630:	320c 861b 1822 e186 abcd 11e3 bfb0 0021     .2..".........!.
    c640:	2200 861d c5e1 79d5 f593 45cd d5e3 0ec2     .".....y...E....
    c650:	d5e3 63cd c1e3 002a cd88 e37b 6960 0022     ...c..*...{.`i".
    c660:	2a88 8802 7bcd 60e3 2269 8802 0036 2ac1     .*...{.`i"..6..*
    c670:	8802 e5f1 03fe c5c8 064f 0900 2aeb 8804     ........O....*..
    c680:	cdeb f793 0bd2 22e2 8802 2ae5 8800 2209     ......."...*..."
    c690:	8800 c1e1 cdd1 e386 e1d1 7bcd c9e3 2ae5     ...........{...*
    c6a0:	8602 52c3 7ce3 fab7 e205 0611 e588 002a     ...R.|........*.
    c6b0:	2b88 93cd e1f7 1ad8 4795 1a13 da9c e364     .+.......G....d.
    c6c0:	b01b 13c9 cd13 e36e c313 e34d 1313 3d1a     ......n...M....=
    c6d0:	0cfe fec8 d203 e36d 6cc3 cde3 f793 1ac8     ......m..l......
    c6e0:	1302 c303 e37b 9278 8ec2 79e3 c893 2b1b     ....{.x....y...+
    c6f0:	771a 86c3 1ae3 01fe 13c0 131a 1ac9 01fe     .w..............
    c700:	ffc2 13e1 b81a ffc2 13e1 e5c9 78cd e1e4     .............x..
    c710:	423e cab9 e3d3 0136 7123 7923 07fe 32ca     >B....6.#q#y...2
    c720:	fee4 ca20 e432 1bfe 32ca fee4 ca1a e440     .. .2....2....@.
    c730:	abc3 d5e3 cde5 eaba c1e1 e9da 0ae3 0377     ..............w.
    c740:	7b23 c2b9 e3dd abc3 c5e3 cdd1 ef03 f7da     #{..............
    c750:	cde3 ef28 abc3 1ae3 22fe 08ca cde4 e453     ..(......"....S.
    c760:	0dfe abc2 e5e3 c9c1 0336 e523 1323 0006     ........6.#.#...
    c770:	53cd fee4 ca0d e421 22fe 21ca 04e4 10c3     .S....!..".!....
    c780:	e3e4 e170 362b 2300 0dfe abc2 77e3 c323     ..p.+6.#.....w#.
    c790:	e405 0ccd cdf0 e453 0dfe 35c2 e5e4 c9c1     ......S....5....
    c7a0:	0ccd cdf0 e453 0dfe 3dca fee4 c23a e443     ....S....=..:.C.
    c7b0:	abc3 1ae3 1377 c923 8621 afe0 1b32 2286     ....w.#.!...2.."
    c7c0:	8618 b021 e5bf abcd d1e3 203e 8132 cd84     ..!.......> 2...
    c7d0:	e395 abca c3e1 eaf0 182a 3a86 861b cd4f     ........*..:..O.
    c7e0:	f00c 06d5 1a00 80f6 fe13 ca2e e4ae 0423     ..............#.
    c7f0:	1abe 88ca 3ee4 0580 a0ca 1be4 dabe e4ae     .....>..........
    c800:	be23 a0d2 d1e4 7e0c c83c c32b e482 c9f1     #......~<.+.....
    c810:	b81a 13c0 131a cdc9 e395 cbc2 fee4 c215     ................
    c820:	e1ff fe1a ca31 1000 ffc3 d5e1 eecd d1e4     ....1...........
    c830:	cacd c3eb e261 013e 8f32 c384 ebb0 74cd     ....a.>.2......t
    c840:	e50e ebc1 b178 36c8 2300 c30b e4e4 022a     ....x..6.#....*.
    c850:	1188 8806 decd 2ae4 8804 1a11 ebbf decd     .......*........
    c860:	21e4 8806 0022 2288 8802 0036 2ac9 8802     .!..".."..6..*..
    c870:	0ecd ebd0 002a cd88 d00e 0036 3623 cd00     ....*.....6.#6..
    c880:	d00e 0ecd 23d0 cde5 0e74 b57c 3fe1 1ad2     .....#..t.|..?..
    c890:	c9e5 fe1a c83a 0dfe 13c8 32c3 22e5 8490     ....:......2."..
    c8a0:	83cd cde6 e532 902a c384 e552 83cd cde6     ....2.*...R.....
    c8b0:	ef75 cdd5 e345 05c2 2ae2 8602 2ae5 8604     u...E....*...*..
    c8c0:	21e5 0000 0822 3986 0422 c386 eb9d cacd     .!.."..9".......
    c8d0:	2aeb 8604 b57c ffca f9e1 22e1 8604 22e1     .*..|......"..."
    c8e0:	8602 cdd1 e6b4 b0c3 cdeb e683 3ccd 79ee     .............<.y
    c8f0:	24fe ffca 22e1 8608 0acd 06eb cd26 e39d     .$..."......&...
    c900:	2ecd 21ed 860e 1acd cdeb e395 c0c2 fee5     ...!............
    c910:	c227 e205 2ecd 21ed 860a 1acd c3eb e5cb     '......!........
    c920:	cc21 d5f0 0a11 cd86 d31b 2ad1 8602 1222     !..........*..".
    c930:	eb86 1422 0186 000e 082a eb86 6860 3e39     ..".....*...`h9>
    c940:	7e09 b623 01ca 7ee6 ba2b e0c2 7ee5 c2bb     .~#....~+....~..
    c950:	e5e0 21eb 0000 4439 214d 000e cd19 e386     ...!..9DM!......
    c960:	2af9 8614 c3eb ebb0 3ccd daee e1ff 0622     .*.......<....".
    c970:	d586 2aeb 8608 b57c ffca cde1 f793 2bca     ...*..|........+
    c980:	d1e6 b4cd 2ae6 8606 11c3 11e6 8633 cdd5     .....*......3...
    c990:	d31b 3321 0686 cd0a e679 cde1 d0b8 ebe5     ..!3....y.......
    c9a0:	082a eb86 1bcd e1d3 3321 e586 0e06 79cd     *.......!3.....y
    c9b0:	e1e6 0d3a 0786 5cd2 7de6 4768 0ecd d1d1     ..:....\.}hG....
    c9c0:	66ca d2e6 e673 122a 2286 8602 142a eb86     .f..s.*.."..*...
    c9d0:	b0c3 cdeb e6b4 b0c3 11eb 8637 684b 1bcd     ..........7.Kh..
    c9e0:	41d3 21c9 8580 b2cd c1f7 d239 e20b 082a     .A.!......9...*.
    c9f0:	7c86 cab5 e6b1 142a e586 122a e586 0e2a     .|....*...*...*.
    ca00:	e586 102a e586 0a2a e586 0c2a e586 082a     ..*...*...*...*.
    ca10:	e586 c9c5 e1c1 0822 7c86 cab5 e6d6 22e1     ......"..|....."
    ca20:	860c 22e1 860a 22e1 8610 22e1 860e 22e1     ..."..."..."..."
    ca30:	8612 22e1 8614 c9c5 57cd daec e70d 95cd     ...".....W......
    ca40:	fee3 ca3c e6f4 3ffe ffc2 cde1 e6fd bfca     ..<....?........
    ca50:	c3e7 e719 fdcd c2e6 e7bf 19c3 e5e7 d4cd     ................
    ca60:	ebeb 1be3 462b 0404 1ecd d1ed cdc9 ed2e     ....+F..........
    ca70:	b77c 05c2 b5e2 bfc2 21e7 0000 65cd d2e3     |........!...e..
    ca80:	eb9d 61c3 cde2 ef75 cdd5 e345 7acd ebe7     ...a..u...E..z..
    ca90:	2622 d186 b0c3 cdeb ee3c e5d5 2aeb 8626     "&......<....*&.
    caa0:	7aeb cab3 e756 131a 0dfe 59ca fee7 ca2c     .z..V......Y..,.
    cab0:	e75c c31b e75c 0611 cd88 e77a fe79 ca24     \...\.....z.y.$.
    cac0:	e794 a0cd ebef 2622 eb86 cde1 d0ab cdd1     ......"&........
    cad0:	dfe1 032c 37c3 c3e7 ebb0 1313 95cd fee3     ..,..7..........
    cae0:	c81b 6ecd 13e3 2ae5 8800 93cd e1f7 05ca     ...n...*........
    caf0:	c3e2 e77a 0006 fe1a ca2c e7a8 0dfe a8ca     ..z.....,.......
    cb00:	77e7 2313 c304 e796 0036 22eb 8626 e1eb     .w.#....6.."&...
    cb10:	702b 6ec3 cde7 e345 e1d5 2223 8602 06c9     +p.n..E...#"....
    cb20:	cd28 e39d fe1a d203 eb6e a4c3 2aeb 8628     (.......n....*(.
    cb30:	2a22 c386 ebb0 2ae5 8800 222b 8602 c9e1     "*.....*..+"....
    cb40:	75cd 7cef c2b5 e7f3 45cd d5e3 d6cd d1e7     .u.|.....E......
    cb50:	16c3 e5e8 e1cd 2cdf cd19 ef75 b57c 08c2     .......,..u.|...
    cb60:	e1e8 45cd c3e3 e7eb b5cd e1e7 45cd c3e3     ...E.........E..
    cb70:	e816 cde1 e7b5 61da cde2 e822 3ecd c3e3     .......a.."..>..
    cb80:	e816 6f1a 1a13 1367 040e 80cd 3ee9 cd20     ...o..g......> .
    cb90:	849e 32af 861a cde5 e83c c9e1 95cd c2e3     ...2....<.......
    cba0:	e899 f5d5 d6f5 fe23 d202 e856 1a3a b786     ......#...V.:...
    cbb0:	5dc2 c3e8 e862 03d6 03fe 62d2 3ee8 cd20     .]..b......b.> .
    cbc0:	849e 21f1 e087 0447 0504 77ca 7ee8 fe23     ...!..G....w.~#.
    cbd0:	da80 e86d 69c3 2be8 e67e cd7f 849e 7e23     ..m..i.+~.....#~
    cbe0:	80fe 7bda f1e8 29fe 90d2 3ee8 cd20 849e     ...{...)...> ...
    cbf0:	013e 1a32 d186 3cc3 06e8 cd02 e4b0 a7c2     >.2....<........
    cc00:	cde8 eeef 3cc3 06e8 cd03 e4b0 c1c2 3ee8     .....<.........>
    cc10:	cd22 849e cdeb efa9 3eeb cd22 849e 3cc3     "........>"....<
    cc20:	fee8 c23a e8cc aff5 1a32 f186 9ecd 1384     ..:.....2.......
    cc30:	0dfe c3c8 e83c 7d2a cd84 fab9 7f2a e584     ....<.*}....*...
    cc40:	cbcd c1ea b77c fbc2 78e8 80fe fbd2 7de8     ....|....x.....}
    cc50:	0302 e1cd 2cdf c507 e0c3 c3e8 e205 b0c3     .....,..........
    cc60:	1aeb 3afe 6cca fee9 ca0d e972 23fe 18c2     ...:.l....r..#..
    cc70:	13e9 28cd cded e1d6 78cd cde9 ed2e a22a     ...(.....x....*.
    cc80:	cd86 d662 7d3a 8684 fe23 da21 e931 f4cd     ..b.:}..#.!.1...
    cc90:	cdef efa9 fe1a c22c e95a 3a13 847d 0ffe     ......,.Z..:}...
    cca0:	49da cde9 eff4 60c3 3ee9 320f 847d 60c3     .I.....`.>.2}..`
    ccb0:	cde9 efa9 fe1a ca2c e95f 3bfe 66c2 13e9     ......,._..;.f..
    ccc0:	b6cd c3eb e90c f4cd c3ef ebb0 f3cd c3ef     ................
    ccd0:	eba4 f3cd c3ef eb94 d4cd d8eb c3f1 e951     ..............Q.
    cce0:	11d5 000a 42d5 2006 cd0d f7af 92f2 06e9     .....B. ........
    ccf0:	0d2d cdc5 f799 b178 a3ca e3e9 e52d 6960     -.....x.....-.`i
    cd00:	93c3 c1e9 790d fab7 e9b2 203e 9ecd c384     .....y....> ....
    cd10:	e9a4 cd78 849e 7b5d 0afe c8d1 30c6 9ecd     ..x...]{.....0..
    cd20:	c384 e9b7 062a f986 22e1 8602 d1d1 06d5     ....*...."......
    cd30:	cd03 e4b0 e3c2 cde9 ec4f a9cd cdef ee3c     ........O.....<.
    cd40:	f7c3 06e9 cd02 e4b0 ffc2 cde1 eef5 cde5     ................
    cd50:	eef2 23e1 b1cd d5ee 2aeb 8602 21e5 e029     ...#.....*...!).
    cd60:	0222 2186 0000 2239 8606 fe79 ca24 ea42     "..!..9"..y.$.B.
    cd70:	cdd5 ea36 a0cd 1aef 0dfe 11c2 d1ea a22a     ..6...........*.
    cd80:	cd86 d31b 22e1 8602 f1d1 cd1a dfe1 032c     ....."........,.
    cd90:	cec3 c3e9 ebb0 3f3e f9cd cdef f01c 1d11     ......>?........
    cda0:	c984 cdd5 ea36 1c3a 3d84 3d47 13fe 43d2     ....6.:..=G=...C
    cdb0:	32ea 841c 1bd1 1c21 cd84 d31d 12af 24c3     .2....!........$
    cdc0:	cdea fa6c b0c3 cdeb ed28 1f3e cd2d eab0     ..l.....(.>.-...
    cdd0:	e52c d6cd cde1 ed28 0f3e cd2d eab0 3c7d     ,.....(.>.-...}<
    cde0:	7e32 e184 327d 847d b0c3 cdeb eada d6cd     2~..}2}.........
    cdf0:	e5e1 dacd 7cea c2b7 eaa0 e17d c377 ebb0     .....|....}.w...
    ce00:	05c3 cde2 eada ac01 d5ea e9c5 c3d1 ebb0     ................
    ce10:	dabd e205 b77c 05c2 c9e2 cbcd feea caff     ....|...........
    ce20:	eac9 e1cd 48df b702 37c9 cdc9 f00c 1421     .....H...7....!.
    ce30:	eb84 a6cd ebf6 142a c984 cdd5 eaba e3da     ......*.........
    ce40:	f1ea d1c9 3ccd daee e1ff 2fcd c3ee d04f     .....<...../..O.
    ce50:	cd1a ebc1 0dfe b0ca cdeb eb04 e1cd 2cdf     ...............,
    ce60:	c3af eaf9 3ccd daee e1ff 06e5 cd3f e39d     .....<......?...
    ce70:	fe79 ca24 eb24 2ecd e1ed ebd5 3321 cd86     y.$.$.......!3..
    ce80:	d31b c9d1 d4cd daeb e1ff e3eb 1beb 67cd     ...............g
    ce90:	d1ec cdc9 ed28 95cd c2e3 e1ff 23d6 02fe     ....(........#..
    cea0:	ffd2 f5e1 58cd c1eb 51ca cdeb e532 b0c3     .....X...Q..2...
    ceb0:	05eb 74c2 c3eb e53d b77c 05fa 45e2 cdc5     ...t..=.|....E..
    cec0:	ef75 05c1 1ac8 fe13 ca2c eb5e c91b 75cd     u.......,.^....u
    ced0:	cdef ebca cdd5 e345 05c2 f1e2 9dc3 cdeb     ......E.........
    cee0:	ebca 0dcd 21e5 0000 2622 2186 d357 2a22     .....!.."&.!W."*
    cef0:	1186 8806 0021 cd00 e34d 61da ebe2 0222     ....!...M..a..".
    cf00:	eb86 1313 b8cd cdef e395 abca c3e1 eaf0     ................
    cf10:	b6cd c3eb e1ff fe1a c23a ebc1 f113 a4c3     ........:.......
    cf20:	feeb c00d f113 94c3 c9eb fe1a c80d ffc3     ................
    cf30:	cde1 e1c0 28cd d8ec dbcd c2df ec26 ebd5     .....(......&...
    cf40:	a42a e586 93cd c2f7 ebf0 14cd c3ed ebf9     *...............
    cf50:	1beb 67cd ebec a422 c186 c5d1 cde5 ec28     ...g..".......(.
    cf60:	e3eb 1beb 462b c523 6bcd c1ec e1d1 a422     ....+F#..k....".
    cf70:	2b86 807e 13fe 05d2 77e2 cd23 dfdb 26c2     .+~......w#....&
    cf80:	d5ec c3e5 ebea c9b7 cdd5 e395 41c2 47ec     .............A.G
    cf90:	38d6 04fe 3ada d1ec c937 cd78 e1a0 b7f1     .8...:..7.x.....
    cfa0:	06c9 cd03 e4b0 58c2 cdec ec4f b7f1 ebc9     .......X..O.....
    cfb0:	cde5 ed14 e1eb d5c9 3ccd daee ec37 fe79     .........<..7.y.
    cfc0:	c224 ec37 b7f1 2bc9 4846 0404 1dc3 cdd3     $.7....+FH......
    cfd0:	e1b3 4fcd 4dd0 1f3e dabd ec8a 7d3a bd84     ...O.M>.....:}..
    cfe0:	8ad2 67ec 947d c34f ec90 f7cd c3ef ec99     ...g}.O.........
    cff0:	203e f9cd 0def 90c2 ebec 0bcd ebed 0036     > ............6.
    d000:	cdc9 e1cd cdd5 ed0b 41d5 1dcd afd3 e112     .........A......
    d010:	c9d1 cdcd d5e1 cde5 ed14 5acd 2bf1 2aeb     ...........Z.+.*
    d020:	86a4 41eb 6bcd e1ec 0bcd d1ed cdc9 ecf3     ...A.k..........
    d030:	2b09 91e5 f53c 05cd cded e1d0 bdf1 05da     .+..<...........
    d040:	4de2 c3e1 eca4 d1cd cdeb e1d0 6e2b 0026     .M..........+n&.
    d050:	21c3 cdd0 ebd1 cde5 ed05 c1e5 2be1 b97e     .!...........+~.
    d060:	05da 23e2 cdc9 e1d6 28c3 ebed a42a 2b86     ...#.....(..*..+
    d070:	2371 c9eb 2bc5 0006 094e 2323 c9c1 be1a     q#...+..N.##....
    d080:	13c0 0523 1ec2 c9ed 2ecd c3ed d04f 5fcd     ..#.........O.._
    d090:	cddf e395 6fc2 d6ed fe3c da06 ed43 1b1b     .....o..<...C...
    d0a0:	6fc3 c6ed c33c e1a0 72cd d8ed c96f 72cd     .o..<....r..o..r
    d0b0:	c8ed c96f 72cd c8ed 6fd8 cdc9 ed72 c86f     ..o..r...o..r.o.
    d0c0:	6cd8 cdc9 ed72 6fc0 cdc9 ed72 6fd0 26c9     .l..r..o..r..o.&
    d0d0:	c9ff ebcd cddd df5f 09cd cdde d10e 013e     ......_.......>.
    d0e0:	0021 c900 c7cd c2e1 df25 2ecd cded e1d0     !.......%.......
    d0f0:	37c3 2adf 8800 2aeb 8804 74cd cd0e e980     .7.*...*...t....
    d100:	61c3 cde2 e1c0 dacd cdea e1d0 267e 6f00     .a..........~&.o
    d110:	21c3 3dd0 c1e5 3d09 b6c2 c9ed 0206 b0cd     .!.=...=........
    d120:	cae4 edc7 ffc3 cde1 eef5 cde5 d00e 68cd     ...............h
    d130:	7cf1 c2b5 e1ff c0cd cde1 ed28 e1cd 2cdf     .|........(....,
    d140:	7d42 323c 8623 cdf5 ed28 d0cd f1e1 cd23     B}<2#...(.....#.
    d150:	edb3 222b 8624 e5e1 140e fe7e ca24 ee02     ..+"$.....~.$...
    d160:	040e 2a79 8624 b3cd e5ed 2ac1 8804 5acd     ..y*$......*...Z
    d170:	22f1 8804 2122 e186 0ecd d5d0 6ccd d1ef     .".."!.......l..
    d180:	b0c3 cdeb e1d0 f2c3 cded ee3c 9ada d5ef     ..........<.....
    d190:	2aeb 86a2 ebe5 1bcd e1d3 c9d1 0206 b0cd     .*..............
    d1a0:	cae4 ee46 c937 f5cd 23ee cde5 e1c7 b0c2     ..F.7....#......
    d1b0:	cdee ed28 e5c1 cdc5 dfe1 482c 28cd cded     ..(.......,H.(..
    d1c0:	e1d0 cde3 ef61 3ae1 8623 cdf5 edb3 c1f1     ....a..:#.......
    d1d0:	b93d 05da 09e2 c1e5 242a cd86 f15a b77c     =.......*$..Z.|.
    d1e0:	05fa 3ae2 861f e1c5 fe23 ca24 ee93 2929     ...:....#.$...))
    d1f0:	98c3 cdee de71 2329 c1e5 212a 0986 1f3a     ....q.)#..*!..:.
    d200:	4f86 c9b7 d0cd e3e1 61cd c1ef c3f1 ee78     .O.......a....x.
    d210:	d5e1 cde5 ef61 2ac1 8621 b77c e8c2 c5ee     ....a..*!.|.....
    d220:	042a 0688 0eff 3af8 861f 24fe d9c2 0eee     *......:...$....
    d230:	09ec 0422 2388 ddc3 09ee 0422 2288 8621     .."..#....".."!.
    d240:	e1eb 2323 2373 eb72 3ad1 861f b74f cdc9     ..##s#r..:..O...
    d250:	eef5 a9c3 d5ef 002a eb88 0026 296f 2929     ......*...&.o)))
    d260:	d119 1bc9 131a 30d6 0afe 1ad8 d64f fe41     .......0....O.A.
    d270:	3f1a 13d8 471a 24fe 25ca d6ef fe30 da09     .?...G.$.%..0...
    d280:	ef25 0006 13c9 c9b7 023e 2377 d5e5 d1c5     %.......>.w#....
    d290:	002a 0688 7e00 cab7 ef4e c2bb ef45 7e23     *....~..N...E.#~
    d2a0:	caba ef5c 3e2b cd08 f161 c304 ef35 2373     ..\.+>..a...5.s#
    d2b0:	2372 77af 0611 1900 0222 7788 e1d1 2370     r#.w...."..w..p#
    d2c0:	d5c9 1f11 0686 cd07 d31d c9d1 2111 eb86     .............!..
    d2d0:	0506 1dc3 21d3 0000 1a44 30fe fed8 d03a     .....!..D..0..:.
    d2e0:	f03e c2a4 e205 c504 71cd 1ade e613 cd0f     >........q......
    d2f0:	f161 1ac1 05fa c3e2 ef7a c7cd cae1 e1b6     a.......z.......
    d300:	a22a e586 f3cd e1d0 afc9 7e47 b823 cdc8     *.........G~#...
    d310:	849e 0dfe abc2 c9ef 8f3a b784 f3c8 21d5     ........:......!
    d320:	0000 2239 861d 8021 1185 bf1a 9606 1dcd     ..9"..!.........
    d330:	fbd3 61c3 2ae2 861d b57c 05ca f3e2 7e31     ...a.*..|.....1~
    d340:	1185 8580 1a21 06bf cd96 d31d 1d2a f986     ....!.......*...
    d350:	d1fb 13c9 dccd 3efa 320d 8479 a0c3 00f9     .......>.2y.....

0000d360 <tk80font>:
	...
    d368:	00fc 0000 0000 0000 0404 0404 0000 0000     ................
    d378:	04fc 0404 0000 0000 0000 0000 0404 0404     ................
    d388:	00fc 0000 0404 0404 0404 0404 0404 0404     ................
    d398:	04fc 0404 0404 0404 0000 0000 0000 fc00     ................
    d3a8:	00fc 0000 0000 fc00 0404 0404 0000 fc00     ................
    d3b8:	04fc 0404 0000 fc00 0000 0000 0404 fc04     ................
    d3c8:	00fc 0000 0404 fc04 0404 0404 0404 fc04     ................
    d3d8:	04fc 0404 0404 fc04 0000 0000 8080 8080     ................
    d3e8:	00fc 0000 8080 8080 0404 0404 8080 8080     ................
    d3f8:	04fc 0404 8080 8080 0000 0000 8484 8484     ................
    d408:	00fc 0000 8484 8484 0404 0404 8484 8484     ................
    d418:	04fc 0404 8484 8484 0000 0000 8080 fc80     ................
    d428:	00fc 0000 8080 fc80 0404 0404 8080 fc80     ................
    d438:	04fc 0404 8080 fc80 0000 0000 8484 fc84     ................
    d448:	00fc 0000 8484 fc84 0404 0404 8484 fc84     ................
    d458:	04fc 0404 8484 fc84 8080 8080 0000 0000     ................
    d468:	80fc 8080 0000 0000 8484 8484 0000 0000     ................
    d478:	84fc 8484 0000 0000 8080 8080 0404 0404     ................
    d488:	80fc 8080 0404 0404 8484 8484 0404 0404     ................
    d498:	84fc 8484 0404 0404 8080 8080 0000 fc00     ................
    d4a8:	80fc 8080 0000 fc00 8484 8484 0000 fc00     ................
    d4b8:	84fc 8484 0000 fc00 8080 8080 0404 fc04     ................
    d4c8:	80fc 8080 0404 fc04 8484 8484 0404 fc04     ................
    d4d8:	84fc 8484 0404 fc04 8080 8080 8080 8080     ................
    d4e8:	80fc 8080 8080 8080 8484 8484 8080 8080     ................
    d4f8:	84fc 8484 8080 8080 8080 8080 8484 8484     ................
    d508:	80fc 8080 8484 8484 8484 8484 8484 8484     ................
    d518:	84fc 8484 8484 8484 8080 8080 8080 fc80     ................
    d528:	80fc 8080 8080 fc80 8484 8484 8080 fc80     ................
    d538:	84fc 8484 8080 fc80 8080 8080 8484 fc84     ................
    d548:	80fc 8080 8484 fc84 8484 8484 8484 fc84     ................
    d558:	84fc 8484 8484 fc84 0000 fc00 0000 0000     ................
    d568:	00fc fc00 0000 0000 0404 fc04 0000 0000     ................
    d578:	04fc fc04 0000 0000 0000 fc00 0404 0404     ................
    d588:	00fc fc00 0404 0404 0404 fc04 0404 0404     ................
    d598:	04fc fc04 0404 0404 0000 fc00 0000 fc00     ................
    d5a8:	00fc fc00 0000 fc00 0404 fc04 0000 fc00     ................
    d5b8:	04fc fc04 0000 fc00 0000 fc00 0404 fc04     ................
    d5c8:	00fc fc00 0404 fc04 0404 fc04 0404 fc04     ................
    d5d8:	04fc fc04 0404 fc04 0000 fc00 8080 8080     ................
    d5e8:	00fc fc00 8080 8080 0404 fc04 8080 8080     ................
    d5f8:	04fc fc04 8080 8080 0000 fc00 8484 8484     ................
    d608:	00fc fc00 8484 8484 0404 fc04 8484 8484     ................
    d618:	04fc fc04 8484 8484 0000 fc00 8080 fc80     ................
    d628:	00fc fc00 8080 fc80 0404 fc04 8080 fc80     ................
    d638:	04fc fc04 8080 fc80 0000 fc00 8484 fc84     ................
    d648:	00fc fc00 8484 fc84 0404 fc04 8484 fc84     ................
    d658:	04fc fc04 8484 fc84 8080 fc80 0000 0000     ................
    d668:	80fc fc80 0000 0000 8484 fc84 0000 0000     ................
    d678:	84fc fc84 0000 0000 8080 fc80 0404 0404     ................
    d688:	80fc fc80 0404 0404 8484 fc84 0404 0404     ................
    d698:	84fc fc84 0404 0404 8080 fc80 0000 fc00     ................
    d6a8:	80fc fc80 0000 fc00 8484 fc84 0000 fc00     ................
    d6b8:	84fc fc84 0000 fc00 8080 fc80 0404 fc04     ................
    d6c8:	80fc fc80 0404 fc04 8484 fc84 0404 fc04     ................
    d6d8:	84fc fc84 0404 fc04 8080 fc80 8080 8080     ................
    d6e8:	80fc fc80 8080 8080 8484 fc84 8080 8080     ................
    d6f8:	84fc fc84 8080 8080 8080 fc80 8484 8484     ................
    d708:	80fc fc80 8484 8484 8484 fc84 8484 8484     ................
    d718:	84fc fc84 8484 8484 8080 fc80 8080 fc80     ................
    d728:	80fc fc80 8080 fc80 8484 fc84 8080 fc80     ................
    d738:	84fc fc84 8080 fc80 8080 fc80 8484 fc84     ................
    d748:	80fc fc80 8484 fc84 8484 fc84 8484 fc84     ................
    d758:	84fc fc84 8484 fc84 0000 0000 0000 0100     ................
    d768:	00fc 0000 0000 0100 0404 0404 0000 0100     ................
    d778:	04fc 0404 0000 0100 0000 0000 0404 0504     ................
    d788:	00fc 0000 0404 0504 0404 0404 0404 0504     ................
    d798:	04fc 0404 0404 0504 0000 0000 0000 fd00     ................
    d7a8:	00fc 0000 0000 fd00 0404 0404 0000 fd00     ................
    d7b8:	04fc 0404 0000 fd00 0000 0000 0404 fd04     ................
    d7c8:	00fc 0000 0404 fd04 0404 0404 0404 fd04     ................
    d7d8:	04fc 0404 0404 fd04 0000 0000 8080 8180     ................
    d7e8:	00fc 0000 8080 8180 0404 0404 8080 8180     ................
    d7f8:	04fc 0404 8080 8180 0000 0000 8484 8584     ................
    d808:	00fc 0000 8484 8584 0404 0404 8484 8584     ................
    d818:	04fc 0404 8484 8584 0000 0000 8080 fd80     ................
    d828:	00fc 0000 8080 fd80 0404 0404 8080 fd80     ................
    d838:	04fc 0404 8080 fd80 0000 0000 8484 fd84     ................
    d848:	00fc 0000 8484 fd84 0404 0404 8484 fd84     ................
    d858:	04fc 0404 8484 fd84 8080 8080 0000 0100     ................
    d868:	80fc 8080 0000 0100 8484 8484 0000 0100     ................
    d878:	84fc 8484 0000 0100 8080 8080 0404 0504     ................
    d888:	80fc 8080 0404 0504 8484 8484 0404 0504     ................
    d898:	84fc 8484 0404 0504 8080 8080 0000 fd00     ................
    d8a8:	80fc 8080 0000 fd00 8484 8484 0000 fd00     ................
    d8b8:	84fc 8484 0000 fd00 8080 8080 0404 fd04     ................
    d8c8:	80fc 8080 0404 fd04 8484 8484 0404 fd04     ................
    d8d8:	84fc 8484 0404 fd04 8080 8080 8080 8180     ................
    d8e8:	80fc 8080 8080 8180 8484 8484 8080 8180     ................
    d8f8:	84fc 8484 8080 8180 8080 8080 8484 8584     ................
    d908:	80fc 8080 8484 8584 8484 8484 8484 8584     ................
    d918:	84fc 8484 8484 8584 8080 8080 8080 fd80     ................
    d928:	80fc 8080 8080 fd80 8484 8484 8080 fd80     ................
    d938:	84fc 8484 8080 fd80 8080 8080 8484 fd84     ................
    d948:	80fc 8080 8484 fd84 8484 8484 8484 fd84     ................
    d958:	84fc 8484 8484 fd84 0000 fc00 0000 0100     ................
    d968:	00fc fc00 0000 0100 0404 fc04 0000 0100     ................
    d978:	04fc fc04 0000 0100 0000 fc00 0404 0504     ................
    d988:	00fc fc00 0404 0504 0404 fc04 0404 0504     ................
    d998:	04fc fc04 0404 0504 0000 fc00 0000 fd00     ................
    d9a8:	00fc fc00 0000 fd00 0404 fc04 0000 fd00     ................
    d9b8:	04fc fc04 0000 fd00 0000 fc00 0404 fd04     ................
    d9c8:	00fc fc00 0404 fd04 0404 fc04 0404 fd04     ................
    d9d8:	04fc fc04 0404 fd04 0000 fc00 8080 8180     ................
    d9e8:	00fc fc00 8080 8180 0404 fc04 8080 8180     ................
    d9f8:	04fc fc04 8080 8180 0000 fc00 8484 8584     ................
    da08:	00fc fc00 8484 8584 0404 fc04 8484 8584     ................
    da18:	04fc fc04 8484 8584 0000 fc00 8080 fd80     ................
    da28:	00fc fc00 8080 fd80 0404 fc04 8080 fd80     ................
    da38:	04fc fc04 8080 fd80 0000 fc00 8484 fd84     ................
    da48:	00fc fc00 8484 fd84 0404 fc04 8484 fd84     ................
    da58:	04fc fc04 8484 fd84 8080 fc80 0000 0100     ................
    da68:	80fc fc80 0000 0100 8484 fc84 0000 0100     ................
    da78:	84fc fc84 0000 0100 8080 fc80 0404 0504     ................
    da88:	80fc fc80 0404 0504 8484 fc84 0404 0504     ................
    da98:	84fc fc84 0404 0504 8080 fc80 0000 fd00     ................
    daa8:	80fc fc80 0000 fd00 8484 fc84 0000 fd00     ................
    dab8:	84fc fc84 0000 fd00 8080 fc80 0404 fd04     ................
    dac8:	80fc fc80 0404 fd04 8484 fc84 0404 fd04     ................
    dad8:	84fc fc84 0404 fd04 8080 fc80 8080 8180     ................
    dae8:	80fc fc80 8080 8180 8484 fc84 8080 8180     ................
    daf8:	84fc fc84 8080 8180 8080 fc80 8484 8584     ................
    db08:	80fc fc80 8484 8584 8484 fc84 8484 8584     ................
    db18:	84fc fc84 8484 8584 8080 fc80 8080 fd80     ................
    db28:	80fc fc80 8080 fd80 8484 fc84 8080 fd80     ................
    db38:	84fc fc84 8080 fd80 8080 fc80 8484 fd84     ................
    db48:	80fc fc80 8484 fd84 8484 fc84 8484 fd84     ................
    db58:	84fc fc84 8484 fd84                         ........

0000db60 <tk80rom>:
    db60:	923e fbd3 3bc3 0000 923e fbd3 51c3 0000     >....;..>....Q..
    db70:	d1c3 0083 0000 0000 d4c3 0083 0000 0000     ................
    db80:	d7c3 0083 0000 0000 dac3 0083 0000 0000     ................
    db90:	ddc3 0083 0000 0000 ddc3 3e83 d3ff 21fa     ...........>...!
    dba0:	83ec 0c06 77af 0523 45c2 2100 83c7 e222     .....w#..E.!..".
    dbb0:	3e83 d3ff 31fa 83d1 c0cd cd01 0216 e647     .>...1........G.
    dbc0:	ca10 0084 e678 060f 8700 214f 0074 7e09     ....x.....O!t..~
    dbd0:	6623 e96f 00cc 01f9 0094 00b8 009d 00c2     #fo.............
    dbe0:	00d5 0107 b5cd 3a01 83ec 32b0 83ec a1cd     .......:...2....
    dbf0:	c301 0051 ec2a 2283 83ee a1c3 2a00 83ee     ..Q.*..".....*..
    dc00:	cd23 00ad ee22 cd83 01a1 51c3 3a00 83ec     #..."......Q.:..
    dc10:	ed32 7e83 ec32 c983 ee2a 2b83 adcd c300     2..~2...*..+....
    dc20:	00a4 ee2a 3a83 83ec c377 009d ee2a 2283     ..*..:..w...*.."
    dc30:	83e0 f9c3 0e01 2a00 83ec 2aeb 83ee cd7c     .......*...*..|.
    dc40:	0141 cd7d 0141 cd7a 0141 cd7b 0141 232b     A.}.A.z.A.{.A.+#
    dc50:	cd7e 0141 bb7d efc2 7c00 c2ba 00ef 2f79     ~.A.}....|....y/
    dc60:	cd3c 0141 51c3 3e00 d301 0efa cd00 0149     <.A..Q.>......I.
    dc70:	cd67 0149 cd6f 0149 cd57 0149 225f 83ee     g.I.o.I.W.I._"..
    dc80:	22eb 83ec 2beb cd23 0149 7d77 c2bb 0126     ."...+#.I.w}..&.
    dc90:	ba7c 26c2 cd01 0149 cbc2 cd02 01a1 51c3     |..&..I........Q
    dca0:	f500 4f81 cdf1 027c cdc9 02a0 8147 784f     ...O..|.....G.Ox
    dcb0:	e3c9 e022 f583 0421 3900 22f1 83e2 31e1     .."...!..9."...1
    dcc0:	83ec c5f5 e5d5 d131 3a83 83f2 caa7 018b     ......1..:......
    dcd0:	f02a eb83 e02a 7d83 c2bb 0185 ba7c 85c2     *...*..}....|...
    dce0:	2101 83f2 cd35 0191 f9c3 cd01 0191 51c3     .!..5..........Q
    dcf0:	2a00 83ea ec22 2a83 83e0 ee22 cd83 01a1     .*.."..*..".....
    dd00:	21c9 83ef f411 0683 7e04 2b12 0513 a9c2     .!.......~.+....
    dd10:	cd01 01c0 2ac9 83ec 2929 2929 ec22 c983     .....*..))))"...
    dd20:	f421 1183 83f8 e901 7e01 e523 e6f5 0ff0     !........~#.....
    dd30:	0f0f 260f 6f00 7e09 1312 e6f1 260f 6f00     ...&.o.~.....&.o
    dd40:	7e09 e112 c21c 01c9 5cc9 5b06 664f 7d6d     .~.......\.[Ofm}
    dd50:	7f27 776f 397c 795e 2a71 83e2 2af9 83e0     '.ow|9^yq*...*..
    dd60:	2ae5 83e4 2ae5 83ea 2ae5 83e8 444d e62a     .*...*...*..MD*.
    dd70:	eb83 e1f1 c9fb 23cd 4702 f33a a783 16ca     .......#.G:.....
    dd80:	7802 cdc9 0247 ca3c 0242 eacd cd02 0247     .x..G.<.B.....G.
    dd90:	3c47 42ca 3a02 83f3 c2a7 022a 323d 83f3     G<.B.:....*.=2..
    dda0:	c978 ff06 3dc3 1602 4200 ef3e fad3 f8db     x....=...B>.....
    ddb0:	ffee 71c2 0602 3e08 d3df dbfa eef8 c2ff     ...q...>........
    ddc0:	0271 1006 bf3e fad3 f8db ffee 71c2 3d02     q...>........q.=
    ddd0:	0fc9 79da 1402 71c3 7a02 c9b0 c5d5 0806     ...y...q.z......
    dde0:	af4f fad3 eacd 7902 7fe6 fad3 1f79 cd4f     O......y....y.O.
    ddf0:	02ea c205 0287 013e fad3 efcd c102 c9d1     ......>.........
    de00:	c5d5 0001 db08 1ff9 a5da cd02 02dd f9db     ................
    de10:	da1f 02a5 eacd db02 e6f9 8101 4f0f c205     .............O..
    de20:	02b4 eacd cd02 02ea d1c1 21c9 83f8 7936     ...........!..6y
    de30:	3623 2c80 d1c2 3102 83d1 5bc3 1600 1e24     #6.,...1...[..$.
    de40:	1d0c e1c2 1502 dfc2 c902 4816 dfc3 1602     ...........H....
    de50:	c3d8 02df ffff ffff ffff ffff ffff ffff     ................

0000de60 <usbhidcode>:
	...
    de70:	0041 00c1 0042 00ba 0043 00bf 0044 00bc     A...B...C...D...
    de80:	0045 00b2 0046 00ca 0047 00b7 0048 00b8     E...F...G...H...
    de90:	0049 00c6 004a 00cf 004b 00c9 004c 00d8     I...J...K...L...
    dea0:	004d 00d3 004e 00d0 004f 00d7 0050 00be     M...N...O...P...
    deb0:	0051 00c0 0052 00bd 0053 00c4 0054 00b6     Q...R...S...T...
    dec0:	0055 00c5 0056 00cb 0057 00c3 0058 00bb     U...V...W...X...
    ded0:	0059 00cd 005a 00d2 2131 00c7 2232 00cc     Y...Z...1!..2"..
    dee0:	2333 a7b1 2434 a9b3 2535 aab4 2636 abb5     3#..4$..5%..6&..
    def0:	2737 acd4 2838 add5 2939 aed6 0030 a6dc     7'..8(..9)..0...
    df00:	0a0a 0a0a 0000 0000 0808 0808 0000 0000     ................
    df10:	2020 2020 3d2d 00ce 007e 00cd 0040 00de         -=..~...@...
    df20:	005b a2df 005d a3d1 0000 0000 2b3b 00da     [...].......;+..
    df30:	2a3a 00b9 0000 0000 3c2c a4c8 3e2e a1d9     :*......,<...>..
    df40:	3f2f a5d2 0000 0000 0000 0000 0000 0000     /?..............
	...
    df90:	7f7f 7f7f 0000 0000 0000 0000 0000 0000     ................

0000dfa0 <__sf_fake_stderr>:
	...

0000dfc0 <__sf_fake_stdin>:
	...

0000dfe0 <__sf_fake_stdout>:
	...
